SF:C:\Users\pv2br\source\repos\AstraWeave-AI-Native-Gaming-Engine\astraweave-pcg\src\encounters.rs
FN:104,_RNvMs_NtCsc0Jhti10I2k_14astraweave_pcg10encountersNtB4_18EncounterGenerator13check_spacing
FN:114,_RNvMs_NtCsc0Jhti10I2k_14astraweave_pcg10encountersNtB4_18EncounterGenerator13generate_kind
FN:98,_RNvMs_NtCsc0Jhti10I2k_14astraweave_pcg10encountersNtB4_18EncounterGenerator17generate_position
FN:58,_RNvMs_NtCsc0Jhti10I2k_14astraweave_pcg10encountersNtB4_18EncounterGenerator3new
FN:63,_RNvMs_NtCsc0Jhti10I2k_14astraweave_pcg10encountersNtB4_18EncounterGenerator8generate
FN:43,_RNvXNtCsc0Jhti10I2k_14astraweave_pcg10encountersNtB2_20EncounterConstraintsNtNtCsixiwFwjEgS7_4core7default7Default7default
FN:210,_RNvNtNtCsc0Jhti10I2k_14astraweave_pcg10encounters5testss_21test_difficulty_range
FN:192,_RNvNtNtCsc0Jhti10I2k_14astraweave_pcg10encounters5testss_22test_bounds_constraint
FN:163,_RNvNtNtCsc0Jhti10I2k_14astraweave_pcg10encounters5testss_23test_spacing_constraint
FN:144,_RNvNtNtCsc0Jhti10I2k_14astraweave_pcg10encounters5testss_29test_deterministic_generation
FNDA:69,_RNvMs_NtCsc0Jhti10I2k_14astraweave_pcg10encountersNtB4_18EncounterGenerator13check_spacing
FNDA:50,_RNvMs_NtCsc0Jhti10I2k_14astraweave_pcg10encountersNtB4_18EncounterGenerator13generate_kind
FNDA:69,_RNvMs_NtCsc0Jhti10I2k_14astraweave_pcg10encountersNtB4_18EncounterGenerator17generate_position
FNDA:4,_RNvMs_NtCsc0Jhti10I2k_14astraweave_pcg10encountersNtB4_18EncounterGenerator3new
FNDA:5,_RNvMs_NtCsc0Jhti10I2k_14astraweave_pcg10encountersNtB4_18EncounterGenerator8generate
FNDA:1,_RNvXNtCsc0Jhti10I2k_14astraweave_pcg10encountersNtB2_20EncounterConstraintsNtNtCsixiwFwjEgS7_4core7default7Default7default
FNDA:1,_RNvNtNtCsc0Jhti10I2k_14astraweave_pcg10encounters5testss_21test_difficulty_range
FNDA:1,_RNvNtNtCsc0Jhti10I2k_14astraweave_pcg10encounters5testss_22test_bounds_constraint
FNDA:1,_RNvNtNtCsc0Jhti10I2k_14astraweave_pcg10encounters5testss_23test_spacing_constraint
FNDA:1,_RNvNtNtCsc0Jhti10I2k_14astraweave_pcg10encounters5testss_29test_deterministic_generation
FNF:10
FNH:10
DA:43,1
DA:44,1
DA:45,1
DA:46,1
DA:47,1
DA:48,1
DA:49,1
DA:58,4
DA:59,4
DA:60,4
DA:63,5
DA:64,5
DA:65,5
DA:67,5
DA:68,5
DA:70,74
DA:71,69
DA:74,69
DA:77,69
DA:78,50
DA:79,50
DA:80,50
DA:81,50
DA:82,50
DA:83,50
DA:84,50
DA:85,50
DA:86,50
DA:87,50
DA:88,50
DA:89,50
DA:90,50
DA:91,50
DA:92,50
DA:95,5
DA:96,5
DA:98,69
DA:99,69
DA:100,69
DA:101,69
DA:102,69
DA:104,69
DA:105,342
DA:106,292
DA:107,292
DA:108,19
DA:109,273
DA:111,50
DA:112,69
DA:114,50
DA:115,50
DA:116,13
DA:117,13
DA:118,13
DA:119,13
DA:120,13
DA:121,13
DA:122,13
DA:123,21
DA:124,21
DA:125,21
DA:126,21
DA:127,21
DA:128,21
DA:129,16
DA:130,16
DA:131,16
DA:132,16
DA:133,16
DA:134,16
DA:136,50
DA:144,1
DA:145,1
DA:146,1
DA:148,1
DA:149,1
DA:151,1
DA:152,1
DA:154,1
DA:156,10
DA:157,10
DA:158,10
DA:160,1
DA:163,1
DA:164,1
DA:165,1
DA:166,1
DA:167,1
DA:168,1
DA:169,1
DA:171,1
DA:172,1
DA:175,10
DA:176,45
DA:177,45
DA:178,45
DA:179,45
DA:180,45
DA:181,45
DA:182,0
DA:189,1
DA:192,1
DA:193,1
DA:194,1
DA:195,1
DA:196,1
DA:197,1
DA:198,1
DA:200,1
DA:201,1
DA:203,11
DA:204,10
DA:205,10
DA:207,1
DA:210,1
DA:211,1
DA:212,1
DA:213,1
DA:214,1
DA:215,1
DA:216,1
DA:218,1
DA:219,1
DA:221,11
DA:222,10
DA:223,10
DA:224,0
DA:228,1
BRF:0
BRH:0
LF:128
LH:126
end_of_record
SF:C:\Users\pv2br\source\repos\AstraWeave-AI-Native-Gaming-Engine\astraweave-pcg\src\layout.rs
FN:227,_RNvNtNtCsc0Jhti10I2k_14astraweave_pcg6layout5testss_14test_room_size
FN:155,_RNvNtNtCsc0Jhti10I2k_14astraweave_pcg6layout5testss_16test_no_overlaps
FN:218,_RNvNtNtCsc0Jhti10I2k_14astraweave_pcg6layout5testss_16test_room_center
FN:236,_RNvNtNtCsc0Jhti10I2k_14astraweave_pcg6layout5testss_18test_room_contains
FN:174,_RNvNtNtCsc0Jhti10I2k_14astraweave_pcg6layout5testss_20test_rooms_in_bounds
FN:190,_RNvNtNtCsc0Jhti10I2k_14astraweave_pcg6layout5testss_24test_all_rooms_connected
FN:137,_RNvNtNtCsc0Jhti10I2k_14astraweave_pcg6layout5testss_29test_deterministic_generation
FN:99,_RNCNvMs_NtCsc0Jhti10I2k_14astraweave_pcg6layoutNtB6_15LayoutGenerator14try_place_room0B8_
FN:23,_RNvMNtCsc0Jhti10I2k_14astraweave_pcg6layoutNtB2_4Room4size
FN:18,_RNvMNtCsc0Jhti10I2k_14astraweave_pcg6layoutNtB2_4Room6center
FN:28,_RNvMNtCsc0Jhti10I2k_14astraweave_pcg6layoutNtB2_4Room8contains
FN:36,_RNvMNtCsc0Jhti10I2k_14astraweave_pcg6layoutNtB2_4Room8overlaps
FN:107,_RNvMs_NtCsc0Jhti10I2k_14astraweave_pcg6layoutNtB4_15LayoutGenerator13connect_rooms
FN:63,_RNvMs_NtCsc0Jhti10I2k_14astraweave_pcg6layoutNtB4_15LayoutGenerator14generate_rooms
FN:78,_RNvMs_NtCsc0Jhti10I2k_14astraweave_pcg6layoutNtB4_15LayoutGenerator14try_place_room
FN:53,_RNvMs_NtCsc0Jhti10I2k_14astraweave_pcg6layoutNtB4_15LayoutGenerator3new
FNDA:1,_RNvNtNtCsc0Jhti10I2k_14astraweave_pcg6layout5testss_14test_room_size
FNDA:1,_RNvNtNtCsc0Jhti10I2k_14astraweave_pcg6layout5testss_16test_no_overlaps
FNDA:1,_RNvNtNtCsc0Jhti10I2k_14astraweave_pcg6layout5testss_16test_room_center
FNDA:1,_RNvNtNtCsc0Jhti10I2k_14astraweave_pcg6layout5testss_18test_room_contains
FNDA:1,_RNvNtNtCsc0Jhti10I2k_14astraweave_pcg6layout5testss_20test_rooms_in_bounds
FNDA:1,_RNvNtNtCsc0Jhti10I2k_14astraweave_pcg6layout5testss_24test_all_rooms_connected
FNDA:1,_RNvNtNtCsc0Jhti10I2k_14astraweave_pcg6layout5testss_29test_deterministic_generation
FNDA:398,_RNCNvMs_NtCsc0Jhti10I2k_14astraweave_pcg6layoutNtB6_15LayoutGenerator14try_place_room0B8_
FNDA:1,_RNvMNtCsc0Jhti10I2k_14astraweave_pcg6layoutNtB2_4Room4size
FNDA:1,_RNvMNtCsc0Jhti10I2k_14astraweave_pcg6layoutNtB2_4Room6center
FNDA:5,_RNvMNtCsc0Jhti10I2k_14astraweave_pcg6layoutNtB2_4Room8contains
FNDA:443,_RNvMNtCsc0Jhti10I2k_14astraweave_pcg6layoutNtB2_4Room8overlaps
FNDA:5,_RNvMs_NtCsc0Jhti10I2k_14astraweave_pcg6layoutNtB4_15LayoutGenerator13connect_rooms
FNDA:5,_RNvMs_NtCsc0Jhti10I2k_14astraweave_pcg6layoutNtB4_15LayoutGenerator14generate_rooms
FNDA:40,_RNvMs_NtCsc0Jhti10I2k_14astraweave_pcg6layoutNtB4_15LayoutGenerator14try_place_room
FNDA:4,_RNvMs_NtCsc0Jhti10I2k_14astraweave_pcg6layoutNtB4_15LayoutGenerator3new
FNF:16
FNH:16
DA:18,1
DA:19,1
DA:20,1
DA:23,1
DA:24,1
DA:25,1
DA:28,5
DA:29,5
DA:30,4
DA:31,3
DA:32,3
DA:33,5
DA:36,443
DA:37,443
DA:38,315
DA:39,177
DA:40,112
DA:41,443
DA:53,4
DA:54,4
DA:55,4
DA:56,4
DA:57,4
DA:58,4
DA:59,4
DA:60,4
DA:63,5
DA:64,5
DA:66,5
DA:67,40
DA:68,40
DA:69,40
DA:73,5
DA:75,5
DA:76,5
DA:78,40
DA:79,40
DA:80,121
DA:81,121
DA:83,121
DA:84,121
DA:86,121
DA:87,0
DA:88,121
DA:90,121
DA:91,121
DA:93,121
DA:94,121
DA:95,121
DA:96,121
DA:99,398
DA:100,40
DA:101,81
DA:104,0
DA:105,40
DA:107,5
DA:108,5
DA:109,0
DA:110,5
DA:113,35
DA:114,35
DA:115,35
DA:116,35
DA:119,5
DA:120,5
DA:121,11
DA:122,11
DA:124,11
DA:125,4
DA:126,4
DA:127,7
DA:129,5
DA:137,1
DA:138,1
DA:140,1
DA:141,1
DA:143,1
DA:144,1
DA:146,1
DA:148,5
DA:149,5
DA:150,5
DA:152,1
DA:155,1
DA:156,1
DA:157,1
DA:159,1
DA:161,10
DA:162,45
DA:163,45
DA:164,45
DA:165,0
DA:171,1
DA:174,1
DA:175,1
DA:176,1
DA:177,1
DA:179,1
DA:181,11
DA:182,10
DA:183,10
DA:184,10
DA:185,10
DA:187,1
DA:190,1
DA:191,1
DA:192,1
DA:194,1
DA:197,1
DA:198,0
DA:199,1
DA:201,1
DA:202,1
DA:203,1
DA:205,11
DA:206,22
DA:207,22
DA:208,9
DA:209,9
DA:210,13
DA:214,1
DA:215,1
DA:218,1
DA:219,1
DA:220,1
DA:221,1
DA:222,1
DA:223,1
DA:224,1
DA:227,1
DA:228,1
DA:229,1
DA:230,1
DA:231,1
DA:232,1
DA:233,1
DA:236,1
DA:237,1
DA:238,1
DA:239,1
DA:240,1
DA:242,1
DA:243,1
DA:244,1
DA:245,1
DA:246,1
DA:247,1
BRF:0
BRH:0
LF:148
LH:143
end_of_record
SF:C:\Users\pv2br\source\repos\AstraWeave-AI-Native-Gaming-Engine\astraweave-pcg\src\seed_rng.rs
FN:141,_RNvNtNtCsc0Jhti10I2k_14astraweave_pcg8seed_rng5testss_11test_choose
FN:151,_RNvNtNtCsc0Jhti10I2k_14astraweave_pcg8seed_rng5testss_17test_choose_empty
FN:174,_RNvNtNtCsc0Jhti10I2k_14astraweave_pcg8seed_rng5testss_19test_layer_tracking
FN:129,_RNvNtNtCsc0Jhti10I2k_14astraweave_pcg8seed_rng5testss_21test_fork_independent
FN:116,_RNvNtNtCsc0Jhti10I2k_14astraweave_pcg8seed_rng5testss_23test_fork_deterministic
FN:160,_RNvNtNtCsc0Jhti10I2k_14astraweave_pcg8seed_rng5testss_26test_shuffle_deterministic
FN:94,_RNvNtNtCsc0Jhti10I2k_14astraweave_pcg8seed_rng5testss_28test_same_seed_same_sequence
FN:104,_RNvNtNtCsc0Jhti10I2k_14astraweave_pcg8seed_rng5testss_38test_different_seed_different_sequence
FN:15,_RNvMNtCsc0Jhti10I2k_14astraweave_pcg8seed_rngNtB2_7SeedRng3new
FN:24,_RNvMNtCsc0Jhti10I2k_14astraweave_pcg8seed_rngNtB2_7SeedRng4fork
FN:30,_RNvMNtCsc0Jhti10I2k_14astraweave_pcg8seed_rngNtB2_7SeedRng5layer
FN:63,_RINvMNtCsc0Jhti10I2k_14astraweave_pcg8seed_rngNtB3_7SeedRng10choose_mutpEB5_
FN:49,_RNvMNtCsc0Jhti10I2k_14astraweave_pcg8seed_rngNtB2_7SeedRng18gen_bool_with_prob
FN:79,_RNvMNtCsc0Jhti10I2k_14astraweave_pcg8seed_rngNtB2_7SeedRng7gen_f32
FN:84,_RNvMNtCsc0Jhti10I2k_14astraweave_pcg8seed_rngNtB2_7SeedRng7gen_f64
FN:44,_RNvMNtCsc0Jhti10I2k_14astraweave_pcg8seed_rngNtB2_7SeedRng8gen_bool
FN:134,_RNCNvNtNtCsc0Jhti10I2k_14astraweave_pcg8seed_rng5testss_21test_fork_independent0B7_
FN:135,_RNCNvNtNtCsc0Jhti10I2k_14astraweave_pcg8seed_rng5testss_21test_fork_independents_0B7_
FN:108,_RNCNvNtNtCsc0Jhti10I2k_14astraweave_pcg8seed_rng5testss_38test_different_seed_different_sequence0B7_
FN:109,_RNCNvNtNtCsc0Jhti10I2k_14astraweave_pcg8seed_rng5testss_38test_different_seed_different_sequences_0B7_
FN:54,_RINvMNtCsc0Jhti10I2k_14astraweave_pcg8seed_rngNtB3_7SeedRng6chooseReEB5_
FN:54,_RINvMNtCsc0Jhti10I2k_14astraweave_pcg8seed_rngNtB3_7SeedRng6chooselEB5_
FN:73,_RINvMNtCsc0Jhti10I2k_14astraweave_pcg8seed_rngNtB3_7SeedRng7shufflelEB5_
FN:35,_RINvMNtCsc0Jhti10I2k_14astraweave_pcg8seed_rngNtB3_7SeedRng9gen_rangefINtNtNtCsixiwFwjEgS7_4core3ops5range14RangeInclusivefEEB5_
FN:35,_RINvMNtCsc0Jhti10I2k_14astraweave_pcg8seed_rngNtB3_7SeedRng9gen_rangejINtNtNtCsixiwFwjEgS7_4core3ops5range5RangejEEB5_
FN:35,_RINvMNtCsc0Jhti10I2k_14astraweave_pcg8seed_rngNtB3_7SeedRng9gen_rangelINtNtNtCsixiwFwjEgS7_4core3ops5range14RangeInclusivelEEB5_
FN:35,_RINvMNtCsc0Jhti10I2k_14astraweave_pcg8seed_rngNtB3_7SeedRng9gen_rangelINtNtNtCsixiwFwjEgS7_4core3ops5range5RangelEEB5_
FN:35,_RINvMNtCsc0Jhti10I2k_14astraweave_pcg8seed_rngNtB3_7SeedRng9gen_rangemINtNtNtCsixiwFwjEgS7_4core3ops5range14RangeInclusivemEEB5_
FNDA:1,_RNvNtNtCsc0Jhti10I2k_14astraweave_pcg8seed_rng5testss_11test_choose
FNDA:1,_RNvNtNtCsc0Jhti10I2k_14astraweave_pcg8seed_rng5testss_17test_choose_empty
FNDA:1,_RNvNtNtCsc0Jhti10I2k_14astraweave_pcg8seed_rng5testss_19test_layer_tracking
FNDA:1,_RNvNtNtCsc0Jhti10I2k_14astraweave_pcg8seed_rng5testss_21test_fork_independent
FNDA:1,_RNvNtNtCsc0Jhti10I2k_14astraweave_pcg8seed_rng5testss_23test_fork_deterministic
FNDA:1,_RNvNtNtCsc0Jhti10I2k_14astraweave_pcg8seed_rng5testss_26test_shuffle_deterministic
FNDA:1,_RNvNtNtCsc0Jhti10I2k_14astraweave_pcg8seed_rng5testss_28test_same_seed_same_sequence
FNDA:1,_RNvNtNtCsc0Jhti10I2k_14astraweave_pcg8seed_rng5testss_38test_different_seed_different_sequence
FNDA:26,_RNvMNtCsc0Jhti10I2k_14astraweave_pcg8seed_rngNtB2_7SeedRng3new
FNDA:4,_RNvMNtCsc0Jhti10I2k_14astraweave_pcg8seed_rngNtB2_7SeedRng4fork
FNDA:2,_RNvMNtCsc0Jhti10I2k_14astraweave_pcg8seed_rngNtB2_7SeedRng5layer
FNDA:0,_RINvMNtCsc0Jhti10I2k_14astraweave_pcg8seed_rngNtB3_7SeedRng10choose_mutpEB5_
FNDA:0,_RNvMNtCsc0Jhti10I2k_14astraweave_pcg8seed_rngNtB2_7SeedRng18gen_bool_with_prob
FNDA:0,_RNvMNtCsc0Jhti10I2k_14astraweave_pcg8seed_rngNtB2_7SeedRng7gen_f32
FNDA:0,_RNvMNtCsc0Jhti10I2k_14astraweave_pcg8seed_rngNtB2_7SeedRng7gen_f64
FNDA:0,_RNvMNtCsc0Jhti10I2k_14astraweave_pcg8seed_rngNtB2_7SeedRng8gen_bool
FNDA:100,_RNCNvNtNtCsc0Jhti10I2k_14astraweave_pcg8seed_rng5testss_21test_fork_independent0B7_
FNDA:100,_RNCNvNtNtCsc0Jhti10I2k_14astraweave_pcg8seed_rng5testss_21test_fork_independents_0B7_
FNDA:100,_RNCNvNtNtCsc0Jhti10I2k_14astraweave_pcg8seed_rng5testss_38test_different_seed_different_sequence0B7_
FNDA:100,_RNCNvNtNtCsc0Jhti10I2k_14astraweave_pcg8seed_rng5testss_38test_different_seed_different_sequences_0B7_
FNDA:50,_RINvMNtCsc0Jhti10I2k_14astraweave_pcg8seed_rngNtB3_7SeedRng6chooseReEB5_
FNDA:2,_RINvMNtCsc0Jhti10I2k_14astraweave_pcg8seed_rngNtB3_7SeedRng6chooselEB5_
FNDA:2,_RINvMNtCsc0Jhti10I2k_14astraweave_pcg8seed_rngNtB3_7SeedRng7shufflelEB5_
FNDA:50,_RINvMNtCsc0Jhti10I2k_14astraweave_pcg8seed_rngNtB3_7SeedRng9gen_rangefINtNtNtCsixiwFwjEgS7_4core3ops5range14RangeInclusivefEEB5_
FNDA:73,_RINvMNtCsc0Jhti10I2k_14astraweave_pcg8seed_rngNtB3_7SeedRng9gen_rangejINtNtNtCsixiwFwjEgS7_4core3ops5range5RangejEEB5_
FNDA:622,_RINvMNtCsc0Jhti10I2k_14astraweave_pcg8seed_rngNtB3_7SeedRng9gen_rangelINtNtNtCsixiwFwjEgS7_4core3ops5range14RangeInclusivelEEB5_
FNDA:850,_RINvMNtCsc0Jhti10I2k_14astraweave_pcg8seed_rngNtB3_7SeedRng9gen_rangelINtNtNtCsixiwFwjEgS7_4core3ops5range5RangelEEB5_
FNDA:13,_RINvMNtCsc0Jhti10I2k_14astraweave_pcg8seed_rngNtB3_7SeedRng9gen_rangemINtNtNtCsixiwFwjEgS7_4core3ops5range14RangeInclusivemEEB5_
FNF:23
FNH:18
DA:15,26
DA:16,26
DA:17,26
DA:18,26
DA:19,26
DA:20,26
DA:24,4
DA:25,4
DA:26,4
DA:27,4
DA:30,2
DA:31,2
DA:32,2
DA:35,1608
DA:36,1608
DA:37,1608
DA:38,1608
DA:40,1608
DA:41,1608
DA:44,0
DA:45,0
DA:46,0
DA:49,0
DA:50,0
DA:51,0
DA:54,52
DA:55,52
DA:56,1
DA:58,51
DA:60,52
DA:63,0
DA:64,0
DA:65,0
DA:67,0
DA:68,0
DA:70,0
DA:73,2
DA:75,2
DA:76,2
DA:79,0
DA:80,0
DA:81,0
DA:84,0
DA:85,0
DA:86,0
DA:94,1
DA:95,1
DA:96,1
DA:98,101
DA:99,100
DA:101,1
DA:104,1
DA:105,1
DA:106,1
DA:108,100
DA:109,100
DA:112,1
DA:113,1
DA:116,1
DA:117,1
DA:118,1
DA:120,1
DA:121,1
DA:123,101
DA:124,100
DA:126,1
DA:129,1
DA:130,1
DA:131,1
DA:134,100
DA:135,100
DA:137,1
DA:138,1
DA:141,1
DA:142,1
DA:143,1
DA:145,1
DA:146,1
DA:147,1
DA:148,1
DA:151,1
DA:152,1
DA:153,1
DA:155,1
DA:156,1
DA:157,1
DA:160,1
DA:161,1
DA:162,1
DA:164,1
DA:165,1
DA:167,1
DA:168,1
DA:170,1
DA:171,1
DA:174,1
DA:175,1
DA:176,1
DA:178,1
DA:179,1
DA:180,1
DA:181,1
BRF:0
BRH:0
LF:106
LH:88
end_of_record