SF:C:\Users\pv2br\source\repos\AstraWeave-AI-Native-Gaming-Engine\astraweave-input\src\bindings.rs
FN:60,_RNvXNtCs5PpXnYHNoqC_16astraweave_input8bindingsNtB2_10BindingSetNtNtCsixiwFwjEgS7_4core7default7Default7default
FNDA:55,_RNvXNtCs5PpXnYHNoqC_16astraweave_input8bindingsNtB2_10BindingSetNtNtCsixiwFwjEgS7_4core7default7Default7default
FNF:1
FNH:1
DA:60,55
DA:62,55
DA:64,55
DA:65,55
DA:66,55
DA:67,55
DA:68,55
DA:69,55
DA:71,55
DA:72,55
DA:73,55
DA:74,55
DA:75,55
DA:76,55
DA:78,55
DA:79,55
DA:80,55
DA:81,55
DA:82,55
DA:83,55
DA:85,55
DA:86,55
DA:87,55
DA:88,55
DA:89,55
DA:90,55
DA:92,55
DA:93,55
DA:94,55
DA:95,55
DA:96,55
DA:97,55
DA:99,55
DA:100,55
DA:101,55
DA:102,55
DA:103,55
DA:104,55
DA:106,55
DA:107,55
DA:108,55
DA:109,55
DA:110,55
DA:111,55
DA:113,55
DA:114,55
DA:115,55
DA:116,55
DA:117,55
DA:118,55
DA:120,55
DA:121,55
DA:122,55
DA:123,55
DA:124,55
DA:125,55
DA:127,55
DA:128,55
DA:129,55
DA:130,55
DA:131,55
DA:132,55
DA:135,55
DA:136,55
DA:137,55
DA:138,55
DA:139,55
DA:140,55
DA:142,55
DA:143,55
DA:144,55
DA:145,55
DA:146,55
DA:147,55
DA:149,55
DA:150,55
DA:151,55
DA:152,55
DA:153,55
DA:154,55
DA:156,55
DA:157,55
DA:158,55
DA:159,55
DA:160,55
DA:161,55
DA:163,55
DA:164,55
DA:165,55
DA:166,55
DA:167,55
DA:168,55
DA:172,55
DA:173,55
DA:174,55
DA:175,55
DA:176,55
DA:177,55
DA:179,55
DA:180,55
DA:181,55
DA:182,55
DA:183,55
DA:184,55
DA:186,55
DA:187,55
DA:188,55
DA:189,55
DA:190,55
DA:191,55
DA:193,55
DA:194,55
DA:195,55
DA:196,55
DA:197,55
DA:198,55
DA:200,55
DA:201,55
DA:202,55
DA:203,55
DA:204,55
DA:205,55
DA:207,55
DA:208,55
DA:209,55
DA:210,55
DA:211,55
DA:212,55
DA:215,55
DA:216,55
DA:217,55
DA:218,55
DA:219,55
DA:220,55
DA:221,55
DA:222,55
DA:223,55
DA:224,55
DA:225,55
DA:226,55
DA:227,55
DA:228,55
DA:229,55
DA:230,55
DA:231,55
DA:232,55
DA:233,55
DA:234,55
DA:235,55
DA:236,55
DA:237,55
DA:238,55
DA:239,55
DA:240,55
DA:241,55
DA:242,55
BRF:0
BRH:0
LF:156
LH:156
end_of_record
SF:C:\Users\pv2br\source\repos\AstraWeave-AI-Native-Gaming-Engine\astraweave-input\src\lib.rs
FN:37,_RNvNtCs5PpXnYHNoqC_16astraweave_input5testss_18test_binding_serde
FN:21,_RNvNtCs5PpXnYHNoqC_16astraweave_input5testss_18test_keycode_serde
FN:53,_RNvNtCs5PpXnYHNoqC_16astraweave_input5testss_22test_binding_set_serde
FN:29,_RNvNtCs5PpXnYHNoqC_16astraweave_input5testss_22test_mousebutton_serde
FNDA:1,_RNvNtCs5PpXnYHNoqC_16astraweave_input5testss_18test_binding_serde
FNDA:1,_RNvNtCs5PpXnYHNoqC_16astraweave_input5testss_18test_keycode_serde
FNDA:1,_RNvNtCs5PpXnYHNoqC_16astraweave_input5testss_22test_binding_set_serde
FNDA:1,_RNvNtCs5PpXnYHNoqC_16astraweave_input5testss_22test_mousebutton_serde
FNF:4
FNH:4
DA:21,1
DA:22,1
DA:23,1
DA:24,1
DA:25,1
DA:26,1
DA:29,1
DA:30,1
DA:31,1
DA:32,1
DA:33,1
DA:34,1
DA:37,1
DA:38,1
DA:39,1
DA:40,1
DA:41,1
DA:42,1
DA:44,1
DA:45,1
DA:47,1
DA:48,1
DA:49,1
DA:50,1
DA:53,1
DA:54,1
DA:55,1
DA:56,1
DA:58,1
BRF:0
BRH:0
LF:29
LH:29
end_of_record
SF:C:\Users\pv2br\source\repos\AstraWeave-AI-Native-Gaming-Engine\astraweave-input\src\manager.rs
FN:68,_RNvMNtCs5PpXnYHNoqC_16astraweave_input7managerNtB2_12InputManager11clear_frame
FN:55,_RNvMNtCs5PpXnYHNoqC_16astraweave_input7managerNtB2_12InputManager11set_context
FN:37,_RNvMNtCs5PpXnYHNoqC_16astraweave_input7managerNtB2_12InputManager3new
FN:222,_RNCNvMNtCs5PpXnYHNoqC_16astraweave_input7managerNtB4_12InputManager11handle_axis0B6_
FN:179,_RNCNvMNtCs5PpXnYHNoqC_16astraweave_input7managerNtB4_12InputManager13handle_button0B6_
FN:205,_RNCNvMNtCs5PpXnYHNoqC_16astraweave_input7managerNtB4_12InputManager13handle_buttons_0B6_
FN:87,_RNCNvMNtCs5PpXnYHNoqC_16astraweave_input7managerNtB4_12InputManager20process_window_event0B6_
FN:105,_RNCNvMNtCs5PpXnYHNoqC_16astraweave_input7managerNtB4_12InputManager20process_window_events_0B6_
FN:245,_RNvMNtCs5PpXnYHNoqC_16astraweave_input7managerNtB2_12InputManager10set_action
FN:220,_RNvMNtCs5PpXnYHNoqC_16astraweave_input7managerNtB2_12InputManager11handle_axis
FN:177,_RNvMNtCs5PpXnYHNoqC_16astraweave_input7managerNtB2_12InputManager13handle_button
FN:149,_RNvMNtCs5PpXnYHNoqC_16astraweave_input7managerNtB2_12InputManager13poll_gamepads
FN:72,_RNvMNtCs5PpXnYHNoqC_16astraweave_input7managerNtB2_12InputManager20process_window_event
FN:64,_RNvMNtCs5PpXnYHNoqC_16astraweave_input7managerNtB2_12InputManager12just_pressed
FN:60,_RNvMNtCs5PpXnYHNoqC_16astraweave_input7managerNtB2_12InputManager7is_down
FNDA:10002,_RNvMNtCs5PpXnYHNoqC_16astraweave_input7managerNtB2_12InputManager11clear_frame
FNDA:1204,_RNvMNtCs5PpXnYHNoqC_16astraweave_input7managerNtB2_12InputManager11set_context
FNDA:138,_RNvMNtCs5PpXnYHNoqC_16astraweave_input7managerNtB2_12InputManager3new
FNDA:0,_RNCNvMNtCs5PpXnYHNoqC_16astraweave_input7managerNtB4_12InputManager11handle_axis0B6_
FNDA:0,_RNCNvMNtCs5PpXnYHNoqC_16astraweave_input7managerNtB4_12InputManager13handle_button0B6_
FNDA:0,_RNCNvMNtCs5PpXnYHNoqC_16astraweave_input7managerNtB4_12InputManager13handle_buttons_0B6_
FNDA:0,_RNCNvMNtCs5PpXnYHNoqC_16astraweave_input7managerNtB4_12InputManager20process_window_event0B6_
FNDA:0,_RNCNvMNtCs5PpXnYHNoqC_16astraweave_input7managerNtB4_12InputManager20process_window_events_0B6_
FNDA:0,_RNvMNtCs5PpXnYHNoqC_16astraweave_input7managerNtB2_12InputManager10set_action
FNDA:0,_RNvMNtCs5PpXnYHNoqC_16astraweave_input7managerNtB2_12InputManager11handle_axis
FNDA:0,_RNvMNtCs5PpXnYHNoqC_16astraweave_input7managerNtB2_12InputManager13handle_button
FNDA:0,_RNvMNtCs5PpXnYHNoqC_16astraweave_input7managerNtB2_12InputManager13poll_gamepads
FNDA:0,_RNvMNtCs5PpXnYHNoqC_16astraweave_input7managerNtB2_12InputManager20process_window_event
FNDA:2109,_RNvMNtCs5PpXnYHNoqC_16astraweave_input7managerNtB2_12InputManager12just_pressed
FNDA:2105,_RNvMNtCs5PpXnYHNoqC_16astraweave_input7managerNtB2_12InputManager7is_down
FNF:15
FNH:5
DA:37,138
DA:38,138
DA:39,138
DA:40,138
DA:41,138
DA:42,138
DA:43,138
DA:44,138
DA:45,138
DA:46,138
DA:47,138
DA:48,138
DA:49,138
DA:50,138
DA:51,138
DA:52,138
DA:53,138
DA:55,1204
DA:56,1204
DA:57,1204
DA:60,2105
DA:61,2105
DA:62,2105
DA:64,2109
DA:65,2109
DA:66,2109
DA:68,10002
DA:69,10002
DA:70,10002
DA:72,0
DA:73,0
DA:77,0
DA:78,0
DA:83,0
DA:84,0
DA:85,0
DA:86,0
DA:87,0
DA:88,0
DA:89,0
DA:91,0
DA:93,0
DA:94,0
DA:96,0
DA:97,0
DA:98,0
DA:100,0
DA:101,0
DA:102,0
DA:103,0
DA:104,0
DA:105,0
DA:106,0
DA:107,0
DA:109,0
DA:111,0
DA:112,0
DA:114,0
DA:115,0
DA:116,0
DA:119,0
DA:120,0
DA:121,0
DA:123,0
DA:124,0
DA:125,0
DA:126,0
DA:127,0
DA:128,0
DA:129,0
DA:131,0
DA:132,0
DA:133,0
DA:136,0
DA:137,0
DA:138,0
DA:139,0
DA:140,0
DA:141,0
DA:142,0
DA:145,0
DA:147,0
DA:149,0
DA:151,0
DA:152,0
DA:153,0
DA:154,0
DA:155,0
DA:156,0
DA:159,0
DA:161,0
DA:162,0
DA:163,0
DA:164,0
DA:165,0
DA:170,0
DA:171,0
DA:172,0
DA:173,0
DA:174,0
DA:175,0
DA:177,0
DA:179,0
DA:180,0
DA:181,0
DA:182,0
DA:183,0
DA:184,0
DA:185,0
DA:186,0
DA:187,0
DA:188,0
DA:189,0
DA:190,0
DA:191,0
DA:192,0
DA:193,0
DA:194,0
DA:195,0
DA:196,0
DA:197,0
DA:199,0
DA:200,0
DA:201,0
DA:202,0
DA:203,0
DA:204,0
DA:205,0
DA:206,0
DA:207,0
DA:209,0
DA:211,0
DA:212,0
DA:214,0
DA:215,0
DA:216,0
DA:217,0
DA:218,0
DA:220,0
DA:222,0
DA:223,0
DA:224,0
DA:225,0
DA:226,0
DA:227,0
DA:228,0
DA:230,0
DA:232,0
DA:233,0
DA:234,0
DA:236,0
DA:237,0
DA:238,0
DA:239,0
DA:240,0
DA:241,0
DA:243,0
DA:245,0
DA:246,0
DA:247,0
DA:248,0
DA:249,0
DA:250,0
DA:251,0
DA:252,0
DA:253,0
DA:254,0
BRF:0
BRH:0
LF:172
LH:29
end_of_record
SF:C:\Users\pv2br\source\repos\AstraWeave-AI-Native-Gaming-Engine\astraweave-input\src\manager_tests.rs
FN:886,_RNvNtNtCs5PpXnYHNoqC_16astraweave_input13manager_tests10save_tests20create_test_bindings
FN:1010,_RNvNtNtCs5PpXnYHNoqC_16astraweave_input13manager_tests10save_testss_19test_save_overwrite
FN:975,_RNvNtNtCs5PpXnYHNoqC_16astraweave_input13manager_tests10save_testss_24test_load_corrupted_json
FN:942,_RNvNtNtCs5PpXnYHNoqC_16astraweave_input13manager_tests10save_testss_24test_save_empty_bindings
FN:897,_RNvNtNtCs5PpXnYHNoqC_16astraweave_input13manager_tests10save_testss_24test_save_load_roundtrip
FN:1033,_RNvNtNtCs5PpXnYHNoqC_16astraweave_input13manager_tests10save_testss_24test_save_pretty_printed
FN:935,_RNvNtNtCs5PpXnYHNoqC_16astraweave_input13manager_tests10save_testss_26test_load_nonexistent_file
FN:990,_RNvNtNtCs5PpXnYHNoqC_16astraweave_input13manager_tests10save_testss_26test_save_all_action_types
FN:959,_RNvNtNtCs5PpXnYHNoqC_16astraweave_input13manager_tests10save_testss_26test_save_default_bindings
FN:918,_RNvNtNtCs5PpXnYHNoqC_16astraweave_input13manager_tests10save_testss_26test_save_nested_directory
FN:1053,_RNvNtNtCs5PpXnYHNoqC_16astraweave_input13manager_tests10save_testss_28test_multiple_saves_same_dir
FN:60,_RNvNtNtCs5PpXnYHNoqC_16astraweave_input13manager_tests19input_manager_tests10bind_mouse
FN:30,_RNvNtNtCs5PpXnYHNoqC_16astraweave_input13manager_tests19input_manager_tests28create_manager_with_bindings
FN:42,_RNvNtNtCs5PpXnYHNoqC_16astraweave_input13manager_tests19input_manager_tests8bind_key
FN:106,_RNvNtNtCs5PpXnYHNoqC_16astraweave_input13manager_tests19input_manager_testss_19test_frame_clearing
FN:145,_RNvNtNtCs5PpXnYHNoqC_16astraweave_input13manager_tests19input_manager_testss_19test_mouse_bindings
FN:212,_RNvNtNtCs5PpXnYHNoqC_16astraweave_input13manager_tests19input_manager_testss_20test_gamepad_support
FN:223,_RNvNtNtCs5PpXnYHNoqC_16astraweave_input13manager_tests19input_manager_testss_22test_binding_set_clone
FN:88,_RNvNtNtCs5PpXnYHNoqC_16astraweave_input13manager_tests19input_manager_testss_22test_context_switching
FN:120,_RNvNtNtCs5PpXnYHNoqC_16astraweave_input13manager_tests19input_manager_testss_22test_multiple_bindings
FN:236,_RNvNtNtCs5PpXnYHNoqC_16astraweave_input13manager_tests19input_manager_testss_22test_multiple_contexts
FN:618,_RNvNtNtCs5PpXnYHNoqC_16astraweave_input13manager_tests19input_manager_testss_23test_edge_empty_binding
FN:714,_RNvNtNtCs5PpXnYHNoqC_16astraweave_input13manager_tests19input_manager_testss_23test_edge_rare_keycodes
FN:282,_RNvNtNtCs5PpXnYHNoqC_16astraweave_input13manager_tests19input_manager_testss_25test_action_enum_coverage
FN:178,_RNvNtNtCs5PpXnYHNoqC_16astraweave_input13manager_tests19input_manager_testss_25test_axes_default_to_zero
FN:787,_RNvNtNtCs5PpXnYHNoqC_16astraweave_input13manager_tests19input_manager_testss_25test_edge_stationary_axes
FN:577,_RNvNtNtCs5PpXnYHNoqC_16astraweave_input13manager_tests19input_manager_testss_25test_stress_axes_defaults
FN:543,_RNvNtNtCs5PpXnYHNoqC_16astraweave_input13manager_tests19input_manager_testss_25test_stress_many_contexts
FN:256,_RNvNtNtCs5PpXnYHNoqC_16astraweave_input13manager_tests19input_manager_testss_26test_empty_action_bindings
FN:373,_RNvNtNtCs5PpXnYHNoqC_16astraweave_input13manager_tests19input_manager_testss_26test_stress_binding_clones
FN:733,_RNvNtNtCs5PpXnYHNoqC_16astraweave_input13manager_tests19input_manager_testss_27test_edge_all_ui_navigation
FN:845,_RNvNtNtCs5PpXnYHNoqC_16astraweave_input13manager_tests19input_manager_testss_27test_edge_context_ping_pong
FN:76,_RNvNtNtCs5PpXnYHNoqC_16astraweave_input13manager_tests19input_manager_testss_27test_input_manager_creation
FN:269,_RNvNtNtCs5PpXnYHNoqC_16astraweave_input13manager_tests19input_manager_testss_27test_manager_initialization
FN:860,_RNvNtNtCs5PpXnYHNoqC_16astraweave_input13manager_tests19input_manager_testss_28test_edge_clone_independence
FN:454,_RNvNtNtCs5PpXnYHNoqC_16astraweave_input13manager_tests19input_manager_testss_28test_stress_empty_and_refill
FN:169,_RNvNtNtCs5PpXnYHNoqC_16astraweave_input13manager_tests19input_manager_testss_29test_default_look_sensitivity
FN:663,_RNvNtNtCs5PpXnYHNoqC_16astraweave_input13manager_tests19input_manager_testss_29test_edge_multi_input_binding
FN:190,_RNvNtNtCs5PpXnYHNoqC_16astraweave_input13manager_tests19input_manager_testss_29test_pressed_set_starts_empty
FN:310,_RNvNtNtCs5PpXnYHNoqC_16astraweave_input13manager_tests19input_manager_testss_29test_stress_all_actions_bound
FN:485,_RNvNtNtCs5PpXnYHNoqC_16astraweave_input13manager_tests19input_manager_testss_29test_stress_all_mouse_buttons
FN:407,_RNvNtNtCs5PpXnYHNoqC_16astraweave_input13manager_tests19input_manager_testss_29test_stress_multiple_managers
FN:637,_RNvNtNtCs5PpXnYHNoqC_16astraweave_input13manager_tests19input_manager_testss_30test_edge_query_unbound_action
FN:434,_RNvNtNtCs5PpXnYHNoqC_16astraweave_input13manager_tests19input_manager_testss_30test_stress_duplicate_bindings
FN:512,_RNvNtNtCs5PpXnYHNoqC_16astraweave_input13manager_tests19input_manager_testss_30test_stress_lookup_performance
FN:565,_RNvNtNtCs5PpXnYHNoqC_16astraweave_input13manager_tests19input_manager_testss_30test_stress_sensitivity_values
FN:834,_RNvNtNtCs5PpXnYHNoqC_16astraweave_input13manager_tests19input_manager_testss_32test_edge_gamepad_bindings_exist
FN:682,_RNvNtNtCs5PpXnYHNoqC_16astraweave_input13manager_tests19input_manager_testss_32test_edge_ui_actions_in_gameplay
FN:390,_RNvNtNtCs5PpXnYHNoqC_16astraweave_input13manager_tests19input_manager_testss_32test_stress_many_unbound_queries
FN:775,_RNvNtNtCs5PpXnYHNoqC_16astraweave_input13manager_tests19input_manager_testss_33test_edge_clear_frame_on_creation
FN:592,_RNvNtNtCs5PpXnYHNoqC_16astraweave_input13manager_tests19input_manager_testss_33test_stress_binding_modifications
FN:800,_RNvNtNtCs5PpXnYHNoqC_16astraweave_input13manager_tests19input_manager_testss_34test_edge_action_enum_completeness
FN:650,_RNvNtNtCs5PpXnYHNoqC_16astraweave_input13manager_tests19input_manager_testss_34test_edge_context_without_bindings
FN:763,_RNvNtNtCs5PpXnYHNoqC_16astraweave_input13manager_tests19input_manager_testss_34test_edge_immediate_context_switch
FN:201,_RNvNtNtCs5PpXnYHNoqC_16astraweave_input13manager_tests19input_manager_testss_34test_just_pressed_set_starts_empty
FN:337,_RNvNtNtCs5PpXnYHNoqC_16astraweave_input13manager_tests19input_manager_testss_35test_stress_rapid_context_switching
FN:358,_RNvNtNtCs5PpXnYHNoqC_16astraweave_input13manager_tests19input_manager_testss_35test_stress_repeated_frame_clearing
FN:704,_RNvNtNtCs5PpXnYHNoqC_16astraweave_input13manager_tests19input_manager_testss_37test_edge_default_sensitivity_nonzero
FN:528,_RNvNtNtCs5PpXnYHNoqC_16astraweave_input13manager_tests19input_manager_testss_41test_stress_context_switch_during_queries
FN:547,_RNCNvNtNtCs5PpXnYHNoqC_16astraweave_input13manager_tests19input_manager_testss_25test_stress_many_contexts0B7_
FN:551,_RNCNvNtNtCs5PpXnYHNoqC_16astraweave_input13manager_tests19input_manager_testss_25test_stress_many_contextss_0B7_
FNDA:5,_RNvNtNtCs5PpXnYHNoqC_16astraweave_input13manager_tests10save_tests20create_test_bindings
FNDA:1,_RNvNtNtCs5PpXnYHNoqC_16astraweave_input13manager_tests10save_testss_19test_save_overwrite
FNDA:1,_RNvNtNtCs5PpXnYHNoqC_16astraweave_input13manager_tests10save_testss_24test_load_corrupted_json
FNDA:1,_RNvNtNtCs5PpXnYHNoqC_16astraweave_input13manager_tests10save_testss_24test_save_empty_bindings
FNDA:1,_RNvNtNtCs5PpXnYHNoqC_16astraweave_input13manager_tests10save_testss_24test_save_load_roundtrip
FNDA:1,_RNvNtNtCs5PpXnYHNoqC_16astraweave_input13manager_tests10save_testss_24test_save_pretty_printed
FNDA:1,_RNvNtNtCs5PpXnYHNoqC_16astraweave_input13manager_tests10save_testss_26test_load_nonexistent_file
FNDA:1,_RNvNtNtCs5PpXnYHNoqC_16astraweave_input13manager_tests10save_testss_26test_save_all_action_types
FNDA:1,_RNvNtNtCs5PpXnYHNoqC_16astraweave_input13manager_tests10save_testss_26test_save_default_bindings
FNDA:1,_RNvNtNtCs5PpXnYHNoqC_16astraweave_input13manager_tests10save_testss_26test_save_nested_directory
FNDA:1,_RNvNtNtCs5PpXnYHNoqC_16astraweave_input13manager_tests10save_testss_28test_multiple_saves_same_dir
FNDA:9,_RNvNtNtCs5PpXnYHNoqC_16astraweave_input13manager_tests19input_manager_tests10bind_mouse
FNDA:138,_RNvNtNtCs5PpXnYHNoqC_16astraweave_input13manager_tests19input_manager_tests28create_manager_with_bindings
FNDA:138,_RNvNtNtCs5PpXnYHNoqC_16astraweave_input13manager_tests19input_manager_tests8bind_key
FNDA:1,_RNvNtNtCs5PpXnYHNoqC_16astraweave_input13manager_tests19input_manager_testss_19test_frame_clearing
FNDA:1,_RNvNtNtCs5PpXnYHNoqC_16astraweave_input13manager_tests19input_manager_testss_19test_mouse_bindings
FNDA:1,_RNvNtNtCs5PpXnYHNoqC_16astraweave_input13manager_tests19input_manager_testss_20test_gamepad_support
FNDA:1,_RNvNtNtCs5PpXnYHNoqC_16astraweave_input13manager_tests19input_manager_testss_22test_binding_set_clone
FNDA:1,_RNvNtNtCs5PpXnYHNoqC_16astraweave_input13manager_tests19input_manager_testss_22test_context_switching
FNDA:1,_RNvNtNtCs5PpXnYHNoqC_16astraweave_input13manager_tests19input_manager_testss_22test_multiple_bindings
FNDA:1,_RNvNtNtCs5PpXnYHNoqC_16astraweave_input13manager_tests19input_manager_testss_22test_multiple_contexts
FNDA:1,_RNvNtNtCs5PpXnYHNoqC_16astraweave_input13manager_tests19input_manager_testss_23test_edge_empty_binding
FNDA:1,_RNvNtNtCs5PpXnYHNoqC_16astraweave_input13manager_tests19input_manager_testss_23test_edge_rare_keycodes
FNDA:1,_RNvNtNtCs5PpXnYHNoqC_16astraweave_input13manager_tests19input_manager_testss_25test_action_enum_coverage
FNDA:1,_RNvNtNtCs5PpXnYHNoqC_16astraweave_input13manager_tests19input_manager_testss_25test_axes_default_to_zero
FNDA:1,_RNvNtNtCs5PpXnYHNoqC_16astraweave_input13manager_tests19input_manager_testss_25test_edge_stationary_axes
FNDA:1,_RNvNtNtCs5PpXnYHNoqC_16astraweave_input13manager_tests19input_manager_testss_25test_stress_axes_defaults
FNDA:1,_RNvNtNtCs5PpXnYHNoqC_16astraweave_input13manager_tests19input_manager_testss_25test_stress_many_contexts
FNDA:1,_RNvNtNtCs5PpXnYHNoqC_16astraweave_input13manager_tests19input_manager_testss_26test_empty_action_bindings
FNDA:1,_RNvNtNtCs5PpXnYHNoqC_16astraweave_input13manager_tests19input_manager_testss_26test_stress_binding_clones
FNDA:1,_RNvNtNtCs5PpXnYHNoqC_16astraweave_input13manager_tests19input_manager_testss_27test_edge_all_ui_navigation
FNDA:1,_RNvNtNtCs5PpXnYHNoqC_16astraweave_input13manager_tests19input_manager_testss_27test_edge_context_ping_pong
FNDA:1,_RNvNtNtCs5PpXnYHNoqC_16astraweave_input13manager_tests19input_manager_testss_27test_input_manager_creation
FNDA:1,_RNvNtNtCs5PpXnYHNoqC_16astraweave_input13manager_tests19input_manager_testss_27test_manager_initialization
FNDA:1,_RNvNtNtCs5PpXnYHNoqC_16astraweave_input13manager_tests19input_manager_testss_28test_edge_clone_independence
FNDA:1,_RNvNtNtCs5PpXnYHNoqC_16astraweave_input13manager_tests19input_manager_testss_28test_stress_empty_and_refill
FNDA:1,_RNvNtNtCs5PpXnYHNoqC_16astraweave_input13manager_tests19input_manager_testss_29test_default_look_sensitivity
FNDA:1,_RNvNtNtCs5PpXnYHNoqC_16astraweave_input13manager_tests19input_manager_testss_29test_edge_multi_input_binding
FNDA:1,_RNvNtNtCs5PpXnYHNoqC_16astraweave_input13manager_tests19input_manager_testss_29test_pressed_set_starts_empty
FNDA:1,_RNvNtNtCs5PpXnYHNoqC_16astraweave_input13manager_tests19input_manager_testss_29test_stress_all_actions_bound
FNDA:1,_RNvNtNtCs5PpXnYHNoqC_16astraweave_input13manager_tests19input_manager_testss_29test_stress_all_mouse_buttons
FNDA:1,_RNvNtNtCs5PpXnYHNoqC_16astraweave_input13manager_tests19input_manager_testss_29test_stress_multiple_managers
FNDA:1,_RNvNtNtCs5PpXnYHNoqC_16astraweave_input13manager_tests19input_manager_testss_30test_edge_query_unbound_action
FNDA:1,_RNvNtNtCs5PpXnYHNoqC_16astraweave_input13manager_tests19input_manager_testss_30test_stress_duplicate_bindings
FNDA:1,_RNvNtNtCs5PpXnYHNoqC_16astraweave_input13manager_tests19input_manager_testss_30test_stress_lookup_performance
FNDA:1,_RNvNtNtCs5PpXnYHNoqC_16astraweave_input13manager_tests19input_manager_testss_30test_stress_sensitivity_values
FNDA:1,_RNvNtNtCs5PpXnYHNoqC_16astraweave_input13manager_tests19input_manager_testss_32test_edge_gamepad_bindings_exist
FNDA:1,_RNvNtNtCs5PpXnYHNoqC_16astraweave_input13manager_tests19input_manager_testss_32test_edge_ui_actions_in_gameplay
FNDA:1,_RNvNtNtCs5PpXnYHNoqC_16astraweave_input13manager_tests19input_manager_testss_32test_stress_many_unbound_queries
FNDA:1,_RNvNtNtCs5PpXnYHNoqC_16astraweave_input13manager_tests19input_manager_testss_33test_edge_clear_frame_on_creation
FNDA:1,_RNvNtNtCs5PpXnYHNoqC_16astraweave_input13manager_tests19input_manager_testss_33test_stress_binding_modifications
FNDA:1,_RNvNtNtCs5PpXnYHNoqC_16astraweave_input13manager_tests19input_manager_testss_34test_edge_action_enum_completeness
FNDA:1,_RNvNtNtCs5PpXnYHNoqC_16astraweave_input13manager_tests19input_manager_testss_34test_edge_context_without_bindings
FNDA:1,_RNvNtNtCs5PpXnYHNoqC_16astraweave_input13manager_tests19input_manager_testss_34test_edge_immediate_context_switch
FNDA:1,_RNvNtNtCs5PpXnYHNoqC_16astraweave_input13manager_tests19input_manager_testss_34test_just_pressed_set_starts_empty
FNDA:1,_RNvNtNtCs5PpXnYHNoqC_16astraweave_input13manager_tests19input_manager_testss_35test_stress_rapid_context_switching
FNDA:1,_RNvNtNtCs5PpXnYHNoqC_16astraweave_input13manager_tests19input_manager_testss_35test_stress_repeated_frame_clearing
FNDA:1,_RNvNtNtCs5PpXnYHNoqC_16astraweave_input13manager_tests19input_manager_testss_37test_edge_default_sensitivity_nonzero
FNDA:1,_RNvNtNtCs5PpXnYHNoqC_16astraweave_input13manager_tests19input_manager_testss_41test_stress_context_switch_during_queries
FNDA:25,_RNCNvNtNtCs5PpXnYHNoqC_16astraweave_input13manager_tests19input_manager_testss_25test_stress_many_contexts0B7_
FNDA:25,_RNCNvNtNtCs5PpXnYHNoqC_16astraweave_input13manager_tests19input_manager_testss_25test_stress_many_contextss_0B7_
FNF:61
FNH:61
DA:30,138
DA:31,138
DA:32,138
DA:42,138
DA:43,138
DA:44,138
DA:45,138
DA:46,138
DA:47,138
DA:48,138
DA:49,138
DA:50,138
DA:60,9
DA:61,9
DA:62,9
DA:63,9
DA:64,9
DA:65,9
DA:66,9
DA:67,9
DA:68,9
DA:76,1
DA:77,1
DA:78,1
DA:81,1
DA:82,1
DA:83,1
DA:84,1
DA:88,1
DA:89,1
DA:90,1
DA:93,1
DA:96,1
DA:97,1
DA:100,1
DA:101,1
DA:102,1
DA:106,1
DA:107,1
DA:108,1
DA:111,1
DA:114,1
DA:115,1
DA:116,1
DA:120,1
DA:121,1
DA:124,1
DA:125,1
DA:126,1
DA:127,1
DA:129,1
DA:130,1
DA:131,1
DA:132,1
DA:134,1
DA:137,1
DA:138,1
DA:139,1
DA:140,1
DA:141,1
DA:145,1
DA:146,1
DA:148,1
DA:149,1
DA:151,1
DA:152,1
DA:154,1
DA:157,1
DA:158,1
DA:161,1
DA:162,1
DA:165,1
DA:169,1
DA:170,1
DA:171,1
DA:173,1
DA:174,1
DA:178,1
DA:179,1
DA:180,1
DA:182,1
DA:183,1
DA:184,1
DA:185,1
DA:186,1
DA:190,1
DA:191,1
DA:192,1
DA:194,1
DA:195,1
DA:196,1
DA:197,1
DA:201,1
DA:202,1
DA:203,1
DA:205,1
DA:206,1
DA:207,1
DA:208,1
DA:212,1
DA:213,1
DA:214,1
DA:218,1
DA:219,1
DA:223,1
DA:224,1
DA:225,1
DA:226,1
DA:228,1
DA:230,1
DA:231,1
DA:232,1
DA:236,1
DA:238,1
DA:239,1
DA:240,1
DA:243,1
DA:244,1
DA:245,1
DA:247,1
DA:248,1
DA:250,1
DA:251,1
DA:252,1
DA:256,1
DA:258,1
DA:259,1
DA:261,1
DA:264,1
DA:265,1
DA:269,1
DA:270,1
DA:271,1
DA:274,1
DA:275,1
DA:278,1
DA:282,1
DA:283,1
DA:287,1
DA:288,1
DA:289,1
DA:291,1
DA:292,1
DA:293,1
DA:295,1
DA:298,1
DA:299,1
DA:300,1
DA:301,1
DA:302,1
DA:310,1
DA:311,1
DA:314,1
DA:315,1
DA:316,1
DA:317,1
DA:318,1
DA:320,1
DA:321,1
DA:322,1
DA:323,1
DA:324,1
DA:326,1
DA:330,1
DA:331,1
DA:332,1
DA:333,1
DA:337,1
DA:338,1
DA:339,1
DA:342,1001
DA:343,1000
DA:344,500
DA:345,500
DA:347,500
DA:348,500
DA:353,1
DA:354,1
DA:358,1
DA:359,1
DA:360,1
DA:363,10001
DA:364,10000
DA:365,10000
DA:368,1
DA:369,1
DA:373,1
DA:374,1
DA:377,1
DA:378,101
DA:379,100
DA:380,100
DA:383,101
DA:384,100
DA:386,1
DA:390,1
DA:391,1
DA:392,1
DA:395,1001
DA:396,1000
DA:397,1000
DA:398,1000
DA:399,1000
DA:400,1000
DA:403,1
DA:407,1
DA:408,1
DA:411,1
DA:412,51
DA:413,50
DA:414,25
DA:416,25
DA:418,50
DA:422,1
DA:423,50
DA:424,50
DA:425,25
DA:427,25
DA:430,1
DA:434,1
DA:435,1
DA:438,1
DA:439,1
DA:440,1
DA:442,1
DA:443,1
DA:444,1
DA:446,1
DA:449,1
DA:450,1
DA:454,1
DA:455,1
DA:456,1
DA:459,1
DA:460,1
DA:463,11
DA:464,10
DA:465,1
DA:466,1
DA:467,1
DA:468,1
DA:469,1
DA:470,1
DA:471,1
DA:472,1
DA:473,1
DA:474,1
DA:476,10
DA:477,10
DA:480,1
DA:481,1
DA:485,1
DA:486,1
DA:488,1
DA:489,1
DA:490,1
DA:491,1
DA:492,1
DA:494,1
DA:495,1
DA:496,1
DA:497,1
DA:498,1
DA:500,1
DA:503,1
DA:504,1
DA:505,1
DA:506,1
DA:507,1
DA:508,1
DA:512,1
DA:513,1
DA:514,1
DA:517,10001
DA:518,10000
DA:519,10000
DA:520,10000
DA:521,10000
DA:524,1
DA:528,1
DA:529,1
DA:530,1
DA:532,101
DA:533,100
DA:534,100
DA:535,100
DA:539,1
DA:543,1
DA:544,1
DA:546,1
DA:547,25
DA:548,1
DA:550,1
DA:551,25
DA:552,1
DA:555,26
DA:556,25
DA:558,26
DA:559,25
DA:561,1
DA:565,1
DA:566,1
DA:567,1
DA:570,1
DA:571,1
DA:572,1
DA:573,1
DA:577,1
DA:578,1
DA:579,1
DA:582,1001
DA:583,1000
DA:584,1000
DA:585,1000
DA:586,1000
DA:588,1
DA:592,1
DA:593,1
DA:596,101
DA:597,100
DA:598,20
DA:599,20
DA:600,20
DA:601,20
DA:602,20
DA:604,100
DA:605,100
DA:609,1
DA:610,1
DA:618,1
DA:619,1
DA:622,1
DA:623,1
DA:624,1
DA:625,1
DA:626,1
DA:628,1
DA:631,1
DA:632,1
DA:633,1
DA:637,1
DA:638,1
DA:639,1
DA:641,1
DA:644,1
DA:645,1
DA:646,1
DA:650,1
DA:651,1
DA:652,1
DA:655,1
DA:658,1
DA:659,1
DA:663,1
DA:664,1
DA:667,1
DA:668,1
DA:669,1
DA:670,1
DA:671,1
DA:673,1
DA:675,1
DA:676,1
DA:677,1
DA:678,1
DA:682,1
DA:683,1
DA:684,1
DA:687,1
DA:688,1
DA:689,1
DA:691,1
DA:692,1
DA:693,1
DA:695,1
DA:698,1
DA:699,1
DA:700,1
DA:704,1
DA:705,1
DA:706,1
DA:709,1
DA:710,1
DA:714,1
DA:715,1
DA:717,1
DA:718,1
DA:719,1
DA:721,1
DA:722,1
DA:723,1
DA:725,1
DA:728,1
DA:729,1
DA:733,1
DA:734,1
DA:736,1
DA:737,1
DA:738,1
DA:739,1
DA:740,1
DA:741,1
DA:743,1
DA:744,1
DA:745,1
DA:746,1
DA:747,1
DA:748,1
DA:750,1
DA:753,1
DA:754,1
DA:755,1
DA:756,1
DA:757,1
DA:758,1
DA:759,1
DA:763,1
DA:764,1
DA:765,1
DA:768,1
DA:770,1
DA:771,1
DA:775,1
DA:776,1
DA:777,1
DA:780,1
DA:782,1
DA:783,1
DA:787,1
DA:788,1
DA:789,1
DA:792,1
DA:793,1
DA:794,1
DA:795,1
DA:796,1
DA:800,1
DA:802,1
DA:803,1
DA:804,1
DA:805,1
DA:806,1
DA:807,1
DA:808,1
DA:809,1
DA:810,1
DA:811,1
DA:812,1
DA:813,1
DA:814,1
DA:815,1
DA:816,1
DA:817,1
DA:818,1
DA:819,1
DA:820,1
DA:821,1
DA:822,1
DA:823,1
DA:824,1
DA:825,1
DA:829,1
DA:830,1
DA:834,1
DA:835,1
DA:836,1
DA:840,1
DA:841,1
DA:845,1
DA:846,1
DA:847,1
DA:850,51
DA:851,50
DA:852,50
DA:853,50
DA:854,50
DA:856,1
DA:860,1
DA:861,1
DA:862,1
DA:865,1
DA:868,1
DA:869,1
DA:870,1
DA:886,5
DA:887,5
DA:888,5
DA:889,5
DA:890,5
DA:891,5
DA:892,5
DA:893,5
DA:897,1
DA:898,1
DA:899,1
DA:902,1
DA:905,1
DA:908,1
DA:909,1
DA:912,1
DA:913,1
DA:914,1
DA:918,1
DA:919,1
DA:920,1
DA:923,1
DA:926,1
DA:929,1
DA:930,1
DA:931,1
DA:935,1
DA:936,1
DA:937,1
DA:938,1
DA:942,1
DA:943,1
DA:944,1
DA:946,1
DA:947,1
DA:949,1
DA:950,1
DA:953,1
DA:954,1
DA:955,1
DA:959,1
DA:960,1
DA:961,1
DA:963,1
DA:965,1
DA:966,1
DA:969,1
DA:970,1
DA:971,1
DA:975,1
DA:976,1
DA:977,1
DA:978,1
DA:980,1
DA:981,1
DA:984,1
DA:985,1
DA:986,1
DA:990,1
DA:991,1
DA:992,1
DA:994,1
DA:995,1
DA:998,1
DA:999,1
DA:1000,1
DA:1001,1
DA:1004,1
DA:1005,1
DA:1006,1
DA:1010,1
DA:1011,1
DA:1014,1
DA:1015,1
DA:1018,1
DA:1019,1
DA:1020,1
DA:1023,1
DA:1024,1
DA:1027,1
DA:1028,1
DA:1029,1
DA:1033,1
DA:1034,1
DA:1035,1
DA:1037,1
DA:1040,1
DA:1043,1
DA:1044,1
DA:1047,1
DA:1048,1
DA:1049,1
DA:1053,1
DA:1054,1
DA:1056,1
DA:1057,1
DA:1058,1
DA:1061,1
DA:1062,1
DA:1063,1
DA:1066,1
DA:1067,1
BRF:0
BRH:0
LF:588
LH:588
end_of_record
SF:C:\Users\pv2br\source\repos\AstraWeave-AI-Native-Gaming-Engine\astraweave-input\src\save.rs
FN:16,_RNvNtCs5PpXnYHNoqC_16astraweave_input4save13load_bindings
FN:5,_RNvNtCs5PpXnYHNoqC_16astraweave_input4save13save_bindings
FNDA:7,_RNvNtCs5PpXnYHNoqC_16astraweave_input4save13load_bindings
FNDA:11,_RNvNtCs5PpXnYHNoqC_16astraweave_input4save13save_bindings
FNF:2
FNH:2
DA:5,11
DA:6,11
DA:7,11
DA:8,11
DA:9,11
DA:10,11
DA:11,0
DA:12,11
DA:13,11
DA:14,11
DA:16,7
DA:17,7
DA:18,6
DA:19,7
BRF:0
BRH:0
LF:14
LH:13
end_of_record