SF:C:\Users\pv2br\source\repos\AstraWeave-AI-Native-Gaming-Engine\astraweave-weaving\src\adjudicator.rs
FN:104,_RNCNvMs0_NtCsjr3IRHpxmFH_18astraweave_weaving11adjudicatorNtB7_16WeaveAdjudicator10adjudicate0B9_
FN:111,_RNCNCNvMs0_NtCsjr3IRHpxmFH_18astraweave_weaving11adjudicatorNtB9_16WeaveAdjudicator10adjudicates_00Bb_
FN:112,_RNCNCNvMs0_NtCsjr3IRHpxmFH_18astraweave_weaving11adjudicatorNtB9_16WeaveAdjudicator10adjudicates_0s_0Bb_
FN:107,_RNCNvMs0_NtCsjr3IRHpxmFH_18astraweave_weaving11adjudicatorNtB7_16WeaveAdjudicator10adjudicates_0B9_
FN:171,_RNvNtNtCsjr3IRHpxmFH_18astraweave_weaving11adjudicator5tests11make_intent
FN:283,_RNvNtNtCsjr3IRHpxmFH_18astraweave_weaving11adjudicator5testss_16test_config_toml
FN:247,_RNvNtNtCsjr3IRHpxmFH_18astraweave_weaving11adjudicator5testss_21test_priority_sorting
FN:179,_RNvNtNtCsjr3IRHpxmFH_18astraweave_weaving11adjudicator5testss_23test_budget_enforcement
FN:216,_RNvNtNtCsjr3IRHpxmFH_18astraweave_weaving11adjudicator5testss_24test_cooldown_expiration
FN:266,_RNvNtNtCsjr3IRHpxmFH_18astraweave_weaving11adjudicator5testss_24test_min_priority_filter
FN:198,_RNvNtNtCsjr3IRHpxmFH_18astraweave_weaving11adjudicator5testss_25test_cooldown_enforcement
FN:294,_RNvNtNtCsjr3IRHpxmFH_18astraweave_weaving11adjudicator5testss_26test_budget_reset_per_tick
FN:309,_RNvNtNtCsjr3IRHpxmFH_18astraweave_weaving11adjudicator5testss_31test_deterministic_tie_breaking
FN:102,_RNvMs0_NtCsjr3IRHpxmFH_18astraweave_weaving11adjudicatorNtB5_16WeaveAdjudicator10adjudicate
FN:74,_RNvMs0_NtCsjr3IRHpxmFH_18astraweave_weaving11adjudicatorNtB5_16WeaveAdjudicator10begin_tick
FN:97,_RNvMs0_NtCsjr3IRHpxmFH_18astraweave_weaving11adjudicatorNtB5_16WeaveAdjudicator10has_budget
FN:65,_RNvMs0_NtCsjr3IRHpxmFH_18astraweave_weaving11adjudicatorNtB5_16WeaveAdjudicator11with_config
FN:155,_RNvMs0_NtCsjr3IRHpxmFH_18astraweave_weaving11adjudicatorNtB5_16WeaveAdjudicator12budget_spent
FN:87,_RNvMs0_NtCsjr3IRHpxmFH_18astraweave_weaving11adjudicatorNtB5_16WeaveAdjudicator14is_on_cooldown
FN:160,_RNvMs0_NtCsjr3IRHpxmFH_18astraweave_weaving11adjudicatorNtB5_16WeaveAdjudicator16budget_remaining
FN:92,_RNvMs0_NtCsjr3IRHpxmFH_18astraweave_weaving11adjudicatorNtB5_16WeaveAdjudicator18cooldown_remaining
FN:60,_RNvMs0_NtCsjr3IRHpxmFH_18astraweave_weaving11adjudicatorNtB5_16WeaveAdjudicator3new
FN:43,_RNvMs_NtCsjr3IRHpxmFH_18astraweave_weaving11adjudicatorNtB4_11WeaveConfig7to_toml
FN:38,_RNvMs_NtCsjr3IRHpxmFH_18astraweave_weaving11adjudicatorNtB4_11WeaveConfig9from_toml
FN:20,_RNvXNtCsjr3IRHpxmFH_18astraweave_weaving11adjudicatorNtB2_11WeaveConfigNtNtCsixiwFwjEgS7_4core7default7Default7default
FN:150,_RNvMs0_NtCsjr3IRHpxmFH_18astraweave_weaving11adjudicatorNtB5_16WeaveAdjudicator6config
FN:83,_RNCNvMs0_NtCsjr3IRHpxmFH_18astraweave_weaving11adjudicatorNtB7_16WeaveAdjudicator10begin_tick0B9_
FNDA:15,_RNCNvMs0_NtCsjr3IRHpxmFH_18astraweave_weaving11adjudicatorNtB7_16WeaveAdjudicator10adjudicate0B9_
FNDA:3,_RNCNCNvMs0_NtCsjr3IRHpxmFH_18astraweave_weaving11adjudicatorNtB9_16WeaveAdjudicator10adjudicates_00Bb_
FNDA:1,_RNCNCNvMs0_NtCsjr3IRHpxmFH_18astraweave_weaving11adjudicatorNtB9_16WeaveAdjudicator10adjudicates_0s_0Bb_
FNDA:7,_RNCNvMs0_NtCsjr3IRHpxmFH_18astraweave_weaving11adjudicatorNtB7_16WeaveAdjudicator10adjudicates_0B9_
FNDA:13,_RNvNtNtCsjr3IRHpxmFH_18astraweave_weaving11adjudicator5tests11make_intent
FNDA:1,_RNvNtNtCsjr3IRHpxmFH_18astraweave_weaving11adjudicator5testss_16test_config_toml
FNDA:1,_RNvNtNtCsjr3IRHpxmFH_18astraweave_weaving11adjudicator5testss_21test_priority_sorting
FNDA:1,_RNvNtNtCsjr3IRHpxmFH_18astraweave_weaving11adjudicator5testss_23test_budget_enforcement
FNDA:1,_RNvNtNtCsjr3IRHpxmFH_18astraweave_weaving11adjudicator5testss_24test_cooldown_expiration
FNDA:1,_RNvNtNtCsjr3IRHpxmFH_18astraweave_weaving11adjudicator5testss_24test_min_priority_filter
FNDA:1,_RNvNtNtCsjr3IRHpxmFH_18astraweave_weaving11adjudicator5testss_25test_cooldown_enforcement
FNDA:1,_RNvNtNtCsjr3IRHpxmFH_18astraweave_weaving11adjudicator5testss_26test_budget_reset_per_tick
FNDA:1,_RNvNtNtCsjr3IRHpxmFH_18astraweave_weaving11adjudicator5testss_31test_deterministic_tie_breaking
FNDA:9,_RNvMs0_NtCsjr3IRHpxmFH_18astraweave_weaving11adjudicatorNtB5_16WeaveAdjudicator10adjudicate
FNDA:12,_RNvMs0_NtCsjr3IRHpxmFH_18astraweave_weaving11adjudicatorNtB5_16WeaveAdjudicator10begin_tick
FNDA:13,_RNvMs0_NtCsjr3IRHpxmFH_18astraweave_weaving11adjudicatorNtB5_16WeaveAdjudicator10has_budget
FNDA:7,_RNvMs0_NtCsjr3IRHpxmFH_18astraweave_weaving11adjudicatorNtB5_16WeaveAdjudicator11with_config
FNDA:1,_RNvMs0_NtCsjr3IRHpxmFH_18astraweave_weaving11adjudicatorNtB5_16WeaveAdjudicator12budget_spent
FNDA:6,_RNvMs0_NtCsjr3IRHpxmFH_18astraweave_weaving11adjudicatorNtB5_16WeaveAdjudicator14is_on_cooldown
FNDA:2,_RNvMs0_NtCsjr3IRHpxmFH_18astraweave_weaving11adjudicatorNtB5_16WeaveAdjudicator16budget_remaining
FNDA:3,_RNvMs0_NtCsjr3IRHpxmFH_18astraweave_weaving11adjudicatorNtB5_16WeaveAdjudicator18cooldown_remaining
FNDA:6,_RNvMs0_NtCsjr3IRHpxmFH_18astraweave_weaving11adjudicatorNtB5_16WeaveAdjudicator3new
FNDA:1,_RNvMs_NtCsjr3IRHpxmFH_18astraweave_weaving11adjudicatorNtB4_11WeaveConfig7to_toml
FNDA:1,_RNvMs_NtCsjr3IRHpxmFH_18astraweave_weaving11adjudicatorNtB4_11WeaveConfig9from_toml
FNDA:8,_RNvXNtCsjr3IRHpxmFH_18astraweave_weaving11adjudicatorNtB2_11WeaveConfigNtNtCsixiwFwjEgS7_4core7default7Default7default
FNDA:0,_RNvMs0_NtCsjr3IRHpxmFH_18astraweave_weaving11adjudicatorNtB5_16WeaveAdjudicator6config
FNDA:4,_RNCNvMs0_NtCsjr3IRHpxmFH_18astraweave_weaving11adjudicatorNtB7_16WeaveAdjudicator10begin_tick0B9_
FNF:27
FNH:26
DA:20,8
DA:21,8
DA:22,8
DA:23,8
DA:24,8
DA:25,8
DA:26,8
DA:28,8
DA:29,8
DA:30,8
DA:31,8
DA:32,8
DA:33,8
DA:38,1
DA:39,1
DA:40,1
DA:43,1
DA:44,1
DA:45,1
DA:60,6
DA:61,6
DA:62,6
DA:65,7
DA:66,7
DA:67,7
DA:68,7
DA:69,7
DA:70,7
DA:71,7
DA:74,12
DA:75,12
DA:78,12
DA:79,4
DA:80,4
DA:83,12
DA:84,12
DA:87,6
DA:88,6
DA:89,6
DA:92,3
DA:93,3
DA:94,3
DA:97,13
DA:98,13
DA:99,13
DA:102,9
DA:104,15
DA:107,9
DA:108,7
DA:109,7
DA:110,7
DA:111,7
DA:112,7
DA:113,7
DA:115,9
DA:117,23
DA:119,14
DA:120,1
DA:121,13
DA:124,13
DA:125,1
DA:126,12
DA:129,12
DA:132,12
DA:133,3
DA:134,3
DA:135,3
DA:136,3
DA:137,3
DA:138,3
DA:139,3
DA:140,3
DA:141,9
DA:143,12
DA:146,9
DA:147,9
DA:150,0
DA:151,0
DA:152,0
DA:155,1
DA:156,1
DA:157,1
DA:160,2
DA:161,2
DA:162,2
DA:163,2
DA:164,2
DA:171,13
DA:172,13
DA:173,13
DA:174,13
DA:175,13
DA:176,13
DA:179,1
DA:180,1
DA:181,1
DA:183,1
DA:184,1
DA:185,1
DA:188,1
DA:192,1
DA:193,1
DA:194,1
DA:195,1
DA:198,1
DA:199,1
DA:200,1
DA:202,1
DA:205,1
DA:206,1
DA:207,1
DA:210,1
DA:211,1
DA:212,1
DA:213,1
DA:216,1
DA:217,1
DA:218,1
DA:220,1
DA:221,1
DA:223,1
DA:226,1
DA:227,1
DA:230,1
DA:231,1
DA:234,1
DA:235,1
DA:238,1
DA:239,1
DA:242,1
DA:243,1
DA:244,1
DA:247,1
DA:248,1
DA:249,1
DA:251,1
DA:252,1
DA:253,1
DA:254,1
DA:257,1
DA:260,1
DA:261,1
DA:262,1
DA:263,1
DA:266,1
DA:267,1
DA:268,1
DA:270,1
DA:271,1
DA:272,1
DA:275,1
DA:278,1
DA:279,1
DA:280,1
DA:283,1
DA:284,1
DA:285,1
DA:286,1
DA:288,1
DA:289,1
DA:290,1
DA:291,1
DA:294,1
DA:295,1
DA:298,1
DA:299,1
DA:300,1
DA:301,1
DA:304,1
DA:305,1
DA:306,1
DA:309,1
DA:310,1
DA:311,1
DA:314,1
DA:315,1
DA:316,1
DA:317,1
DA:320,1
DA:323,1
DA:324,1
DA:325,1
BRF:0
BRH:0
LF:187
LH:184
end_of_record
SF:C:\Users\pv2br\source\repos\AstraWeave-AI-Native-Gaming-Engine\astraweave-weaving\src\intents.rs
FN:31,_RNvMNtCsjr3IRHpxmFH_18astraweave_weaving7intentsNtB2_11WeaveIntent13with_priority
FN:36,_RNvMNtCsjr3IRHpxmFH_18astraweave_weaving7intentsNtB2_11WeaveIntent9with_cost
FN:111,_RNvXs0_NtCsjr3IRHpxmFH_18astraweave_weaving7intentsNtB5_18SupplyDropProposerNtB5_14IntentProposer4name
FN:91,_RNvXs0_NtCsjr3IRHpxmFH_18astraweave_weaving7intentsNtB5_18SupplyDropProposerNtB5_14IntentProposer7propose
FN:122,_RNvXs1_NtCsjr3IRHpxmFH_18astraweave_weaving7intentsNtB5_16MediatorProposerNtB5_14IntentProposer7propose
FN:153,_RNvXs2_NtCsjr3IRHpxmFH_18astraweave_weaving7intentsNtB5_23ScavengerPatrolProposerNtB5_14IntentProposer7propose
FN:80,_RNvXs_NtCsjr3IRHpxmFH_18astraweave_weaving7intentsNtB4_16AidEventProposerNtB4_14IntentProposer4name
FN:67,_RNvXs_NtCsjr3IRHpxmFH_18astraweave_weaving7intentsNtB4_16AidEventProposerNtB4_14IntentProposer7propose
FN:46,_RINvMNtCsjr3IRHpxmFH_18astraweave_weaving7intentsNtB3_11WeaveIntent12with_payloadReB1h_EB5_
FN:41,_RINvMNtCsjr3IRHpxmFH_18astraweave_weaving7intentsNtB3_11WeaveIntent13with_cooldownNtNtCs6L9tbza1LrC_5alloc6string6StringEB5_
FN:41,_RINvMNtCsjr3IRHpxmFH_18astraweave_weaving7intentsNtB3_11WeaveIntent13with_cooldownReEB5_
FN:21,_RINvMNtCsjr3IRHpxmFH_18astraweave_weaving7intentsNtB3_11WeaveIntent3newReEB5_
FN:229,_RNvNtNtCsjr3IRHpxmFH_18astraweave_weaving7intents5testss_22test_mediator_proposal
FN:183,_RNvNtNtCsjr3IRHpxmFH_18astraweave_weaving7intents5testss_23test_aid_event_proposal
FN:266,_RNvNtNtCsjr3IRHpxmFH_18astraweave_weaving7intents5testss_23test_multiple_proposers
FN:213,_RNvNtNtCsjr3IRHpxmFH_18astraweave_weaving7intents5testss_25test_supply_drop_proposal
FN:200,_RNvNtNtCsjr3IRHpxmFH_18astraweave_weaving7intents5testss_30test_aid_event_below_threshold
FN:244,_RNvNtNtCsjr3IRHpxmFH_18astraweave_weaving7intents5testss_35test_scavenger_patrol_deterministic
FN:142,_RNvXs1_NtCsjr3IRHpxmFH_18astraweave_weaving7intentsNtB5_16MediatorProposerNtB5_14IntentProposer4name
FN:173,_RNvXs2_NtCsjr3IRHpxmFH_18astraweave_weaving7intentsNtB5_23ScavengerPatrolProposerNtB5_14IntentProposer4name
FNDA:21,_RNvMNtCsjr3IRHpxmFH_18astraweave_weaving7intentsNtB2_11WeaveIntent13with_priority
FNDA:21,_RNvMNtCsjr3IRHpxmFH_18astraweave_weaving7intentsNtB2_11WeaveIntent9with_cost
FNDA:0,_RNvXs0_NtCsjr3IRHpxmFH_18astraweave_weaving7intentsNtB5_18SupplyDropProposerNtB5_14IntentProposer4name
FNDA:2,_RNvXs0_NtCsjr3IRHpxmFH_18astraweave_weaving7intentsNtB5_18SupplyDropProposerNtB5_14IntentProposer7propose
FNDA:1,_RNvXs1_NtCsjr3IRHpxmFH_18astraweave_weaving7intentsNtB5_16MediatorProposerNtB5_14IntentProposer7propose
FNDA:3,_RNvXs2_NtCsjr3IRHpxmFH_18astraweave_weaving7intentsNtB5_23ScavengerPatrolProposerNtB5_14IntentProposer7propose
FNDA:0,_RNvXs_NtCsjr3IRHpxmFH_18astraweave_weaving7intentsNtB4_16AidEventProposerNtB4_14IntentProposer4name
FNDA:3,_RNvXs_NtCsjr3IRHpxmFH_18astraweave_weaving7intentsNtB4_16AidEventProposerNtB4_14IntentProposer7propose
FNDA:8,_RINvMNtCsjr3IRHpxmFH_18astraweave_weaving7intentsNtB3_11WeaveIntent12with_payloadReB1h_EB5_
FNDA:3,_RINvMNtCsjr3IRHpxmFH_18astraweave_weaving7intentsNtB3_11WeaveIntent13with_cooldownNtNtCs6L9tbza1LrC_5alloc6string6StringEB5_
FNDA:18,_RINvMNtCsjr3IRHpxmFH_18astraweave_weaving7intentsNtB3_11WeaveIntent13with_cooldownReEB5_
FNDA:21,_RINvMNtCsjr3IRHpxmFH_18astraweave_weaving7intentsNtB3_11WeaveIntent3newReEB5_
FNDA:1,_RNvNtNtCsjr3IRHpxmFH_18astraweave_weaving7intents5testss_22test_mediator_proposal
FNDA:1,_RNvNtNtCsjr3IRHpxmFH_18astraweave_weaving7intents5testss_23test_aid_event_proposal
FNDA:1,_RNvNtNtCsjr3IRHpxmFH_18astraweave_weaving7intents5testss_23test_multiple_proposers
FNDA:1,_RNvNtNtCsjr3IRHpxmFH_18astraweave_weaving7intents5testss_25test_supply_drop_proposal
FNDA:1,_RNvNtNtCsjr3IRHpxmFH_18astraweave_weaving7intents5testss_30test_aid_event_below_threshold
FNDA:1,_RNvNtNtCsjr3IRHpxmFH_18astraweave_weaving7intents5testss_35test_scavenger_patrol_deterministic
FNDA:0,_RNvXs1_NtCsjr3IRHpxmFH_18astraweave_weaving7intentsNtB5_16MediatorProposerNtB5_14IntentProposer4name
FNDA:0,_RNvXs2_NtCsjr3IRHpxmFH_18astraweave_weaving7intentsNtB5_23ScavengerPatrolProposerNtB5_14IntentProposer4name
FNF:19
FNH:15
DA:21,21
DA:22,21
DA:23,21
DA:24,21
DA:25,21
DA:26,21
DA:27,21
DA:28,21
DA:29,21
DA:31,21
DA:32,21
DA:33,21
DA:34,21
DA:36,21
DA:37,21
DA:38,21
DA:39,21
DA:41,21
DA:42,21
DA:43,21
DA:44,21
DA:46,8
DA:47,8
DA:48,8
DA:49,8
DA:67,3
DA:68,3
DA:69,3
DA:70,2
DA:71,2
DA:72,2
DA:73,2
DA:74,2
DA:75,1
DA:76,0
DA:77,1
DA:78,3
DA:80,0
DA:81,0
DA:82,0
DA:91,2
DA:92,2
DA:94,6
DA:95,4
DA:96,2
DA:97,2
DA:98,2
DA:99,2
DA:100,2
DA:101,2
DA:102,2
DA:103,2
DA:104,2
DA:105,2
DA:108,2
DA:109,2
DA:111,0
DA:112,0
DA:113,0
DA:122,1
DA:123,1
DA:125,2
DA:126,1
DA:127,1
DA:128,1
DA:129,1
DA:130,1
DA:131,1
DA:132,1
DA:133,1
DA:134,1
DA:135,1
DA:136,1
DA:139,1
DA:140,1
DA:142,0
DA:143,0
DA:144,0
DA:153,3
DA:154,3
DA:155,3
DA:157,3
DA:158,2
DA:160,1
DA:163,3
DA:164,3
DA:165,3
DA:166,3
DA:167,3
DA:168,0
DA:169,0
DA:170,0
DA:171,3
DA:173,0
DA:174,0
DA:175,0
DA:183,1
DA:184,1
DA:185,1
DA:186,1
DA:188,1
DA:189,1
DA:191,1
DA:192,1
DA:193,1
DA:194,1
DA:195,1
DA:196,1
DA:197,1
DA:200,1
DA:201,1
DA:202,1
DA:203,1
DA:205,1
DA:206,1
DA:208,1
DA:209,1
DA:210,1
DA:213,1
DA:214,1
DA:215,1
DA:216,1
DA:218,1
DA:219,1
DA:220,1
DA:222,1
DA:223,1
DA:224,1
DA:225,1
DA:226,1
DA:229,1
DA:230,1
DA:231,1
DA:232,1
DA:234,1
DA:235,1
DA:237,1
DA:238,1
DA:239,1
DA:240,1
DA:241,1
DA:244,1
DA:245,1
DA:246,1
DA:247,1
DA:249,1
DA:250,1
DA:253,1
DA:254,1
DA:255,1
DA:258,1
DA:259,1
DA:260,1
DA:261,1
DA:263,1
DA:266,1
DA:267,1
DA:268,1
DA:269,1
DA:270,1
DA:271,1
DA:272,1
DA:273,1
DA:276,1
DA:277,1
DA:278,1
DA:280,1
DA:281,3
DA:282,2
DA:283,2
DA:285,1
DA:286,1
BRF:0
BRH:0
LF:172
LH:156
end_of_record
SF:C:\Users\pv2br\source\repos\AstraWeave-AI-Native-Gaming-Engine\astraweave-weaving\src\lib.rs
FN:36,_RNvMCsjr3IRHpxmFH_18astraweave_weavingNtB2_11CWeaveAgent11should_scan
FN:28,_RNvMCsjr3IRHpxmFH_18astraweave_weavingNtB2_11CWeaveAgent3new
FNDA:0,_RNvMCsjr3IRHpxmFH_18astraweave_weavingNtB2_11CWeaveAgent11should_scan
FNDA:0,_RNvMCsjr3IRHpxmFH_18astraweave_weavingNtB2_11CWeaveAgent3new
FNF:2
FNH:0
DA:28,0
DA:29,0
DA:30,0
DA:31,0
DA:32,0
DA:33,0
DA:34,0
DA:36,0
DA:37,0
DA:38,0
BRF:0
BRH:0
LF:10
LH:0
end_of_record
SF:C:\Users\pv2br\source\repos\AstraWeave-AI-Native-Gaming-Engine\astraweave-weaving\src\patterns.rs
FN:22,_RNvMNtCsjr3IRHpxmFH_18astraweave_weaving8patternsNtB2_15PatternStrength10from_value
FN:109,_RNvXs0_NtCsjr3IRHpxmFH_18astraweave_weaving8patternsNtB5_24ResourceScarcityDetectorNtB5_15PatternDetector4name
FN:97,_RNvXs0_NtCsjr3IRHpxmFH_18astraweave_weaving8patternsNtB5_24ResourceScarcityDetectorNtB5_15PatternDetector6detect
FN:120,_RNvXs1_NtCsjr3IRHpxmFH_18astraweave_weaving8patternsNtB5_23FactionConflictDetectorNtB5_15PatternDetector6detect
FN:144,_RNvXs2_NtCsjr3IRHpxmFH_18astraweave_weaving8patternsNtB5_23CombatIntensityDetectorNtB5_15PatternDetector6detect
FN:86,_RNvXs_NtCsjr3IRHpxmFH_18astraweave_weaving8patternsNtB4_24LowHealthClusterDetectorNtB4_15PatternDetector4name
FN:75,_RNvXs_NtCsjr3IRHpxmFH_18astraweave_weaving8patternsNtB4_24LowHealthClusterDetectorNtB4_15PatternDetector6detect
FN:248,_RNvNtNtCsjr3IRHpxmFH_18astraweave_weaving8patterns5testss_23test_multiple_detectors
FN:232,_RNvNtNtCsjr3IRHpxmFH_18astraweave_weaving8patterns5testss_31test_combat_intensity_detection
FN:218,_RNvNtNtCsjr3IRHpxmFH_18astraweave_weaving8patterns5testss_31test_faction_conflict_detection
FN:190,_RNvNtNtCsjr3IRHpxmFH_18astraweave_weaving8patterns5testss_31test_low_health_below_threshold
FN:167,_RNvNtNtCsjr3IRHpxmFH_18astraweave_weaving8patterns5testss_32test_pattern_strength_from_value
FN:204,_RNvNtNtCsjr3IRHpxmFH_18astraweave_weaving8patterns5testss_32test_resource_scarcity_detection
FN:174,_RNvNtNtCsjr3IRHpxmFH_18astraweave_weaving8patterns5testss_33test_low_health_cluster_detection
FN:32,_RNvMNtCsjr3IRHpxmFH_18astraweave_weaving8patternsNtB2_15PatternStrength9threshold
FN:132,_RNvXs1_NtCsjr3IRHpxmFH_18astraweave_weaving8patternsNtB5_23FactionConflictDetectorNtB5_15PatternDetector4name
FN:157,_RNvXs2_NtCsjr3IRHpxmFH_18astraweave_weaving8patternsNtB5_23CombatIntensityDetectorNtB5_15PatternDetector4name
FNDA:3,_RNvMNtCsjr3IRHpxmFH_18astraweave_weaving8patternsNtB2_15PatternStrength10from_value
FNDA:0,_RNvXs0_NtCsjr3IRHpxmFH_18astraweave_weaving8patternsNtB5_24ResourceScarcityDetectorNtB5_15PatternDetector4name
FNDA:2,_RNvXs0_NtCsjr3IRHpxmFH_18astraweave_weaving8patternsNtB5_24ResourceScarcityDetectorNtB5_15PatternDetector6detect
FNDA:1,_RNvXs1_NtCsjr3IRHpxmFH_18astraweave_weaving8patternsNtB5_23FactionConflictDetectorNtB5_15PatternDetector6detect
FNDA:1,_RNvXs2_NtCsjr3IRHpxmFH_18astraweave_weaving8patternsNtB5_23CombatIntensityDetectorNtB5_15PatternDetector6detect
FNDA:0,_RNvXs_NtCsjr3IRHpxmFH_18astraweave_weaving8patternsNtB4_24LowHealthClusterDetectorNtB4_15PatternDetector4name
FNDA:3,_RNvXs_NtCsjr3IRHpxmFH_18astraweave_weaving8patternsNtB4_24LowHealthClusterDetectorNtB4_15PatternDetector6detect
FNDA:1,_RNvNtNtCsjr3IRHpxmFH_18astraweave_weaving8patterns5testss_23test_multiple_detectors
FNDA:1,_RNvNtNtCsjr3IRHpxmFH_18astraweave_weaving8patterns5testss_31test_combat_intensity_detection
FNDA:1,_RNvNtNtCsjr3IRHpxmFH_18astraweave_weaving8patterns5testss_31test_faction_conflict_detection
FNDA:1,_RNvNtNtCsjr3IRHpxmFH_18astraweave_weaving8patterns5testss_31test_low_health_below_threshold
FNDA:1,_RNvNtNtCsjr3IRHpxmFH_18astraweave_weaving8patterns5testss_32test_pattern_strength_from_value
FNDA:1,_RNvNtNtCsjr3IRHpxmFH_18astraweave_weaving8patterns5testss_32test_resource_scarcity_detection
FNDA:1,_RNvNtNtCsjr3IRHpxmFH_18astraweave_weaving8patterns5testss_33test_low_health_cluster_detection
FNDA:0,_RNvMNtCsjr3IRHpxmFH_18astraweave_weaving8patternsNtB2_15PatternStrength9threshold
FNDA:0,_RNvXs1_NtCsjr3IRHpxmFH_18astraweave_weaving8patternsNtB5_23FactionConflictDetectorNtB5_15PatternDetector4name
FNDA:0,_RNvXs2_NtCsjr3IRHpxmFH_18astraweave_weaving8patternsNtB5_23CombatIntensityDetectorNtB5_15PatternDetector4name
FNF:17
FNH:12
DA:22,3
DA:23,3
DA:24,1
DA:25,2
DA:26,1
DA:28,1
DA:30,3
DA:32,0
DA:33,0
DA:34,0
DA:35,0
DA:36,0
DA:38,0
DA:75,3
DA:76,3
DA:78,3
DA:79,2
DA:80,2
DA:81,2
DA:83,3
DA:84,3
DA:86,0
DA:87,0
DA:88,0
DA:97,2
DA:98,2
DA:100,5
DA:101,3
DA:102,2
DA:103,2
DA:106,2
DA:107,2
DA:109,0
DA:110,0
DA:111,0
DA:120,1
DA:121,1
DA:123,3
DA:124,2
DA:125,1
DA:126,1
DA:129,1
DA:130,1
DA:132,0
DA:133,0
DA:134,0
DA:144,1
DA:145,1
DA:147,1
DA:148,1
DA:149,1
DA:150,1
DA:151,1
DA:152,1
DA:154,1
DA:155,1
DA:157,0
DA:158,0
DA:159,0
DA:167,1
DA:168,1
DA:169,1
DA:170,1
DA:171,1
DA:174,1
DA:175,1
DA:176,1
DA:177,1
DA:178,1
DA:180,1
DA:181,1
DA:183,1
DA:184,1
DA:185,1
DA:186,1
DA:187,1
DA:190,1
DA:191,1
DA:192,1
DA:193,1
DA:194,1
DA:196,1
DA:197,1
DA:199,1
DA:200,1
DA:201,1
DA:204,1
DA:205,1
DA:207,1
DA:208,1
DA:209,1
DA:211,1
DA:212,1
DA:213,1
DA:214,1
DA:215,1
DA:218,1
DA:219,1
DA:221,1
DA:222,1
DA:223,1
DA:225,1
DA:226,1
DA:227,1
DA:228,1
DA:229,1
DA:232,1
DA:233,1
DA:234,1
DA:235,1
DA:236,1
DA:238,1
DA:239,1
DA:241,1
DA:242,1
DA:243,1
DA:244,1
DA:245,1
DA:248,1
DA:249,1
DA:250,1
DA:251,1
DA:252,1
DA:253,1
DA:254,1
DA:257,1
DA:258,1
DA:259,1
DA:261,1
DA:262,3
DA:263,2
DA:264,2
DA:266,1
DA:267,1
BRF:0
BRH:0
LF:134
LH:116
end_of_record