SF:C:\Users\pv2br\source\repos\AstraWeave-AI-Native-Gaming-Engine\astraweave-asset\src\lib.rs
FN:1573,_RNCNvCsiKhCcLvPDYn_16astraweave_asset16infer_asset_kind0B3_
FN:1588,_RNCNvCsiKhCcLvPDYn_16astraweave_asset18infer_dependencies0B3_
FN:1256,_RNvCsiKhCcLvPDYn_16astraweave_asset13guid_for_path
FN:1572,_RNvCsiKhCcLvPDYn_16astraweave_asset16infer_asset_kind
FN:1633,_RNvCsiKhCcLvPDYn_16astraweave_asset17compute_file_hash
FN:1584,_RNvCsiKhCcLvPDYn_16astraweave_asset18infer_dependencies
FN:1247,_RNvMCsiKhCcLvPDYn_16astraweave_assetNtB2_13AssetManifest8validate
FN:1546,_RNvMs0_CsiKhCcLvPDYn_16astraweave_assetNtB5_13AssetDatabase13load_manifest
FN:1539,_RNvMs0_CsiKhCcLvPDYn_16astraweave_assetNtB5_13AssetDatabase13save_manifest
FN:1500,_RNvMs0_CsiKhCcLvPDYn_16astraweave_assetNtB5_13AssetDatabase14get_dependents
FN:1445,_RNvMs0_CsiKhCcLvPDYn_16astraweave_assetNtB5_13AssetDatabase14register_asset
FN:1526,_RNvMs0_CsiKhCcLvPDYn_16astraweave_assetNtB5_13AssetDatabase14scan_directory
FN:1504,_RNvMs0_CsiKhCcLvPDYn_16astraweave_assetNtB5_13AssetDatabase16get_dependencies
FN:1496,_RNvMs0_CsiKhCcLvPDYn_16astraweave_assetNtB5_13AssetDatabase16get_guid_by_path
FN:1508,_RNvMs0_CsiKhCcLvPDYn_16astraweave_assetNtB5_13AssetDatabase16invalidate_asset
FN:1433,_RNvMs0_CsiKhCcLvPDYn_16astraweave_assetNtB5_13AssetDatabase3new
FN:1492,_RNvMs0_CsiKhCcLvPDYn_16astraweave_assetNtB5_13AssetDatabase9get_asset
FN:1675,_RNvMs1_CsiKhCcLvPDYn_16astraweave_assetNtB5_12AssetWatcher15watch_directory
FN:1648,_RNvMs1_CsiKhCcLvPDYn_16astraweave_assetNtB5_12AssetWatcher3new
FN:1651,_RNCNvMs1_CsiKhCcLvPDYn_16astraweave_assetNtB7_12AssetWatcher3new0B7_
FNDA:0,_RNCNvCsiKhCcLvPDYn_16astraweave_asset16infer_asset_kind0B3_
FNDA:0,_RNCNvCsiKhCcLvPDYn_16astraweave_asset18infer_dependencies0B3_
FNDA:0,_RNvCsiKhCcLvPDYn_16astraweave_asset13guid_for_path
FNDA:0,_RNvCsiKhCcLvPDYn_16astraweave_asset16infer_asset_kind
FNDA:0,_RNvCsiKhCcLvPDYn_16astraweave_asset17compute_file_hash
FNDA:0,_RNvCsiKhCcLvPDYn_16astraweave_asset18infer_dependencies
FNDA:0,_RNvMCsiKhCcLvPDYn_16astraweave_assetNtB2_13AssetManifest8validate
FNDA:0,_RNvMs0_CsiKhCcLvPDYn_16astraweave_assetNtB5_13AssetDatabase13load_manifest
FNDA:0,_RNvMs0_CsiKhCcLvPDYn_16astraweave_assetNtB5_13AssetDatabase13save_manifest
FNDA:0,_RNvMs0_CsiKhCcLvPDYn_16astraweave_assetNtB5_13AssetDatabase14get_dependents
FNDA:0,_RNvMs0_CsiKhCcLvPDYn_16astraweave_assetNtB5_13AssetDatabase14register_asset
FNDA:0,_RNvMs0_CsiKhCcLvPDYn_16astraweave_assetNtB5_13AssetDatabase14scan_directory
FNDA:0,_RNvMs0_CsiKhCcLvPDYn_16astraweave_assetNtB5_13AssetDatabase16get_dependencies
FNDA:0,_RNvMs0_CsiKhCcLvPDYn_16astraweave_assetNtB5_13AssetDatabase16get_guid_by_path
FNDA:0,_RNvMs0_CsiKhCcLvPDYn_16astraweave_assetNtB5_13AssetDatabase16invalidate_asset
FNDA:1,_RNvMs0_CsiKhCcLvPDYn_16astraweave_assetNtB5_13AssetDatabase3new
FNDA:2,_RNvMs0_CsiKhCcLvPDYn_16astraweave_assetNtB5_13AssetDatabase9get_asset
FNDA:0,_RNvMs1_CsiKhCcLvPDYn_16astraweave_assetNtB5_12AssetWatcher15watch_directory
FNDA:0,_RNvMs1_CsiKhCcLvPDYn_16astraweave_assetNtB5_12AssetWatcher3new
FNDA:0,_RNCNvMs1_CsiKhCcLvPDYn_16astraweave_assetNtB7_12AssetWatcher3new0B7_
FNF:20
FNH:2
DA:1247,0
DA:1249,0
DA:1250,0
DA:1256,0
DA:1257,0
DA:1258,0
DA:1259,0
DA:1260,0
DA:1261,0
DA:1433,1
DA:1434,1
DA:1435,1
DA:1436,1
DA:1437,1
DA:1438,1
DA:1439,1
DA:1440,1
DA:1441,1
DA:1442,1
DA:1443,1
DA:1445,0
DA:1446,0
DA:1447,0
DA:1448,0
DA:1449,0
DA:1450,0
DA:1451,0
DA:1452,0
DA:1454,0
DA:1457,0
DA:1458,0
DA:1459,0
DA:1461,0
DA:1462,0
DA:1463,0
DA:1464,0
DA:1465,0
DA:1466,0
DA:1467,0
DA:1468,0
DA:1469,0
DA:1470,0
DA:1471,0
DA:1474,0
DA:1475,0
DA:1478,0
DA:1479,0
DA:1480,0
DA:1481,0
DA:1482,0
DA:1483,0
DA:1484,0
DA:1485,0
DA:1486,0
DA:1487,0
DA:1489,0
DA:1490,0
DA:1492,2
DA:1493,2
DA:1494,2
DA:1496,0
DA:1497,0
DA:1498,0
DA:1500,0
DA:1501,0
DA:1502,0
DA:1504,0
DA:1505,0
DA:1506,0
DA:1508,0
DA:1509,0
DA:1510,0
DA:1511,0
DA:1512,0
DA:1513,0
DA:1514,0
DA:1515,0
DA:1516,0
DA:1518,0
DA:1519,0
DA:1520,0
DA:1522,0
DA:1523,0
DA:1524,0
DA:1526,0
DA:1527,0
DA:1528,0
DA:1529,0
DA:1530,0
DA:1531,0
DA:1532,0
DA:1533,0
DA:1534,0
DA:1536,0
DA:1537,0
DA:1539,0
DA:1540,0
DA:1541,0
DA:1542,0
DA:1543,0
DA:1544,0
DA:1546,0
DA:1547,0
DA:1548,0
DA:1549,0
DA:1550,0
DA:1551,0
DA:1552,0
DA:1553,0
DA:1554,0
DA:1556,0
DA:1557,0
DA:1558,0
DA:1559,0
DA:1560,0
DA:1561,0
DA:1562,0
DA:1563,0
DA:1564,0
DA:1565,0
DA:1566,0
DA:1568,0
DA:1569,0
DA:1572,0
DA:1573,0
DA:1574,0
DA:1575,0
DA:1576,0
DA:1577,0
DA:1578,0
DA:1579,0
DA:1580,0
DA:1582,0
DA:1584,0
DA:1585,0
DA:1588,0
DA:1589,0
DA:1590,0
DA:1592,0
DA:1593,0
DA:1594,0
DA:1595,0
DA:1596,0
DA:1597,0
DA:1598,0
DA:1599,0
DA:1600,0
DA:1601,0
DA:1602,0
DA:1603,0
DA:1604,0
DA:1605,0
DA:1607,0
DA:1609,0
DA:1614,0
DA:1615,0
DA:1616,0
DA:1617,0
DA:1618,0
DA:1619,0
DA:1620,0
DA:1621,0
DA:1622,0
DA:1623,0
DA:1625,0
DA:1626,0
DA:1627,0
DA:1629,0
DA:1631,0
DA:1633,0
DA:1634,0
DA:1635,0
DA:1636,0
DA:1637,0
DA:1638,0
DA:1648,0
DA:1649,0
DA:1650,0
DA:1651,0
DA:1652,0
DA:1653,0
DA:1654,0
DA:1659,0
DA:1660,0
DA:1661,0
DA:1662,0
DA:1663,0
DA:1664,0
DA:1666,0
DA:1668,0
DA:1669,0
DA:1670,0
DA:1672,0
DA:1673,0
DA:1675,0
DA:1676,0
DA:1677,0
DA:1678,0
BRF:0
BRH:0
LF:200
LH:14
end_of_record
SF:C:\Users\pv2br\source\repos\AstraWeave-AI-Native-Gaming-Engine\astraweave-asset\src\nanite_preprocess.rs
FN:177,_RNCNvMs0_NtCsiKhCcLvPDYn_16astraweave_asset17nanite_preprocessNtB7_7Meshlet3news_0B9_
FN:170,_RNCNvMs0_NtCsiKhCcLvPDYn_16astraweave_asset17nanite_preprocessNtB7_7Meshlet3new0B9_
FNDA:0,_RNCNvMs0_NtCsiKhCcLvPDYn_16astraweave_asset17nanite_preprocessNtB7_7Meshlet3news_0B9_
FNDA:0,_RNCNvMs0_NtCsiKhCcLvPDYn_16astraweave_asset17nanite_preprocessNtB7_7Meshlet3new0B9_
FNF:2
FNH:0
DA:170,0
DA:177,0
DA:178,0
DA:179,0
DA:180,0
DA:181,0
DA:183,0
BRF:0
BRH:0
LF:7
LH:0
end_of_record
SF:C:\Users\pv2br\source\repos\AstraWeave-AI-Native-Gaming-Engine\astraweave-core\src\capture_replay.rs
FN:36,_RNvMs_NtCs2It8IXeum7k_15astraweave_core14capture_replayNtNtB6_5world5World10from_serde
FN:55,_RNvNtCs2It8IXeum7k_15astraweave_core14capture_replay12replay_state
FN:45,_RNvNtCs2It8IXeum7k_15astraweave_core14capture_replay13capture_state
FN:24,_RNvXNtCs2It8IXeum7k_15astraweave_core14capture_replayNtB2_10WorldSerdeINtNtCsixiwFwjEgS7_4core7convert4FromRNtNtB4_5world5WorldE4from
FNDA:0,_RNvMs_NtCs2It8IXeum7k_15astraweave_core14capture_replayNtNtB6_5world5World10from_serde
FNDA:0,_RNvNtCs2It8IXeum7k_15astraweave_core14capture_replay12replay_state
FNDA:0,_RNvNtCs2It8IXeum7k_15astraweave_core14capture_replay13capture_state
FNDA:0,_RNvXNtCs2It8IXeum7k_15astraweave_core14capture_replayNtB2_10WorldSerdeINtNtCsixiwFwjEgS7_4core7convert4FromRNtNtB4_5world5WorldE4from
FNF:4
FNH:0
DA:24,0
DA:25,0
DA:26,0
DA:27,0
DA:28,0
DA:29,0
DA:30,0
DA:31,0
DA:32,0
DA:36,0
DA:37,0
DA:38,0
DA:39,0
DA:40,0
DA:41,0
DA:42,0
DA:45,0
DA:46,0
DA:47,0
DA:48,0
DA:49,0
DA:50,0
DA:51,0
DA:52,0
DA:53,0
DA:55,0
DA:56,0
DA:57,0
DA:58,0
DA:59,0
DA:60,0
DA:61,0
DA:62,0
DA:63,0
DA:64,0
BRF:0
BRH:0
LF:35
LH:0
end_of_record
SF:C:\Users\pv2br\source\repos\AstraWeave-AI-Native-Gaming-Engine\astraweave-core\src\ecs_adapter.rs
FN:167,_RNCNvNtCs2It8IXeum7k_15astraweave_core11ecs_adapter9build_app0B5_
FNDA:0,_RNCNvNtCs2It8IXeum7k_15astraweave_core11ecs_adapter9build_app0B5_
FNF:1
FNH:0
DA:167,0
BRF:0
BRH:0
LF:1
LH:0
end_of_record
SF:C:\Users\pv2br\source\repos\AstraWeave-AI-Native-Gaming-Engine\astraweave-core\src\ecs_components.rs
FN:37,_RNvXNtNtCs2It8IXeum7k_15astraweave_core14ecs_components9cooldownsNtB2_11CooldownKeyINtNtCsixiwFwjEgS7_4core7convert4FromReE4from
FN:52,_RNvXs0_NtNtCs2It8IXeum7k_15astraweave_core14ecs_components9cooldownsNtB5_11CooldownKeyNtNtCsixiwFwjEgS7_4core3fmt7Display3fmt
FN:46,_RNvXs_NtNtCs2It8IXeum7k_15astraweave_core14ecs_components9cooldownsNtB4_11CooldownKeyINtNtCsixiwFwjEgS7_4core7convert4FromNtNtCs6L9tbza1LrC_5alloc6string6StringE4from
FNDA:0,_RNvXNtNtCs2It8IXeum7k_15astraweave_core14ecs_components9cooldownsNtB2_11CooldownKeyINtNtCsixiwFwjEgS7_4core7convert4FromReE4from
FNDA:0,_RNvXs0_NtNtCs2It8IXeum7k_15astraweave_core14ecs_components9cooldownsNtB5_11CooldownKeyNtNtCsixiwFwjEgS7_4core3fmt7Display3fmt
FNDA:0,_RNvXs_NtNtCs2It8IXeum7k_15astraweave_core14ecs_components9cooldownsNtB4_11CooldownKeyINtNtCsixiwFwjEgS7_4core7convert4FromNtNtCs6L9tbza1LrC_5alloc6string6StringE4from
FNF:3
FNH:0
DA:37,0
DA:38,0
DA:39,0
DA:40,0
DA:42,0
DA:46,0
DA:47,0
DA:48,0
DA:52,0
DA:53,0
DA:54,0
DA:55,0
DA:57,0
BRF:0
BRH:0
LF:13
LH:0
end_of_record
SF:C:\Users\pv2br\source\repos\AstraWeave-AI-Native-Gaming-Engine\astraweave-core\src\ecs_events.rs
FN:20,_RNvMNtCs2It8IXeum7k_15astraweave_core10ecs_eventsINtB2_6EventspE3lenB4_
FN:17,_RNvMNtCs2It8IXeum7k_15astraweave_core10ecs_eventsINtB2_6EventspE5clearB4_
FN:14,_RNvMNtCs2It8IXeum7k_15astraweave_core10ecs_eventsINtB2_6EventspE6readerB4_
FN:23,_RNvMNtCs2It8IXeum7k_15astraweave_core10ecs_eventsINtB2_6EventspE8is_emptyB4_
FN:47,_RNvMs1_NtCs2It8IXeum7k_15astraweave_core10ecs_eventsINtB5_11EventReaderpE5drainB7_
FNDA:0,_RNvMNtCs2It8IXeum7k_15astraweave_core10ecs_eventsINtB2_6EventspE3lenB4_
FNDA:0,_RNvMNtCs2It8IXeum7k_15astraweave_core10ecs_eventsINtB2_6EventspE5clearB4_
FNDA:0,_RNvMNtCs2It8IXeum7k_15astraweave_core10ecs_eventsINtB2_6EventspE6readerB4_
FNDA:0,_RNvMNtCs2It8IXeum7k_15astraweave_core10ecs_eventsINtB2_6EventspE8is_emptyB4_
FNDA:0,_RNvMs1_NtCs2It8IXeum7k_15astraweave_core10ecs_eventsINtB5_11EventReaderpE5drainB7_
FNF:5
FNH:0
DA:14,0
DA:15,0
DA:16,0
DA:17,0
DA:18,0
DA:19,0
DA:20,0
DA:21,0
DA:22,0
DA:23,0
DA:24,0
DA:25,0
DA:47,0
DA:48,0
DA:49,0
BRF:0
BRH:0
LF:15
LH:0
end_of_record
SF:C:\Users\pv2br\source\repos\AstraWeave-AI-Native-Gaming-Engine\astraweave-core\src\perception.rs
FN:71,_RNCNvNtCs2It8IXeum7k_15astraweave_core10perception14build_snapshots_0B5_
FN:43,_RNCNvNtCs2It8IXeum7k_15astraweave_core10perception14build_snapshot0B5_
FNDA:0,_RNCNvNtCs2It8IXeum7k_15astraweave_core10perception14build_snapshots_0B5_
FNDA:0,_RNCNvNtCs2It8IXeum7k_15astraweave_core10perception14build_snapshot0B5_
FNF:2
FNH:0
DA:43,0
DA:44,0
DA:45,0
DA:47,0
DA:48,0
DA:50,0
DA:52,0
DA:53,0
DA:54,0
DA:55,0
DA:56,0
DA:57,0
DA:58,0
DA:59,0
DA:71,0
BRF:0
BRH:0
LF:15
LH:0
end_of_record
SF:C:\Users\pv2br\source\repos\AstraWeave-AI-Native-Gaming-Engine\astraweave-core\src\sim.rs
FN:7,_RNvNtCs2It8IXeum7k_15astraweave_core3sim4step
FNDA:0,_RNvNtCs2It8IXeum7k_15astraweave_core3sim4step
FNF:1
FNH:0
DA:7,0
DA:8,0
DA:9,0
BRF:0
BRH:0
LF:3
LH:0
end_of_record
SF:C:\Users\pv2br\source\repos\AstraWeave-AI-Native-Gaming-Engine\astraweave-core\src\tool_vocabulary.rs
FN:743,_RNCNvNtCs2It8IXeum7k_15astraweave_core15tool_vocabulary21get_tools_by_category0B5_
FNDA:0,_RNCNvNtCs2It8IXeum7k_15astraweave_core15tool_vocabulary21get_tools_by_category0B5_
FNF:1
FNH:0
DA:743,0
BRF:0
BRH:0
LF:1
LH:0
end_of_record
SF:C:\Users\pv2br\source\repos\AstraWeave-AI-Native-Gaming-Engine\astraweave-core\src\validation.rs
FN:1486,_RINvNtCs2It8IXeum7k_15astraweave_core10validation19apply_director_planpEB4_
FN:10,_RINvNtCs2It8IXeum7k_15astraweave_core10validation20validate_and_executepEB4_
FN:30,_RNCINvNtCs2It8IXeum7k_15astraweave_core10validation20validate_and_executepE0B6_
FN:38,_RNCINvNtCs2It8IXeum7k_15astraweave_core10validation20validate_and_executepEs0_0B6_
FN:45,_RNCINvNtCs2It8IXeum7k_15astraweave_core10validation20validate_and_executepEs1_0B6_
FN:139,_RNCINvNtCs2It8IXeum7k_15astraweave_core10validation20validate_and_executepEs2_0B6_
FN:265,_RNCINvNtCs2It8IXeum7k_15astraweave_core10validation20validate_and_executepEs3_0B6_
FN:271,_RNCINvNtCs2It8IXeum7k_15astraweave_core10validation20validate_and_executepEs4_0B6_
FN:286,_RNCINvNtCs2It8IXeum7k_15astraweave_core10validation20validate_and_executepEs5_0B6_
FN:36,_RNCINvNtCs2It8IXeum7k_15astraweave_core10validation20validate_and_executepEs_0B6_
FNDA:0,_RINvNtCs2It8IXeum7k_15astraweave_core10validation19apply_director_planpEB4_
FNDA:0,_RINvNtCs2It8IXeum7k_15astraweave_core10validation20validate_and_executepEB4_
FNDA:0,_RNCINvNtCs2It8IXeum7k_15astraweave_core10validation20validate_and_executepE0B6_
FNDA:0,_RNCINvNtCs2It8IXeum7k_15astraweave_core10validation20validate_and_executepEs0_0B6_
FNDA:0,_RNCINvNtCs2It8IXeum7k_15astraweave_core10validation20validate_and_executepEs1_0B6_
FNDA:0,_RNCINvNtCs2It8IXeum7k_15astraweave_core10validation20validate_and_executepEs2_0B6_
FNDA:0,_RNCINvNtCs2It8IXeum7k_15astraweave_core10validation20validate_and_executepEs3_0B6_
FNDA:0,_RNCINvNtCs2It8IXeum7k_15astraweave_core10validation20validate_and_executepEs4_0B6_
FNDA:0,_RNCINvNtCs2It8IXeum7k_15astraweave_core10validation20validate_and_executepEs5_0B6_
FNDA:0,_RNCINvNtCs2It8IXeum7k_15astraweave_core10validation20validate_and_executepEs_0B6_
FNF:10
FNH:0
DA:10,0
DA:11,0
DA:12,0
DA:13,0
DA:14,0
DA:15,0
DA:16,0
DA:17,0
DA:18,0
DA:19,0
DA:20,0
DA:21,0
DA:22,0
DA:23,0
DA:28,0
DA:29,0
DA:30,0
DA:31,0
DA:32,0
DA:33,0
DA:34,0
DA:35,0
DA:36,0
DA:37,0
DA:38,0
DA:39,0
DA:42,0
DA:44,0
DA:45,0
DA:46,0
DA:50,0
DA:51,0
DA:52,0
DA:53,0
DA:55,0
DA:56,0
DA:57,0
DA:58,0
DA:60,0
DA:61,0
DA:62,0
DA:63,0
DA:65,0
DA:66,0
DA:67,0
DA:68,0
DA:74,0
DA:75,0
DA:77,0
DA:78,0
DA:79,0
DA:82,0
DA:83,0
DA:84,0
DA:85,0
DA:86,0
DA:89,0
DA:90,0
DA:91,0
DA:92,0
DA:93,0
DA:96,0
DA:97,0
DA:98,0
DA:99,0
DA:100,0
DA:103,0
DA:104,0
DA:105,0
DA:106,0
DA:108,0
DA:109,0
DA:110,0
DA:111,0
DA:113,0
DA:114,0
DA:115,0
DA:116,0
DA:122,0
DA:123,0
DA:124,0
DA:125,0
DA:127,0
DA:128,0
DA:129,0
DA:130,0
DA:132,0
DA:133,0
DA:134,0
DA:135,0
DA:137,0
DA:138,0
DA:139,0
DA:140,0
DA:141,0
DA:142,0
DA:143,0
DA:144,0
DA:147,0
DA:148,0
DA:149,0
DA:150,0
DA:151,0
DA:152,0
DA:155,0
DA:156,0
DA:157,0
DA:158,0
DA:164,0
DA:165,0
DA:166,0
DA:167,0
DA:169,0
DA:170,0
DA:171,0
DA:172,0
DA:175,0
DA:176,0
DA:177,0
DA:178,0
DA:181,0
DA:182,0
DA:183,0
DA:184,0
DA:186,0
DA:187,0
DA:188,0
DA:189,0
DA:195,0
DA:196,0
DA:197,0
DA:198,0
DA:200,0
DA:201,0
DA:202,0
DA:203,0
DA:205,0
DA:206,0
DA:207,0
DA:208,0
DA:210,0
DA:211,0
DA:212,0
DA:213,0
DA:215,0
DA:216,0
DA:217,0
DA:218,0
DA:220,0
DA:221,0
DA:222,0
DA:223,0
DA:225,0
DA:226,0
DA:227,0
DA:228,0
DA:234,0
DA:235,0
DA:236,0
DA:237,0
DA:239,0
DA:240,0
DA:241,0
DA:242,0
DA:244,0
DA:245,0
DA:246,0
DA:247,0
DA:249,0
DA:250,0
DA:251,0
DA:252,0
DA:254,0
DA:255,0
DA:256,0
DA:257,0
DA:263,0
DA:264,0
DA:265,0
DA:266,0
DA:267,0
DA:268,0
DA:269,0
DA:270,0
DA:271,0
DA:272,0
DA:273,0
DA:274,0
DA:275,0
DA:276,0
DA:277,0
DA:280,0
DA:281,0
DA:283,0
DA:284,0
DA:285,0
DA:286,0
DA:287,0
DA:288,0
DA:289,0
DA:291,0
DA:292,0
DA:293,0
DA:294,0
DA:295,0
DA:297,0
DA:298,0
DA:299,0
DA:300,0
DA:301,0
DA:302,0
DA:303,0
DA:304,0
DA:305,0
DA:306,0
DA:308,0
DA:309,0
DA:310,0
DA:311,0
DA:312,0
DA:313,0
DA:314,0
DA:318,0
DA:319,0
DA:1486,0
DA:1487,0
DA:1488,0
DA:1489,0
DA:1490,0
DA:1491,0
DA:1492,0
DA:1493,0
DA:1494,0
DA:1495,0
DA:1496,0
DA:1497,0
DA:1498,0
DA:1499,0
DA:1500,0
DA:1501,0
DA:1502,0
DA:1503,0
DA:1504,0
DA:1506,0
DA:1507,0
DA:1508,0
DA:1509,0
DA:1510,0
DA:1511,0
DA:1512,0
DA:1513,0
DA:1514,0
DA:1515,0
DA:1516,0
DA:1519,0
DA:1520,0
DA:1521,0
DA:1523,0
DA:1524,0
DA:1525,0
DA:1526,0
DA:1527,0
DA:1528,0
DA:1529,0
DA:1530,0
DA:1531,0
DA:1532,0
DA:1533,0
DA:1534,0
DA:1535,0
DA:1536,0
DA:1537,0
DA:1538,0
DA:1539,0
DA:1540,0
DA:1541,0
DA:1545,0
BRF:0
BRH:0
LF:285
LH:0
end_of_record
SF:C:\Users\pv2br\source\repos\AstraWeave-AI-Native-Gaming-Engine\astraweave-core\src\world.rs
FN:118,_RNCNvMNtCs2It8IXeum7k_15astraweave_core5worldNtB4_5World10enemies_of0B6_
FN:112,_RNCNvMNtCs2It8IXeum7k_15astraweave_core5worldNtB4_5World11all_of_team0B6_
FN:106,_RNCNvMNtCs2It8IXeum7k_15astraweave_core5worldNtB4_5World4name0B6_
FN:115,_RNvMNtCs2It8IXeum7k_15astraweave_core5worldNtB2_5World10enemies_of
FN:87,_RNvMNtCs2It8IXeum7k_15astraweave_core5worldNtB2_5World10health_mut
FN:109,_RNvMNtCs2It8IXeum7k_15astraweave_core5worldNtB2_5World11all_of_team
FN:102,_RNvMNtCs2It8IXeum7k_15astraweave_core5worldNtB2_5World13cooldowns_mut
FN:43,_RNvMNtCs2It8IXeum7k_15astraweave_core5worldNtB2_5World3new
FN:93,_RNvMNtCs2It8IXeum7k_15astraweave_core5worldNtB2_5World4ammo
FN:105,_RNvMNtCs2It8IXeum7k_15astraweave_core5worldNtB2_5World4name
FN:78,_RNvMNtCs2It8IXeum7k_15astraweave_core5worldNtB2_5World4pose
FN:90,_RNvMNtCs2It8IXeum7k_15astraweave_core5worldNtB2_5World4team
FN:68,_RNvMNtCs2It8IXeum7k_15astraweave_core5worldNtB2_5World4tick
FN:51,_RNvMNtCs2It8IXeum7k_15astraweave_core5worldNtB2_5World5spawn
FN:84,_RNvMNtCs2It8IXeum7k_15astraweave_core5worldNtB2_5World6health
FN:121,_RNvMNtCs2It8IXeum7k_15astraweave_core5worldNtB2_5World6pos_of
FN:96,_RNvMNtCs2It8IXeum7k_15astraweave_core5worldNtB2_5World8ammo_mut
FN:125,_RNvMNtCs2It8IXeum7k_15astraweave_core5worldNtB2_5World8entities
FN:128,_RNvMNtCs2It8IXeum7k_15astraweave_core5worldNtB2_5World8obstacle
FN:81,_RNvMNtCs2It8IXeum7k_15astraweave_core5worldNtB2_5World8pose_mut
FN:99,_RNvMNtCs2It8IXeum7k_15astraweave_core5worldNtB2_5World9cooldowns
FNDA:0,_RNCNvMNtCs2It8IXeum7k_15astraweave_core5worldNtB4_5World10enemies_of0B6_
FNDA:0,_RNCNvMNtCs2It8IXeum7k_15astraweave_core5worldNtB4_5World11all_of_team0B6_
FNDA:0,_RNCNvMNtCs2It8IXeum7k_15astraweave_core5worldNtB4_5World4name0B6_
FNDA:0,_RNvMNtCs2It8IXeum7k_15astraweave_core5worldNtB2_5World10enemies_of
FNDA:0,_RNvMNtCs2It8IXeum7k_15astraweave_core5worldNtB2_5World10health_mut
FNDA:0,_RNvMNtCs2It8IXeum7k_15astraweave_core5worldNtB2_5World11all_of_team
FNDA:0,_RNvMNtCs2It8IXeum7k_15astraweave_core5worldNtB2_5World13cooldowns_mut
FNDA:0,_RNvMNtCs2It8IXeum7k_15astraweave_core5worldNtB2_5World3new
FNDA:0,_RNvMNtCs2It8IXeum7k_15astraweave_core5worldNtB2_5World4ammo
FNDA:0,_RNvMNtCs2It8IXeum7k_15astraweave_core5worldNtB2_5World4name
FNDA:0,_RNvMNtCs2It8IXeum7k_15astraweave_core5worldNtB2_5World4pose
FNDA:0,_RNvMNtCs2It8IXeum7k_15astraweave_core5worldNtB2_5World4team
FNDA:0,_RNvMNtCs2It8IXeum7k_15astraweave_core5worldNtB2_5World4tick
FNDA:0,_RNvMNtCs2It8IXeum7k_15astraweave_core5worldNtB2_5World5spawn
FNDA:0,_RNvMNtCs2It8IXeum7k_15astraweave_core5worldNtB2_5World6health
FNDA:0,_RNvMNtCs2It8IXeum7k_15astraweave_core5worldNtB2_5World6pos_of
FNDA:0,_RNvMNtCs2It8IXeum7k_15astraweave_core5worldNtB2_5World8ammo_mut
FNDA:0,_RNvMNtCs2It8IXeum7k_15astraweave_core5worldNtB2_5World8entities
FNDA:0,_RNvMNtCs2It8IXeum7k_15astraweave_core5worldNtB2_5World8obstacle
FNDA:0,_RNvMNtCs2It8IXeum7k_15astraweave_core5worldNtB2_5World8pose_mut
FNDA:0,_RNvMNtCs2It8IXeum7k_15astraweave_core5worldNtB2_5World9cooldowns
FNF:21
FNH:0
DA:43,0
DA:44,0
DA:45,0
DA:46,0
DA:47,0
DA:48,0
DA:49,0
DA:51,0
DA:52,0
DA:53,0
DA:54,0
DA:55,0
DA:56,0
DA:57,0
DA:58,0
DA:59,0
DA:60,0
DA:61,0
DA:62,0
DA:64,0
DA:65,0
DA:66,0
DA:68,0
DA:69,0
DA:70,0
DA:71,0
DA:72,0
DA:73,0
DA:75,0
DA:78,0
DA:79,0
DA:80,0
DA:81,0
DA:82,0
DA:83,0
DA:84,0
DA:85,0
DA:86,0
DA:87,0
DA:88,0
DA:89,0
DA:90,0
DA:91,0
DA:92,0
DA:93,0
DA:94,0
DA:95,0
DA:96,0
DA:97,0
DA:98,0
DA:99,0
DA:100,0
DA:101,0
DA:102,0
DA:103,0
DA:104,0
DA:105,0
DA:106,0
DA:107,0
DA:109,0
DA:110,0
DA:111,0
DA:112,0
DA:113,0
DA:114,0
DA:115,0
DA:116,0
DA:117,0
DA:118,0
DA:119,0
DA:120,0
DA:121,0
DA:122,0
DA:123,0
DA:125,0
DA:126,0
DA:127,0
DA:128,0
DA:129,0
DA:130,0
BRF:0
BRH:0
LF:83
LH:0
end_of_record
SF:C:\Users\pv2br\source\repos\AstraWeave-AI-Native-Gaming-Engine\astraweave-ecs\src\archetype.rs
FN:306,_RNCNvMs0_NtCs9PL6mPjoae0_14astraweave_ecs9archetypeNtB7_16ArchetypeStorage25archetypes_with_component0Cse3Y0ahwHT7m_19astraweave_gameplay
FN:96,_RINvMs_NtCs9PL6mPjoae0_14astraweave_ecs9archetypeNtB5_9Archetype3getNtNtCs2It8IXeum7k_15astraweave_core14ecs_components4CPosECse3Y0ahwHT7m_19astraweave_gameplay
FN:96,_RINvMs_NtCs9PL6mPjoae0_14astraweave_ecs9archetypeNtB5_9Archetype3getNtNtCse3Y0ahwHT7m_19astraweave_gameplay3ecs11CInputStateEB18_
FN:96,_RINvMs_NtCs9PL6mPjoae0_14astraweave_ecs9archetypeNtB5_9Archetype3getNtNtCse3Y0ahwHT7m_19astraweave_gameplay3ecs12CAttackStateEB18_
FN:96,_RINvMs_NtCs9PL6mPjoae0_14astraweave_ecs9archetypeNtB5_9Archetype3getNtNtCse3Y0ahwHT7m_19astraweave_gameplay3ecs14CCraftingQueueEB18_
FN:96,_RINvMs_NtCs9PL6mPjoae0_14astraweave_ecs9archetypeNtB5_9Archetype3getNtNtCse3Y0ahwHT7m_19astraweave_gameplay3ecs7CTargetEB18_
FN:96,_RINvMs_NtCs9PL6mPjoae0_14astraweave_ecs9archetypeNtB5_9Archetype3getNtNtCse3Y0ahwHT7m_19astraweave_gameplay3ecs9CQuestLogEB18_
FN:105,_RINvMs_NtCs9PL6mPjoae0_14astraweave_ecs9archetypeNtB5_9Archetype7get_mutNtNtCs2It8IXeum7k_15astraweave_core14ecs_components7CHealthECse3Y0ahwHT7m_19astraweave_gameplay
FN:96,_RINvMs_NtCs9PL6mPjoae0_14astraweave_ecs9archetypeNtB5_9Archetype3getNtNtCs2It8IXeum7k_15astraweave_core14ecs_components11CDesiredPosEB18_
FN:96,_RINvMs_NtCs9PL6mPjoae0_14astraweave_ecs9archetypeNtB5_9Archetype3getNtNtCs2It8IXeum7k_15astraweave_core14ecs_components9CLegacyIdEB18_
FN:105,_RINvMs_NtCs9PL6mPjoae0_14astraweave_ecs9archetypeNtB5_9Archetype7get_mutNtNtCs2It8IXeum7k_15astraweave_core14ecs_components10CCooldownsEB1c_
FN:105,_RINvMs_NtCs9PL6mPjoae0_14astraweave_ecs9archetypeNtB5_9Archetype7get_mutNtNtCs2It8IXeum7k_15astraweave_core14ecs_components4CPosEB1c_
FN:306,_RNCNvMs0_NtCs9PL6mPjoae0_14astraweave_ecs9archetypeNtB7_16ArchetypeStorage25archetypes_with_component0Cs2It8IXeum7k_15astraweave_core
FN:34,_RNvMNtCs9PL6mPjoae0_14astraweave_ecs9archetypeNtB2_18ArchetypeSignature3len
FN:24,_RNvMNtCs9PL6mPjoae0_14astraweave_ecs9archetypeNtB2_18ArchetypeSignature3new
FN:30,_RNvMNtCs9PL6mPjoae0_14astraweave_ecs9archetypeNtB2_18ArchetypeSignature8contains
FN:38,_RNvMNtCs9PL6mPjoae0_14astraweave_ecs9archetypeNtB2_18ArchetypeSignature8is_empty
FN:285,_RNvMs0_NtCs9PL6mPjoae0_14astraweave_ecs9archetypeNtB5_16ArchetypeStorage10archetypes
FN:264,_RNvMs0_NtCs9PL6mPjoae0_14astraweave_ecs9archetypeNtB5_16ArchetypeStorage13get_archetype
FN:280,_RNvMs0_NtCs9PL6mPjoae0_14astraweave_ecs9archetypeNtB5_16ArchetypeStorage13remove_entity
FN:295,_RNvMs0_NtCs9PL6mPjoae0_14astraweave_ecs9archetypeNtB5_16ArchetypeStorage14archetypes_mut
FN:268,_RNvMs0_NtCs9PL6mPjoae0_14astraweave_ecs9archetypeNtB5_16ArchetypeStorage17get_archetype_mut
FN:272,_RNvMs0_NtCs9PL6mPjoae0_14astraweave_ecs9archetypeNtB5_16ArchetypeStorage20get_entity_archetype
FN:276,_RNvMs0_NtCs9PL6mPjoae0_14astraweave_ecs9archetypeNtB5_16ArchetypeStorage20set_entity_archetype
FN:249,_RNvMs0_NtCs9PL6mPjoae0_14astraweave_ecs9archetypeNtB5_16ArchetypeStorage23get_or_create_archetype
FN:300,_RNvMs0_NtCs9PL6mPjoae0_14astraweave_ecs9archetypeNtB5_16ArchetypeStorage25archetypes_with_component
FN:239,_RNvMs0_NtCs9PL6mPjoae0_14astraweave_ecs9archetypeNtB5_16ArchetypeStorage3new
FN:290,_RNvMs0_NtCs9PL6mPjoae0_14astraweave_ecs9archetypeNtB5_16ArchetypeStorage4iter
FN:76,_RNvMs_NtCs9PL6mPjoae0_14astraweave_ecs9archetypeNtB4_9Archetype10add_entity
FN:157,_RNvMs_NtCs9PL6mPjoae0_14astraweave_ecs9archetypeNtB4_9Archetype12entities_vec
FN:113,_RNvMs_NtCs9PL6mPjoae0_14astraweave_ecs9archetypeNtB4_9Archetype13remove_entity
FN:119,_RNvMs_NtCs9PL6mPjoae0_14astraweave_ecs9archetypeNtB4_9Archetype24remove_entity_components
FN:148,_RNvMs_NtCs9PL6mPjoae0_14astraweave_ecs9archetypeNtB4_9Archetype3len
FN:61,_RNvMs_NtCs9PL6mPjoae0_14astraweave_ecs9archetypeNtB4_9Archetype3new
FN:152,_RNvMs_NtCs9PL6mPjoae0_14astraweave_ecs9archetypeNtB4_9Archetype8is_empty
FNDA:0,_RNCNvMs0_NtCs9PL6mPjoae0_14astraweave_ecs9archetypeNtB7_16ArchetypeStorage25archetypes_with_component0Cse3Y0ahwHT7m_19astraweave_gameplay
FNDA:0,_RINvMs_NtCs9PL6mPjoae0_14astraweave_ecs9archetypeNtB5_9Archetype3getNtNtCs2It8IXeum7k_15astraweave_core14ecs_components4CPosECse3Y0ahwHT7m_19astraweave_gameplay
FNDA:0,_RINvMs_NtCs9PL6mPjoae0_14astraweave_ecs9archetypeNtB5_9Archetype3getNtNtCse3Y0ahwHT7m_19astraweave_gameplay3ecs11CInputStateEB18_
FNDA:0,_RINvMs_NtCs9PL6mPjoae0_14astraweave_ecs9archetypeNtB5_9Archetype3getNtNtCse3Y0ahwHT7m_19astraweave_gameplay3ecs12CAttackStateEB18_
FNDA:0,_RINvMs_NtCs9PL6mPjoae0_14astraweave_ecs9archetypeNtB5_9Archetype3getNtNtCse3Y0ahwHT7m_19astraweave_gameplay3ecs14CCraftingQueueEB18_
FNDA:0,_RINvMs_NtCs9PL6mPjoae0_14astraweave_ecs9archetypeNtB5_9Archetype3getNtNtCse3Y0ahwHT7m_19astraweave_gameplay3ecs7CTargetEB18_
FNDA:0,_RINvMs_NtCs9PL6mPjoae0_14astraweave_ecs9archetypeNtB5_9Archetype3getNtNtCse3Y0ahwHT7m_19astraweave_gameplay3ecs9CQuestLogEB18_
FNDA:0,_RINvMs_NtCs9PL6mPjoae0_14astraweave_ecs9archetypeNtB5_9Archetype7get_mutNtNtCs2It8IXeum7k_15astraweave_core14ecs_components7CHealthECse3Y0ahwHT7m_19astraweave_gameplay
FNDA:0,_RINvMs_NtCs9PL6mPjoae0_14astraweave_ecs9archetypeNtB5_9Archetype3getNtNtCs2It8IXeum7k_15astraweave_core14ecs_components11CDesiredPosEB18_
FNDA:0,_RINvMs_NtCs9PL6mPjoae0_14astraweave_ecs9archetypeNtB5_9Archetype3getNtNtCs2It8IXeum7k_15astraweave_core14ecs_components9CLegacyIdEB18_
FNDA:0,_RINvMs_NtCs9PL6mPjoae0_14astraweave_ecs9archetypeNtB5_9Archetype7get_mutNtNtCs2It8IXeum7k_15astraweave_core14ecs_components10CCooldownsEB1c_
FNDA:0,_RINvMs_NtCs9PL6mPjoae0_14astraweave_ecs9archetypeNtB5_9Archetype7get_mutNtNtCs2It8IXeum7k_15astraweave_core14ecs_components4CPosEB1c_
FNDA:0,_RNCNvMs0_NtCs9PL6mPjoae0_14astraweave_ecs9archetypeNtB7_16ArchetypeStorage25archetypes_with_component0Cs2It8IXeum7k_15astraweave_core
FNDA:0,_RNvMNtCs9PL6mPjoae0_14astraweave_ecs9archetypeNtB2_18ArchetypeSignature3len
FNDA:0,_RNvMNtCs9PL6mPjoae0_14astraweave_ecs9archetypeNtB2_18ArchetypeSignature3new
FNDA:0,_RNvMNtCs9PL6mPjoae0_14astraweave_ecs9archetypeNtB2_18ArchetypeSignature8contains
FNDA:0,_RNvMNtCs9PL6mPjoae0_14astraweave_ecs9archetypeNtB2_18ArchetypeSignature8is_empty
FNDA:0,_RNvMs0_NtCs9PL6mPjoae0_14astraweave_ecs9archetypeNtB5_16ArchetypeStorage10archetypes
FNDA:0,_RNvMs0_NtCs9PL6mPjoae0_14astraweave_ecs9archetypeNtB5_16ArchetypeStorage13get_archetype
FNDA:0,_RNvMs0_NtCs9PL6mPjoae0_14astraweave_ecs9archetypeNtB5_16ArchetypeStorage13remove_entity
FNDA:0,_RNvMs0_NtCs9PL6mPjoae0_14astraweave_ecs9archetypeNtB5_16ArchetypeStorage14archetypes_mut
FNDA:0,_RNvMs0_NtCs9PL6mPjoae0_14astraweave_ecs9archetypeNtB5_16ArchetypeStorage17get_archetype_mut
FNDA:0,_RNvMs0_NtCs9PL6mPjoae0_14astraweave_ecs9archetypeNtB5_16ArchetypeStorage20get_entity_archetype
FNDA:0,_RNvMs0_NtCs9PL6mPjoae0_14astraweave_ecs9archetypeNtB5_16ArchetypeStorage20set_entity_archetype
FNDA:0,_RNvMs0_NtCs9PL6mPjoae0_14astraweave_ecs9archetypeNtB5_16ArchetypeStorage23get_or_create_archetype
FNDA:0,_RNvMs0_NtCs9PL6mPjoae0_14astraweave_ecs9archetypeNtB5_16ArchetypeStorage25archetypes_with_component
FNDA:0,_RNvMs0_NtCs9PL6mPjoae0_14astraweave_ecs9archetypeNtB5_16ArchetypeStorage3new
FNDA:0,_RNvMs0_NtCs9PL6mPjoae0_14astraweave_ecs9archetypeNtB5_16ArchetypeStorage4iter
FNDA:0,_RNvMs_NtCs9PL6mPjoae0_14astraweave_ecs9archetypeNtB4_9Archetype10add_entity
FNDA:0,_RNvMs_NtCs9PL6mPjoae0_14astraweave_ecs9archetypeNtB4_9Archetype12entities_vec
FNDA:0,_RNvMs_NtCs9PL6mPjoae0_14astraweave_ecs9archetypeNtB4_9Archetype13remove_entity
FNDA:0,_RNvMs_NtCs9PL6mPjoae0_14astraweave_ecs9archetypeNtB4_9Archetype24remove_entity_components
FNDA:0,_RNvMs_NtCs9PL6mPjoae0_14astraweave_ecs9archetypeNtB4_9Archetype3len
FNDA:0,_RNvMs_NtCs9PL6mPjoae0_14astraweave_ecs9archetypeNtB4_9Archetype3new
FNDA:0,_RNvMs_NtCs9PL6mPjoae0_14astraweave_ecs9archetypeNtB4_9Archetype8is_empty
FNF:25
FNH:0
DA:24,0
DA:25,0
DA:26,0
DA:27,0
DA:28,0
DA:30,0
DA:31,0
DA:32,0
DA:34,0
DA:35,0
DA:36,0
DA:38,0
DA:39,0
DA:40,0
DA:61,0
DA:62,0
DA:63,0
DA:64,0
DA:65,0
DA:66,0
DA:67,0
DA:68,0
DA:69,0
DA:70,0
DA:71,0
DA:72,0
DA:73,0
DA:76,0
DA:77,0
DA:78,0
DA:79,0
DA:80,0
DA:82,0
DA:83,0
DA:85,0
DA:86,0
DA:87,0
DA:88,0
DA:89,0
DA:90,0
DA:91,0
DA:93,0
DA:96,0
DA:98,0
DA:99,0
DA:100,0
DA:101,0
DA:102,0
DA:105,0
DA:107,0
DA:108,0
DA:109,0
DA:110,0
DA:111,0
DA:113,0
DA:115,0
DA:116,0
DA:119,0
DA:120,0
DA:121,0
DA:122,0
DA:124,0
DA:125,0
DA:126,0
DA:130,0
DA:131,0
DA:132,0
DA:133,0
DA:134,0
DA:135,0
DA:136,0
DA:137,0
DA:139,0
DA:140,0
DA:141,0
DA:142,0
DA:143,0
DA:145,0
DA:146,0
DA:148,0
DA:149,0
DA:150,0
DA:152,0
DA:153,0
DA:154,0
DA:157,0
DA:158,0
DA:159,0
DA:239,0
DA:240,0
DA:241,0
DA:242,0
DA:243,0
DA:244,0
DA:245,0
DA:246,0
DA:249,0
DA:250,0
DA:251,0
DA:252,0
DA:254,0
DA:255,0
DA:257,0
DA:258,0
DA:259,0
DA:261,0
DA:262,0
DA:264,0
DA:265,0
DA:266,0
DA:268,0
DA:269,0
DA:270,0
DA:272,0
DA:273,0
DA:274,0
DA:276,0
DA:277,0
DA:278,0
DA:280,0
DA:281,0
DA:282,0
DA:285,0
DA:286,0
DA:287,0
DA:290,0
DA:291,0
DA:292,0
DA:295,0
DA:296,0
DA:297,0
DA:300,0
DA:304,0
DA:305,0
DA:306,0
DA:307,0
BRF:0
BRH:0
LF:137
LH:0
end_of_record
SF:C:\Users\pv2br\source\repos\AstraWeave-AI-Native-Gaming-Engine\astraweave-ecs\src\blob_vec.rs
FN:223,_RNvXs_NtCs9PL6mPjoae0_14astraweave_ecs8blob_vecNtB4_7BlobVecNtNtNtCsixiwFwjEgS7_4core3ops4drop4Drop4drop
FN:194,_RNvMNtCs9PL6mPjoae0_14astraweave_ecs8blob_vecNtB2_7BlobVec3len
FN:209,_RNvMNtCs9PL6mPjoae0_14astraweave_ecs8blob_vecNtB2_7BlobVec5clear
FN:68,_RNvMNtCs9PL6mPjoae0_14astraweave_ecs8blob_vecNtB2_7BlobVec7reserve
FN:204,_RNvMNtCs9PL6mPjoae0_14astraweave_ecs8blob_vecNtB2_7BlobVec8capacity
FN:199,_RNvMNtCs9PL6mPjoae0_14astraweave_ecs8blob_vecNtB2_7BlobVec8is_empty
FNDA:0,_RNvXs_NtCs9PL6mPjoae0_14astraweave_ecs8blob_vecNtB4_7BlobVecNtNtNtCsixiwFwjEgS7_4core3ops4drop4Drop4drop
FNDA:0,_RNvMNtCs9PL6mPjoae0_14astraweave_ecs8blob_vecNtB2_7BlobVec3len
FNDA:0,_RNvMNtCs9PL6mPjoae0_14astraweave_ecs8blob_vecNtB2_7BlobVec5clear
FNDA:0,_RNvMNtCs9PL6mPjoae0_14astraweave_ecs8blob_vecNtB2_7BlobVec7reserve
FNDA:0,_RNvMNtCs9PL6mPjoae0_14astraweave_ecs8blob_vecNtB2_7BlobVec8capacity
FNDA:0,_RNvMNtCs9PL6mPjoae0_14astraweave_ecs8blob_vecNtB2_7BlobVec8is_empty
FNF:6
FNH:0
DA:68,0
DA:69,0
DA:70,0
DA:71,0
DA:72,0
DA:74,0
DA:76,0
DA:77,0
DA:78,0
DA:79,0
DA:81,0
DA:83,0
DA:86,0
DA:87,0
DA:88,0
DA:89,0
DA:92,0
DA:93,0
DA:94,0
DA:95,0
DA:97,0
DA:101,0
DA:102,0
DA:103,0
DA:194,0
DA:195,0
DA:196,0
DA:199,0
DA:200,0
DA:201,0
DA:204,0
DA:205,0
DA:206,0
DA:209,0
DA:210,0
DA:211,0
DA:212,0
DA:213,0
DA:214,0
DA:215,0
DA:217,0
DA:218,0
DA:219,0
DA:223,0
DA:224,0
DA:226,0
DA:227,0
DA:228,0
DA:229,0
DA:230,0
DA:232,0
DA:233,0
DA:234,0
DA:235,0
DA:236,0
BRF:0
BRH:0
LF:55
LH:0
end_of_record
SF:C:\Users\pv2br\source\repos\AstraWeave-AI-Native-Gaming-Engine\astraweave-ecs\src\command_buffer.rs
FN:213,_RNvXs1_NtCs9PL6mPjoae0_14astraweave_ecs14command_bufferNtB5_12SpawnBuilderNtNtNtCsixiwFwjEgS7_4core3ops4drop4Drop4drop
FNDA:0,_RNvXs1_NtCs9PL6mPjoae0_14astraweave_ecs14command_bufferNtB5_12SpawnBuilderNtNtNtCsixiwFwjEgS7_4core3ops4drop4Drop4drop
FNF:1
FNH:0
DA:213,0
DA:215,0
DA:216,0
DA:217,0
BRF:0
BRH:0
LF:4
LH:0
end_of_record
SF:C:\Users\pv2br\source\repos\AstraWeave-AI-Native-Gaming-Engine\astraweave-ecs\src\entity_allocator.rs
FN:77,_RNvMNtCs9PL6mPjoae0_14astraweave_ecs16entity_allocatorNtB2_6Entity2id
FNDA:0,_RNvMNtCs9PL6mPjoae0_14astraweave_ecs16entity_allocatorNtB2_6Entity2id
FNF:1
FNH:0
DA:77,0
DA:78,0
DA:79,0
BRF:0
BRH:0
LF:3
LH:0
end_of_record
SF:C:\Users\pv2br\source\repos\AstraWeave-AI-Native-Gaming-Engine\astraweave-ecs\src\lib.rs
FN:180,_RNCNvMs1_Cs9PL6mPjoae0_14astraweave_ecsNtB7_5World28move_entity_to_new_archetype0B7_
FNDA:0,_RNCNvMs1_Cs9PL6mPjoae0_14astraweave_ecsNtB7_5World28move_entity_to_new_archetype0B7_
FNF:1
FNH:0
DA:180,0
BRF:0
BRH:0
LF:1
LH:0
end_of_record
SF:C:\Users\pv2br\source\repos\AstraWeave-AI-Native-Gaming-Engine\astraweave-ecs\src\sparse_set.rs
FN:57,_RNCNvMNtCs9PL6mPjoae0_14astraweave_ecs10sparse_setNtB4_9SparseSet6insert0B6_
FN:42,_RNvMNtCs9PL6mPjoae0_14astraweave_ecs10sparse_setNtB2_9SparseSet13with_capacity
FN:77,_RNvMNtCs9PL6mPjoae0_14astraweave_ecs10sparse_setNtB2_9SparseSet3get
FN:112,_RNvMNtCs9PL6mPjoae0_14astraweave_ecs10sparse_setNtB2_9SparseSet3len
FN:34,_RNvMNtCs9PL6mPjoae0_14astraweave_ecs10sparse_setNtB2_9SparseSet3new
FN:129,_RNvMNtCs9PL6mPjoae0_14astraweave_ecs10sparse_setNtB2_9SparseSet5clear
FN:53,_RNvMNtCs9PL6mPjoae0_14astraweave_ecs10sparse_setNtB2_9SparseSet6insert
FN:91,_RNvMNtCs9PL6mPjoae0_14astraweave_ecs10sparse_setNtB2_9SparseSet6remove
FN:140,_RNvMNtCs9PL6mPjoae0_14astraweave_ecs10sparse_setNtB2_9SparseSet7reserve
FN:135,_RNvMNtCs9PL6mPjoae0_14astraweave_ecs10sparse_setNtB2_9SparseSet8capacity
FN:83,_RNvMNtCs9PL6mPjoae0_14astraweave_ecs10sparse_setNtB2_9SparseSet8contains
FN:124,_RNvMNtCs9PL6mPjoae0_14astraweave_ecs10sparse_setNtB2_9SparseSet8entities
FN:117,_RNvMNtCs9PL6mPjoae0_14astraweave_ecs10sparse_setNtB2_9SparseSet8is_empty
FN:146,_RNvXs_NtCs9PL6mPjoae0_14astraweave_ecs10sparse_setNtB4_9SparseSetNtNtCsixiwFwjEgS7_4core7default7Default7default
FNDA:0,_RNCNvMNtCs9PL6mPjoae0_14astraweave_ecs10sparse_setNtB4_9SparseSet6insert0B6_
FNDA:0,_RNvMNtCs9PL6mPjoae0_14astraweave_ecs10sparse_setNtB2_9SparseSet13with_capacity
FNDA:0,_RNvMNtCs9PL6mPjoae0_14astraweave_ecs10sparse_setNtB2_9SparseSet3get
FNDA:0,_RNvMNtCs9PL6mPjoae0_14astraweave_ecs10sparse_setNtB2_9SparseSet3len
FNDA:0,_RNvMNtCs9PL6mPjoae0_14astraweave_ecs10sparse_setNtB2_9SparseSet3new
FNDA:0,_RNvMNtCs9PL6mPjoae0_14astraweave_ecs10sparse_setNtB2_9SparseSet5clear
FNDA:0,_RNvMNtCs9PL6mPjoae0_14astraweave_ecs10sparse_setNtB2_9SparseSet6insert
FNDA:0,_RNvMNtCs9PL6mPjoae0_14astraweave_ecs10sparse_setNtB2_9SparseSet6remove
FNDA:0,_RNvMNtCs9PL6mPjoae0_14astraweave_ecs10sparse_setNtB2_9SparseSet7reserve
FNDA:0,_RNvMNtCs9PL6mPjoae0_14astraweave_ecs10sparse_setNtB2_9SparseSet8capacity
FNDA:0,_RNvMNtCs9PL6mPjoae0_14astraweave_ecs10sparse_setNtB2_9SparseSet8contains
FNDA:0,_RNvMNtCs9PL6mPjoae0_14astraweave_ecs10sparse_setNtB2_9SparseSet8entities
FNDA:0,_RNvMNtCs9PL6mPjoae0_14astraweave_ecs10sparse_setNtB2_9SparseSet8is_empty
FNDA:0,_RNvXs_NtCs9PL6mPjoae0_14astraweave_ecs10sparse_setNtB4_9SparseSetNtNtCsixiwFwjEgS7_4core7default7Default7default
FNF:14
FNH:0
DA:34,0
DA:35,0
DA:36,0
DA:37,0
DA:38,0
DA:39,0
DA:42,0
DA:43,0
DA:44,0
DA:45,0
DA:46,0
DA:47,0
DA:53,0
DA:54,0
DA:57,0
DA:58,0
DA:59,0
DA:62,0
DA:63,0
DA:64,0
DA:67,0
DA:68,0
DA:69,0
DA:71,0
DA:72,0
DA:77,0
DA:78,0
DA:79,0
DA:80,0
DA:83,0
DA:84,0
DA:85,0
DA:91,0
DA:92,0
DA:94,0
DA:97,0
DA:99,0
DA:100,0
DA:101,0
DA:102,0
DA:103,0
DA:104,0
DA:106,0
DA:108,0
DA:109,0
DA:112,0
DA:113,0
DA:114,0
DA:117,0
DA:118,0
DA:119,0
DA:124,0
DA:125,0
DA:126,0
DA:129,0
DA:130,0
DA:131,0
DA:132,0
DA:135,0
DA:136,0
DA:137,0
DA:140,0
DA:141,0
DA:142,0
DA:146,0
DA:147,0
DA:148,0
BRF:0
BRH:0
LF:68
LH:0
end_of_record
SF:C:\Users\pv2br\source\repos\AstraWeave-AI-Native-Gaming-Engine\astraweave-ecs\src\system_param.rs
FN:162,_RNCNvMs0_NtCs9PL6mPjoae0_14astraweave_ecs12system_paramINtB7_6Query2NtNtCse3Y0ahwHT7m_19astraweave_gameplay3ecs12CAttackStateNtB16_7CTargetE3new0B18_
FN:102,_RNvMNtCs9PL6mPjoae0_14astraweave_ecs12system_paramINtB2_5QueryNtNtCse3Y0ahwHT7m_19astraweave_gameplay3ecs14CCraftingQueueE3newB12_
FN:102,_RNvMNtCs9PL6mPjoae0_14astraweave_ecs12system_paramINtB2_5QueryNtNtCse3Y0ahwHT7m_19astraweave_gameplay3ecs9CQuestLogE3newB12_
FN:158,_RNvMs0_NtCs9PL6mPjoae0_14astraweave_ecs12system_paramINtB5_6Query2NtNtCse3Y0ahwHT7m_19astraweave_gameplay3ecs12CAttackStateNtB14_7CTargetE3newB16_
FN:178,_RNvXs1_NtCs9PL6mPjoae0_14astraweave_ecs12system_paramINtB5_6Query2NtNtCse3Y0ahwHT7m_19astraweave_gameplay3ecs12CAttackStateNtB14_7CTargetENtNtNtNtCsixiwFwjEgS7_4core4iter6traits8iterator8Iterator4nextB16_
FN:120,_RNvXs_NtCs9PL6mPjoae0_14astraweave_ecs12system_paramINtB4_5QueryNtNtCse3Y0ahwHT7m_19astraweave_gameplay3ecs14CCraftingQueueENtNtNtNtCsixiwFwjEgS7_4core4iter6traits8iterator8Iterator4nextB14_
FN:120,_RNvXs_NtCs9PL6mPjoae0_14astraweave_ecs12system_paramINtB4_5QueryNtNtCse3Y0ahwHT7m_19astraweave_gameplay3ecs9CQuestLogENtNtNtNtCsixiwFwjEgS7_4core4iter6traits8iterator8Iterator4nextB14_
FNDA:0,_RNCNvMs0_NtCs9PL6mPjoae0_14astraweave_ecs12system_paramINtB7_6Query2NtNtCse3Y0ahwHT7m_19astraweave_gameplay3ecs12CAttackStateNtB16_7CTargetE3new0B18_
FNDA:0,_RNvMNtCs9PL6mPjoae0_14astraweave_ecs12system_paramINtB2_5QueryNtNtCse3Y0ahwHT7m_19astraweave_gameplay3ecs14CCraftingQueueE3newB12_
FNDA:0,_RNvMNtCs9PL6mPjoae0_14astraweave_ecs12system_paramINtB2_5QueryNtNtCse3Y0ahwHT7m_19astraweave_gameplay3ecs9CQuestLogE3newB12_
FNDA:0,_RNvMs0_NtCs9PL6mPjoae0_14astraweave_ecs12system_paramINtB5_6Query2NtNtCse3Y0ahwHT7m_19astraweave_gameplay3ecs12CAttackStateNtB14_7CTargetE3newB16_
FNDA:0,_RNvXs1_NtCs9PL6mPjoae0_14astraweave_ecs12system_paramINtB5_6Query2NtNtCse3Y0ahwHT7m_19astraweave_gameplay3ecs12CAttackStateNtB14_7CTargetENtNtNtNtCsixiwFwjEgS7_4core4iter6traits8iterator8Iterator4nextB16_
FNDA:0,_RNvXs_NtCs9PL6mPjoae0_14astraweave_ecs12system_paramINtB4_5QueryNtNtCse3Y0ahwHT7m_19astraweave_gameplay3ecs14CCraftingQueueENtNtNtNtCsixiwFwjEgS7_4core4iter6traits8iterator8Iterator4nextB14_
FNDA:0,_RNvXs_NtCs9PL6mPjoae0_14astraweave_ecs12system_paramINtB4_5QueryNtNtCse3Y0ahwHT7m_19astraweave_gameplay3ecs9CQuestLogENtNtNtNtCsixiwFwjEgS7_4core4iter6traits8iterator8Iterator4nextB14_
FNF:5
FNH:0
DA:102,0
DA:103,0
DA:104,0
DA:105,0
DA:106,0
DA:107,0
DA:108,0
DA:109,0
DA:110,0
DA:111,0
DA:112,0
DA:113,0
DA:114,0
DA:115,0
DA:120,0
DA:122,0
DA:123,0
DA:124,0
DA:125,0
DA:126,0
DA:127,0
DA:129,0
DA:130,0
DA:131,0
DA:132,0
DA:133,0
DA:135,0
DA:136,0
DA:140,0
DA:141,0
DA:142,0
DA:143,0
DA:145,0
DA:158,0
DA:159,0
DA:160,0
DA:161,0
DA:162,0
DA:163,0
DA:164,0
DA:166,0
DA:167,0
DA:168,0
DA:169,0
DA:170,0
DA:171,0
DA:172,0
DA:173,0
DA:178,0
DA:180,0
DA:181,0
DA:182,0
DA:183,0
DA:184,0
DA:185,0
DA:187,0
DA:188,0
DA:189,0
DA:190,0
DA:191,0
DA:193,0
DA:194,0
DA:199,0
DA:200,0
DA:201,0
DA:202,0
DA:203,0
DA:204,0
DA:206,0
DA:208,0
BRF:0
BRH:0
LF:71
LH:0
end_of_record
SF:C:\Users\pv2br\source\repos\AstraWeave-AI-Native-Gaming-Engine\astraweave-gameplay\src\biome_spawn.rs
FN:15,_RNvNtCse3Y0ahwHT7m_19astraweave_gameplay11biome_spawn15spawn_resources
FNDA:0,_RNvNtCse3Y0ahwHT7m_19astraweave_gameplay11biome_spawn15spawn_resources
FNF:1
FNH:0
DA:15,0
DA:16,0
DA:17,0
DA:18,0
DA:19,0
DA:20,0
DA:21,0
DA:22,0
DA:23,0
DA:24,0
DA:25,0
DA:26,0
DA:27,0
DA:28,0
DA:29,0
DA:30,0
DA:31,0
DA:32,0
DA:33,0
DA:34,0
DA:35,0
DA:37,0
DA:38,0
DA:39,0
DA:41,0
DA:42,0
DA:43,0
DA:44,0
DA:46,0
DA:47,0
DA:48,0
DA:49,0
DA:50,0
DA:51,0
DA:52,0
DA:53,0
DA:55,0
DA:56,0
BRF:0
BRH:0
LF:38
LH:0
end_of_record
SF:C:\Users\pv2br\source\repos\AstraWeave-AI-Native-Gaming-Engine\astraweave-gameplay\src\dialogue.rs
FN:147,_RNCNvNtCse3Y0ahwHT7m_19astraweave_gameplay8dialogue23compile_banter_to_nodes0B5_
FN:56,_RNCNvMNtCse3Y0ahwHT7m_19astraweave_gameplay8dialogueNtB4_13DialogueState3new0B6_
FNDA:0,_RNCNvNtCse3Y0ahwHT7m_19astraweave_gameplay8dialogue23compile_banter_to_nodes0B5_
FNDA:0,_RNCNvMNtCse3Y0ahwHT7m_19astraweave_gameplay8dialogueNtB4_13DialogueState3new0B6_
FNF:2
FNH:0
DA:56,0
DA:147,0
BRF:0
BRH:0
LF:2
LH:0
end_of_record
SF:C:\Users\pv2br\source\repos\AstraWeave-AI-Native-Gaming-Engine\astraweave-gameplay\src\items.rs
FN:38,_RNCNvMNtCse3Y0ahwHT7m_19astraweave_gameplay5itemsNtB4_9Inventory12add_resource0B6_
FN:46,_RNCNvMNtCse3Y0ahwHT7m_19astraweave_gameplay5itemsNtB4_9Inventory15remove_resource0B6_
FN:37,_RNvMNtCse3Y0ahwHT7m_19astraweave_gameplay5itemsNtB2_9Inventory12add_resource
FN:45,_RNvMNtCse3Y0ahwHT7m_19astraweave_gameplay5itemsNtB2_9Inventory15remove_resource
FN:78,_RNvNtCse3Y0ahwHT7m_19astraweave_gameplay5items14load_echo_defs
FN:56,_RNvNtCse3Y0ahwHT7m_19astraweave_gameplay5items6infuse
FNDA:0,_RNCNvMNtCse3Y0ahwHT7m_19astraweave_gameplay5itemsNtB4_9Inventory12add_resource0B6_
FNDA:0,_RNCNvMNtCse3Y0ahwHT7m_19astraweave_gameplay5itemsNtB4_9Inventory15remove_resource0B6_
FNDA:0,_RNvMNtCse3Y0ahwHT7m_19astraweave_gameplay5itemsNtB2_9Inventory12add_resource
FNDA:0,_RNvMNtCse3Y0ahwHT7m_19astraweave_gameplay5itemsNtB2_9Inventory15remove_resource
FNDA:0,_RNvNtCse3Y0ahwHT7m_19astraweave_gameplay5items14load_echo_defs
FNDA:0,_RNvNtCse3Y0ahwHT7m_19astraweave_gameplay5items6infuse
FNF:6
FNH:0
DA:37,0
DA:38,0
DA:39,0
DA:40,0
DA:41,0
DA:42,0
DA:43,0
DA:45,0
DA:46,0
DA:47,0
DA:48,0
DA:49,0
DA:50,0
DA:51,0
DA:52,0
DA:53,0
DA:56,0
DA:57,0
DA:58,0
DA:78,0
DA:83,0
DA:84,0
DA:85,0
BRF:0
BRH:0
LF:25
LH:0
end_of_record
SF:C:\Users\pv2br\source\repos\AstraWeave-AI-Native-Gaming-Engine\astraweave-gameplay\src\stats.rs
FN:42,_RNCNvMNtCse3Y0ahwHT7m_19astraweave_gameplay5statsNtB4_5Stats4tick0B6_
FNDA:0,_RNCNvMNtCse3Y0ahwHT7m_19astraweave_gameplay5statsNtB4_5Stats4tick0B6_
FNF:1
FNH:0
DA:42,0
DA:43,0
DA:44,0
DA:45,0
DA:46,0
DA:48,0
DA:49,0
DA:50,0
DA:52,0
DA:53,0
DA:54,0
DA:56,0
BRF:0
BRH:0
LF:12
LH:0
end_of_record
SF:C:\Users\pv2br\source\repos\AstraWeave-AI-Native-Gaming-Engine\astraweave-materials\src\lib.rs
FN:114,_RNCNvCsbzsTAACN2qo_20astraweave_materials15compile_to_wgsl0B3_
FN:116,_RNCNvCsbzsTAACN2qo_20astraweave_materials15compile_to_wgsls0_0B3_
FN:117,_RNCNvCsbzsTAACN2qo_20astraweave_materials15compile_to_wgsls1_0B3_
FN:118,_RNCNvCsbzsTAACN2qo_20astraweave_materials15compile_to_wgsls2_0B3_
FN:115,_RNCNvCsbzsTAACN2qo_20astraweave_materials15compile_to_wgsls_0B3_
FN:38,_RNCNvNvCsbzsTAACN2qo_20astraweave_materials15compile_to_wgsl7expr_of0B5_
FN:32,_RNvCsbzsTAACN2qo_20astraweave_materials15compile_to_wgsl
FN:265,_RNvMCsbzsTAACN2qo_20astraweave_materialsNtB2_15MaterialPackage10from_graph
FN:33,_RNvNvCsbzsTAACN2qo_20astraweave_materials15compile_to_wgsl7expr_of
FNDA:1,_RNCNvCsbzsTAACN2qo_20astraweave_materials15compile_to_wgsl0B3_
FNDA:1,_RNCNvCsbzsTAACN2qo_20astraweave_materials15compile_to_wgsls0_0B3_
FNDA:1,_RNCNvCsbzsTAACN2qo_20astraweave_materials15compile_to_wgsls1_0B3_
FNDA:1,_RNCNvCsbzsTAACN2qo_20astraweave_materials15compile_to_wgsls2_0B3_
FNDA:1,_RNCNvCsbzsTAACN2qo_20astraweave_materials15compile_to_wgsls_0B3_
FNDA:0,_RNCNvNvCsbzsTAACN2qo_20astraweave_materials15compile_to_wgsl7expr_of0B5_
FNDA:1,_RNvCsbzsTAACN2qo_20astraweave_materials15compile_to_wgsl
FNDA:1,_RNvMCsbzsTAACN2qo_20astraweave_materialsNtB2_15MaterialPackage10from_graph
FNDA:1,_RNvNvCsbzsTAACN2qo_20astraweave_materials15compile_to_wgsl7expr_of
FNF:9
FNH:8
DA:32,1
DA:33,1
DA:34,1
DA:35,1
DA:36,1
DA:37,1
DA:38,1
DA:39,1
DA:40,1
DA:41,1
DA:42,1
DA:44,0
DA:45,0
DA:47,0
DA:48,0
DA:49,0
DA:50,0
DA:51,0
DA:53,0
DA:54,0
DA:55,0
DA:56,0
DA:59,0
DA:60,0
DA:61,0
DA:62,0
DA:63,0
DA:64,0
DA:66,0
DA:67,0
DA:68,0
DA:69,0
DA:71,0
DA:72,0
DA:73,0
DA:74,0
DA:75,0
DA:76,0
DA:81,1
DA:83,1
DA:84,1
DA:85,1
DA:86,0
DA:88,1
DA:90,1
DA:91,0
DA:93,1
DA:95,1
DA:96,0
DA:98,1
DA:100,1
DA:101,0
DA:103,1
DA:105,1
DA:106,0
DA:108,1
DA:113,1
DA:114,1
DA:115,1
DA:116,1
DA:117,1
DA:118,1
DA:120,1
DA:121,1
DA:125,1
DA:126,1
DA:265,1
DA:266,1
DA:267,1
DA:268,1
BRF:0
BRH:0
LF:76
LH:43
end_of_record
SF:C:\Users\pv2br\source\repos\AstraWeave-AI-Native-Gaming-Engine\astraweave-nav\src\lib.rs
FN:133,_RNCNvCsee0SyyZ6UIo_14astraweave_nav11closest_tri0B3_
FN:31,_RNCNvMCsee0SyyZ6UIo_14astraweave_navNtB4_7NavMesh4bake0B4_
FNDA:0,_RNCNvCsee0SyyZ6UIo_14astraweave_nav11closest_tri0B3_
FNDA:0,_RNCNvMCsee0SyyZ6UIo_14astraweave_navNtB4_7NavMesh4bake0B4_
FNF:2
FNH:0
DA:31,0
DA:32,0
DA:35,0
DA:36,0
DA:37,0
DA:41,0
DA:42,0
DA:44,0
DA:45,0
DA:47,0
DA:51,0
DA:53,0
DA:54,0
DA:55,0
DA:56,0
DA:57,0
DA:58,0
DA:59,0
DA:60,0
DA:61,0
DA:62,0
DA:63,0
DA:64,0
DA:133,0
DA:134,0
DA:135,0
DA:136,0
DA:137,0
BRF:0
BRH:0
LF:28
LH:0
end_of_record
SF:C:\Users\pv2br\source\repos\AstraWeave-AI-Native-Gaming-Engine\astraweave-render\src\animation.rs
FN:470,_RNvNtNtCs5u7LM5pVa0o_17astraweave_render9animation5testss_19test_find_keyframes
FN:421,_RNvNtNtCs5u7LM5pVa0o_17astraweave_render9animation5testss_22test_transform_default
FN:576,_RNvNtNtCs5u7LM5pVa0o_17astraweave_render9animation5testss_23test_cpu_skinning_blend
FN:429,_RNvNtNtCs5u7LM5pVa0o_17astraweave_render9animation5testss_24test_transform_to_matrix
FN:593,_RNvNtNtCs5u7LM5pVa0o_17astraweave_render9animation5testss_27test_joint_palette_creation
FN:517,_RNvNtNtCs5u7LM5pVa0o_17astraweave_render9animation5testss_29test_joint_matrices_hierarchy
FN:558,_RNvNtNtCs5u7LM5pVa0o_17astraweave_render9animation5testss_30test_cpu_skinning_single_joint
FN:493,_RNvNtNtCs5u7LM5pVa0o_17astraweave_render9animation5testss_32test_joint_matrices_single_joint
FN:440,_RNvNtNtCs5u7LM5pVa0o_17astraweave_render9animation5testss_35test_animation_state_update_looping
FN:455,_RNvNtNtCs5u7LM5pVa0o_17astraweave_render9animation5testss_36test_animation_state_update_clamping
FN:167,_RNvMs0_NtCs5u7LM5pVa0o_17astraweave_render9animationNtB5_13AnimationClip14find_keyframes
FN:99,_RNvMs0_NtCs5u7LM5pVa0o_17astraweave_render9animationNtB5_13AnimationClip6sample
FN:248,_RNvMs2_NtCs5u7LM5pVa0o_17astraweave_render9animationNtB5_14AnimationState4play
FN:256,_RNvMs2_NtCs5u7LM5pVa0o_17astraweave_render9animationNtB5_14AnimationState4stop
FN:252,_RNvMs2_NtCs5u7LM5pVa0o_17astraweave_render9animationNtB5_14AnimationState5pause
FN:224,_RNvMs2_NtCs5u7LM5pVa0o_17astraweave_render9animationNtB5_14AnimationState6update
FN:261,_RNvMs2_NtCs5u7LM5pVa0o_17astraweave_render9animationNtB5_14AnimationState7restart
FN:359,_RNvMs5_NtCs5u7LM5pVa0o_17astraweave_render9animationNtB5_12JointPalette13from_matrices
FN:47,_RNvMs_NtCs5u7LM5pVa0o_17astraweave_render9animationNtB4_9Transform4lerp
FN:42,_RNvMs_NtCs5u7LM5pVa0o_17astraweave_render9animationNtB4_9Transform9to_matrix
FN:376,_RNvNtCs5u7LM5pVa0o_17astraweave_render9animation15skin_vertex_cpu
FN:272,_RNvNtCs5u7LM5pVa0o_17astraweave_render9animation22compute_joint_matrices
FN:276,_RNvNvNtCs5u7LM5pVa0o_17astraweave_render9animation22compute_joint_matrices17compute_recursive
FN:32,_RNvXNtCs5u7LM5pVa0o_17astraweave_render9animationNtB2_9TransformNtNtCsixiwFwjEgS7_4core7default7Default7default
FN:211,_RNvXs1_NtCs5u7LM5pVa0o_17astraweave_render9animationNtB5_14AnimationStateNtNtCsixiwFwjEgS7_4core7default7Default7default
FN:327,_RNvXs3_NtCs5u7LM5pVa0o_17astraweave_render9animationNtB5_14JointMatrixGPUINtNtCsixiwFwjEgS7_4core7convert4FromNtNtNtNtCsk2xTTmxX1Jo_4glam3f324sse24mat44Mat4E4from
FN:347,_RNvXs4_NtCs5u7LM5pVa0o_17astraweave_render9animationNtB5_12JointPaletteNtNtCsixiwFwjEgS7_4core7default7Default7default
FNDA:1,_RNvNtNtCs5u7LM5pVa0o_17astraweave_render9animation5testss_19test_find_keyframes
FNDA:1,_RNvNtNtCs5u7LM5pVa0o_17astraweave_render9animation5testss_22test_transform_default
FNDA:1,_RNvNtNtCs5u7LM5pVa0o_17astraweave_render9animation5testss_23test_cpu_skinning_blend
FNDA:1,_RNvNtNtCs5u7LM5pVa0o_17astraweave_render9animation5testss_24test_transform_to_matrix
FNDA:1,_RNvNtNtCs5u7LM5pVa0o_17astraweave_render9animation5testss_27test_joint_palette_creation
FNDA:1,_RNvNtNtCs5u7LM5pVa0o_17astraweave_render9animation5testss_29test_joint_matrices_hierarchy
FNDA:1,_RNvNtNtCs5u7LM5pVa0o_17astraweave_render9animation5testss_30test_cpu_skinning_single_joint
FNDA:1,_RNvNtNtCs5u7LM5pVa0o_17astraweave_render9animation5testss_32test_joint_matrices_single_joint
FNDA:1,_RNvNtNtCs5u7LM5pVa0o_17astraweave_render9animation5testss_35test_animation_state_update_looping
FNDA:1,_RNvNtNtCs5u7LM5pVa0o_17astraweave_render9animation5testss_36test_animation_state_update_clamping
FNDA:6,_RNvMs0_NtCs5u7LM5pVa0o_17astraweave_render9animationNtB5_13AnimationClip14find_keyframes
FNDA:5,_RNvMs0_NtCs5u7LM5pVa0o_17astraweave_render9animationNtB5_13AnimationClip6sample
FNDA:1,_RNvMs2_NtCs5u7LM5pVa0o_17astraweave_render9animationNtB5_14AnimationState4play
FNDA:1,_RNvMs2_NtCs5u7LM5pVa0o_17astraweave_render9animationNtB5_14AnimationState4stop
FNDA:1,_RNvMs2_NtCs5u7LM5pVa0o_17astraweave_render9animationNtB5_14AnimationState5pause
FNDA:6,_RNvMs2_NtCs5u7LM5pVa0o_17astraweave_render9animationNtB5_14AnimationState6update
FNDA:1,_RNvMs2_NtCs5u7LM5pVa0o_17astraweave_render9animationNtB5_14AnimationState7restart
FNDA:3,_RNvMs5_NtCs5u7LM5pVa0o_17astraweave_render9animationNtB5_12JointPalette13from_matrices
FNDA:3,_RNvMs_NtCs5u7LM5pVa0o_17astraweave_render9animationNtB4_9Transform4lerp
FNDA:12,_RNvMs_NtCs5u7LM5pVa0o_17astraweave_render9animationNtB4_9Transform9to_matrix
FNDA:6,_RNvNtCs5u7LM5pVa0o_17astraweave_render9animation15skin_vertex_cpu
FNDA:5,_RNvNtCs5u7LM5pVa0o_17astraweave_render9animation22compute_joint_matrices
FNDA:9,_RNvNvNtCs5u7LM5pVa0o_17astraweave_render9animation22compute_joint_matrices17compute_recursive
FNDA:24,_RNvXNtCs5u7LM5pVa0o_17astraweave_render9animationNtB2_9TransformNtNtCsixiwFwjEgS7_4core7default7Default7default
FNDA:8,_RNvXs1_NtCs5u7LM5pVa0o_17astraweave_render9animationNtB5_14AnimationStateNtNtCsixiwFwjEgS7_4core7default7Default7default
FNDA:259,_RNvXs3_NtCs5u7LM5pVa0o_17astraweave_render9animationNtB5_14JointMatrixGPUINtNtCsixiwFwjEgS7_4core7convert4FromNtNtNtNtCsk2xTTmxX1Jo_4glam3f324sse24mat44Mat4E4from
FNDA:4,_RNvXs4_NtCs5u7LM5pVa0o_17astraweave_render9animationNtB5_12JointPaletteNtNtCsixiwFwjEgS7_4core7default7Default7default
FNF:27
FNH:27
DA:32,24
DA:33,24
DA:34,24
DA:35,24
DA:36,24
DA:37,24
DA:38,24
DA:42,12
DA:43,12
DA:44,12
DA:47,3
DA:48,3
DA:49,3
DA:50,3
DA:51,3
DA:52,3
DA:53,3
DA:99,5
DA:100,5
DA:103,10
DA:104,5
DA:105,5
DA:108,9
DA:109,4
DA:110,4
DA:111,1
DA:112,3
DA:115,3
DA:118,3
DA:119,1
DA:120,1
DA:121,1
DA:122,1
DA:123,1
DA:124,0
DA:125,0
DA:127,1
DA:128,1
DA:129,1
DA:130,1
DA:132,1
DA:133,1
DA:134,1
DA:135,1
DA:136,0
DA:137,1
DA:138,0
DA:140,1
DA:141,1
DA:142,1
DA:143,1
DA:145,1
DA:146,1
DA:147,1
DA:148,1
DA:149,0
DA:150,1
DA:151,0
DA:153,1
DA:154,1
DA:155,1
DA:156,1
DA:160,3
DA:163,5
DA:164,5
DA:167,6
DA:168,6
DA:169,0
DA:170,6
DA:172,6
DA:173,1
DA:174,5
DA:177,5
DA:178,5
DA:179,1
DA:180,1
DA:181,4
DA:182,0
DA:185,5
DA:186,5
DA:187,4
DA:188,4
DA:189,1
DA:192,0
DA:193,6
DA:211,8
DA:212,8
DA:213,8
DA:214,8
DA:215,8
DA:216,8
DA:217,8
DA:218,8
DA:219,8
DA:224,6
DA:225,6
DA:226,1
DA:227,5
DA:229,5
DA:231,5
DA:233,4
DA:234,2
DA:235,2
DA:236,4
DA:237,1
DA:238,3
DA:241,1
DA:242,1
DA:243,1
DA:244,1
DA:246,6
DA:248,1
DA:249,1
DA:250,1
DA:252,1
DA:253,1
DA:254,1
DA:256,1
DA:257,1
DA:258,1
DA:259,1
DA:261,1
DA:262,1
DA:263,1
DA:264,1
DA:272,5
DA:273,5
DA:276,9
DA:277,9
DA:278,9
DA:279,9
DA:280,9
DA:281,9
DA:282,9
DA:283,9
DA:284,9
DA:285,9
DA:288,19
DA:289,19
DA:290,3
DA:291,16
DA:293,9
DA:296,11
DA:297,6
DA:298,6
DA:299,6
DA:300,6
DA:301,6
DA:302,6
DA:303,6
DA:304,6
DA:307,5
DA:308,9
DA:309,9
DA:310,9
DA:312,5
DA:313,5
DA:327,259
DA:328,259
DA:329,259
DA:330,259
DA:331,259
DA:347,4
DA:348,4
DA:349,4
DA:350,4
DA:351,4
DA:352,4
DA:353,4
DA:354,4
DA:355,4
DA:359,3
DA:360,3
DA:361,3
DA:363,258
DA:364,258
DA:365,258
DA:367,3
DA:368,3
DA:376,6
DA:377,6
DA:378,6
DA:379,6
DA:380,6
DA:381,6
DA:382,6
DA:383,6
DA:384,6
DA:386,30
DA:387,24
DA:388,24
DA:389,17
DA:390,7
DA:392,7
DA:393,7
DA:394,1
DA:395,6
DA:397,6
DA:398,6
DA:401,6
DA:402,6
DA:403,6
DA:404,6
DA:406,6
DA:409,6
DA:410,6
DA:421,1
DA:422,1
DA:423,1
DA:424,1
DA:425,1
DA:426,1
DA:429,1
DA:430,1
DA:431,1
DA:432,1
DA:433,1
DA:434,1
DA:435,1
DA:436,1
DA:437,1
DA:440,1
DA:441,1
DA:442,1
DA:443,1
DA:444,1
DA:445,1
DA:446,1
DA:447,1
DA:449,1
DA:450,1
DA:451,1
DA:452,1
DA:455,1
DA:456,1
DA:457,1
DA:458,1
DA:459,1
DA:460,1
DA:461,1
DA:462,1
DA:464,1
DA:465,1
DA:466,1
DA:467,1
DA:470,1
DA:471,1
DA:474,1
DA:475,1
DA:476,1
DA:477,1
DA:480,1
DA:481,1
DA:482,1
DA:483,1
DA:486,1
DA:487,1
DA:488,1
DA:489,1
DA:490,1
DA:493,1
DA:494,1
DA:495,1
DA:496,1
DA:497,1
DA:498,1
DA:499,1
DA:500,1
DA:501,1
DA:502,1
DA:504,1
DA:505,1
DA:506,1
DA:507,1
DA:509,1
DA:510,1
DA:513,1
DA:514,1
DA:517,1
DA:518,1
DA:519,1
DA:520,1
DA:521,1
DA:522,1
DA:523,1
DA:524,1
DA:525,1
DA:526,1
DA:527,1
DA:528,1
DA:529,1
DA:530,1
DA:531,1
DA:532,1
DA:533,1
DA:534,1
DA:536,1
DA:537,1
DA:538,1
DA:539,1
DA:540,1
DA:541,1
DA:542,1
DA:543,1
DA:544,1
DA:547,1
DA:548,1
DA:551,1
DA:554,1
DA:555,1
DA:558,1
DA:559,1
DA:560,1
DA:561,1
DA:562,1
DA:565,1
DA:566,1
DA:568,1
DA:569,1
DA:571,1
DA:572,1
DA:573,1
DA:576,1
DA:577,1
DA:578,1
DA:579,1
DA:580,1
DA:582,1
DA:583,1
DA:584,1
DA:586,1
DA:589,1
DA:590,1
DA:593,1
DA:594,1
DA:595,1
DA:596,1
DA:599,1
DA:600,1
DA:601,1
DA:602,1
DA:603,1
DA:605,1
BRF:0
BRH:0
LF:343
LH:334
end_of_record
SF:C:\Users\pv2br\source\repos\AstraWeave-AI-Native-Gaming-Engine\astraweave-render\src\animation_extra_tests.rs
FN:602,_RNvNtNtCs5u7LM5pVa0o_17astraweave_render21animation_extra_tests21animation_extra_testss_23test_joint_palette_size
FN:33,_RNvNtNtCs5u7LM5pVa0o_17astraweave_render21animation_extra_tests21animation_extra_testss_23test_transform_lerp_one
FN:14,_RNvNtNtCs5u7LM5pVa0o_17astraweave_render21animation_extra_tests21animation_extra_testss_24test_transform_lerp_zero
FN:596,_RNvNtNtCs5u7LM5pVa0o_17astraweave_render21animation_extra_tests21animation_extra_testss_26test_joint_matrix_gpu_size
FN:554,_RNvNtNtCs5u7LM5pVa0o_17astraweave_render21animation_extra_tests21animation_extra_testss_26test_joint_palette_default
FN:191,_RNvNtNtCs5u7LM5pVa0o_17astraweave_render21animation_extra_tests21animation_extra_testss_28test_animation_state_restart
FN:55,_RNvNtNtCs5u7LM5pVa0o_17astraweave_render21animation_extra_tests21animation_extra_testss_28test_transform_lerp_midpoint
FN:480,_RNvNtNtCs5u7LM5pVa0o_17astraweave_render21animation_extra_tests21animation_extra_testss_30test_cpu_skinning_zero_weights
FN:514,_RNvNtNtCs5u7LM5pVa0o_17astraweave_render21animation_extra_tests21animation_extra_testss_33test_cpu_skinning_partial_weights
FN:332,_RNvNtNtCs5u7LM5pVa0o_17astraweave_render21animation_extra_tests21animation_extra_testss_35test_animation_sample_scale_channel
FN:91,_RNvNtNtCs5u7LM5pVa0o_17astraweave_render21animation_extra_tests21animation_extra_testss_35test_transform_to_matrix_with_scale
FN:210,_RNvNtNtCs5u7LM5pVa0o_17astraweave_render21animation_extra_tests21animation_extra_testss_36test_animation_sample_empty_channels
FN:173,_RNvNtNtCs5u7LM5pVa0o_17astraweave_render21animation_extra_tests21animation_extra_testss_36test_animation_state_play_pause_stop
FN:583,_RNvNtNtCs5u7LM5pVa0o_17astraweave_render21animation_extra_tests21animation_extra_testss_36test_joint_palette_matrix_conversion
FN:497,_RNvNtNtCs5u7LM5pVa0o_17astraweave_render21animation_extra_tests21animation_extra_testss_37test_cpu_skinning_invalid_joint_index
FN:298,_RNvNtNtCs5u7LM5pVa0o_17astraweave_render21animation_extra_tests21animation_extra_testss_38test_animation_sample_rotation_channel
FN:157,_RNvNtNtCs5u7LM5pVa0o_17astraweave_render21animation_extra_tests21animation_extra_testss_38test_animation_state_update_speed_zero
FN:562,_RNvNtNtCs5u7LM5pVa0o_17astraweave_render21animation_extra_tests21animation_extra_testss_38test_joint_palette_from_matrices_empty
FN:73,_RNvNtNtCs5u7LM5pVa0o_17astraweave_render21animation_extra_tests21animation_extra_testss_38test_transform_to_matrix_with_rotation
FN:110,_RNvNtNtCs5u7LM5pVa0o_17astraweave_render21animation_extra_tests21animation_extra_testss_39test_animation_state_update_not_playing
FN:531,_RNvNtNtCs5u7LM5pVa0o_17astraweave_render21animation_extra_tests21animation_extra_testss_39test_cpu_skinning_normal_transformation
FN:267,_RNvNtNtCs5u7LM5pVa0o_17astraweave_render21animation_extra_tests21animation_extra_testss_40test_animation_sample_step_interpolation
FN:237,_RNvNtNtCs5u7LM5pVa0o_17astraweave_render21animation_extra_tests21animation_extra_testss_41test_animation_sample_invalid_joint_index
FN:142,_RNvNtNtCs5u7LM5pVa0o_17astraweave_render21animation_extra_tests21animation_extra_testss_42test_animation_state_update_multiple_wraps
FN:403,_RNvNtNtCs5u7LM5pVa0o_17astraweave_render21animation_extra_tests21animation_extra_testss_42test_compute_joint_matrices_deep_hierarchy
FN:365,_RNvNtNtCs5u7LM5pVa0o_17astraweave_render21animation_extra_tests21animation_extra_testss_42test_compute_joint_matrices_multiple_roots
FN:452,_RNvNtNtCs5u7LM5pVa0o_17astraweave_render21animation_extra_tests21animation_extra_testss_45test_compute_joint_matrices_with_inverse_bind
FN:570,_RNvNtNtCs5u7LM5pVa0o_17astraweave_render21animation_extra_tests21animation_extra_testss_45test_joint_palette_from_matrices_max_overflow
FN:126,_RNvNtNtCs5u7LM5pVa0o_17astraweave_render21animation_extra_tests21animation_extra_testss_49test_animation_state_update_negative_time_looping
FN:573,_RNCNvNtNtCs5u7LM5pVa0o_17astraweave_render21animation_extra_tests21animation_extra_testss_45test_joint_palette_from_matrices_max_overflow0B7_
FNDA:1,_RNvNtNtCs5u7LM5pVa0o_17astraweave_render21animation_extra_tests21animation_extra_testss_23test_joint_palette_size
FNDA:1,_RNvNtNtCs5u7LM5pVa0o_17astraweave_render21animation_extra_tests21animation_extra_testss_23test_transform_lerp_one
FNDA:1,_RNvNtNtCs5u7LM5pVa0o_17astraweave_render21animation_extra_tests21animation_extra_testss_24test_transform_lerp_zero
FNDA:1,_RNvNtNtCs5u7LM5pVa0o_17astraweave_render21animation_extra_tests21animation_extra_testss_26test_joint_matrix_gpu_size
FNDA:1,_RNvNtNtCs5u7LM5pVa0o_17astraweave_render21animation_extra_tests21animation_extra_testss_26test_joint_palette_default
FNDA:1,_RNvNtNtCs5u7LM5pVa0o_17astraweave_render21animation_extra_tests21animation_extra_testss_28test_animation_state_restart
FNDA:1,_RNvNtNtCs5u7LM5pVa0o_17astraweave_render21animation_extra_tests21animation_extra_testss_28test_transform_lerp_midpoint
FNDA:1,_RNvNtNtCs5u7LM5pVa0o_17astraweave_render21animation_extra_tests21animation_extra_testss_30test_cpu_skinning_zero_weights
FNDA:1,_RNvNtNtCs5u7LM5pVa0o_17astraweave_render21animation_extra_tests21animation_extra_testss_33test_cpu_skinning_partial_weights
FNDA:1,_RNvNtNtCs5u7LM5pVa0o_17astraweave_render21animation_extra_tests21animation_extra_testss_35test_animation_sample_scale_channel
FNDA:1,_RNvNtNtCs5u7LM5pVa0o_17astraweave_render21animation_extra_tests21animation_extra_testss_35test_transform_to_matrix_with_scale
FNDA:1,_RNvNtNtCs5u7LM5pVa0o_17astraweave_render21animation_extra_tests21animation_extra_testss_36test_animation_sample_empty_channels
FNDA:1,_RNvNtNtCs5u7LM5pVa0o_17astraweave_render21animation_extra_tests21animation_extra_testss_36test_animation_state_play_pause_stop
FNDA:1,_RNvNtNtCs5u7LM5pVa0o_17astraweave_render21animation_extra_tests21animation_extra_testss_36test_joint_palette_matrix_conversion
FNDA:1,_RNvNtNtCs5u7LM5pVa0o_17astraweave_render21animation_extra_tests21animation_extra_testss_37test_cpu_skinning_invalid_joint_index
FNDA:1,_RNvNtNtCs5u7LM5pVa0o_17astraweave_render21animation_extra_tests21animation_extra_testss_38test_animation_sample_rotation_channel
FNDA:1,_RNvNtNtCs5u7LM5pVa0o_17astraweave_render21animation_extra_tests21animation_extra_testss_38test_animation_state_update_speed_zero
FNDA:1,_RNvNtNtCs5u7LM5pVa0o_17astraweave_render21animation_extra_tests21animation_extra_testss_38test_joint_palette_from_matrices_empty
FNDA:1,_RNvNtNtCs5u7LM5pVa0o_17astraweave_render21animation_extra_tests21animation_extra_testss_38test_transform_to_matrix_with_rotation
FNDA:1,_RNvNtNtCs5u7LM5pVa0o_17astraweave_render21animation_extra_tests21animation_extra_testss_39test_animation_state_update_not_playing
FNDA:1,_RNvNtNtCs5u7LM5pVa0o_17astraweave_render21animation_extra_tests21animation_extra_testss_39test_cpu_skinning_normal_transformation
FNDA:1,_RNvNtNtCs5u7LM5pVa0o_17astraweave_render21animation_extra_tests21animation_extra_testss_40test_animation_sample_step_interpolation
FNDA:1,_RNvNtNtCs5u7LM5pVa0o_17astraweave_render21animation_extra_tests21animation_extra_testss_41test_animation_sample_invalid_joint_index
FNDA:1,_RNvNtNtCs5u7LM5pVa0o_17astraweave_render21animation_extra_tests21animation_extra_testss_42test_animation_state_update_multiple_wraps
FNDA:1,_RNvNtNtCs5u7LM5pVa0o_17astraweave_render21animation_extra_tests21animation_extra_testss_42test_compute_joint_matrices_deep_hierarchy
FNDA:1,_RNvNtNtCs5u7LM5pVa0o_17astraweave_render21animation_extra_tests21animation_extra_testss_42test_compute_joint_matrices_multiple_roots
FNDA:1,_RNvNtNtCs5u7LM5pVa0o_17astraweave_render21animation_extra_tests21animation_extra_testss_45test_compute_joint_matrices_with_inverse_bind
FNDA:1,_RNvNtNtCs5u7LM5pVa0o_17astraweave_render21animation_extra_tests21animation_extra_testss_45test_joint_palette_from_matrices_max_overflow
FNDA:1,_RNvNtNtCs5u7LM5pVa0o_17astraweave_render21animation_extra_tests21animation_extra_testss_49test_animation_state_update_negative_time_looping
FNDA:300,_RNCNvNtNtCs5u7LM5pVa0o_17astraweave_render21animation_extra_tests21animation_extra_testss_45test_joint_palette_from_matrices_max_overflow0B7_
FNF:30
FNH:30
DA:14,1
DA:15,1
DA:16,1
DA:17,1
DA:18,1
DA:19,1
DA:20,1
DA:21,1
DA:22,1
DA:23,1
DA:24,1
DA:26,1
DA:27,1
DA:28,1
DA:29,1
DA:30,1
DA:33,1
DA:34,1
DA:35,1
DA:36,1
DA:37,1
DA:38,1
DA:39,1
DA:40,1
DA:41,1
DA:42,1
DA:43,1
DA:45,1
DA:46,1
DA:47,1
DA:50,1
DA:51,1
DA:52,1
DA:55,1
DA:56,1
DA:57,1
DA:58,1
DA:59,1
DA:60,1
DA:61,1
DA:62,1
DA:63,1
DA:64,1
DA:65,1
DA:67,1
DA:68,1
DA:69,1
DA:70,1
DA:73,1
DA:74,1
DA:75,1
DA:76,1
DA:77,1
DA:78,1
DA:79,1
DA:81,1
DA:84,1
DA:85,1
DA:86,1
DA:87,1
DA:88,1
DA:91,1
DA:92,1
DA:93,1
DA:94,1
DA:95,1
DA:96,1
DA:98,1
DA:99,1
DA:100,1
DA:102,1
DA:103,1
DA:110,1
DA:111,1
DA:112,1
DA:113,1
DA:114,1
DA:115,1
DA:116,1
DA:117,1
DA:119,1
DA:122,1
DA:123,1
DA:126,1
DA:127,1
DA:128,1
DA:129,1
DA:130,1
DA:131,1
DA:132,1
DA:133,1
DA:135,1
DA:138,1
DA:139,1
DA:142,1
DA:143,1
DA:144,1
DA:145,1
DA:146,1
DA:147,1
DA:148,1
DA:149,1
DA:151,1
DA:153,1
DA:154,1
DA:157,1
DA:158,1
DA:159,1
DA:160,1
DA:161,1
DA:162,1
DA:163,1
DA:164,1
DA:166,1
DA:169,1
DA:170,1
DA:173,1
DA:174,1
DA:176,1
DA:178,1
DA:179,1
DA:181,1
DA:182,1
DA:184,1
DA:185,1
DA:186,1
DA:187,1
DA:188,1
DA:191,1
DA:192,1
DA:193,1
DA:194,1
DA:195,1
DA:196,1
DA:198,1
DA:200,1
DA:201,1
DA:202,1
DA:210,1
DA:211,1
DA:212,1
DA:213,1
DA:214,1
DA:215,1
DA:216,1
DA:217,1
DA:218,1
DA:219,1
DA:221,1
DA:222,1
DA:223,1
DA:224,1
DA:225,1
DA:227,1
DA:230,1
DA:231,1
DA:232,1
DA:233,1
DA:234,1
DA:237,1
DA:238,1
DA:239,1
DA:240,1
DA:241,1
DA:242,1
DA:243,1
DA:244,1
DA:245,1
DA:246,1
DA:248,1
DA:249,1
DA:250,1
DA:251,1
DA:252,1
DA:253,1
DA:254,1
DA:255,1
DA:256,1
DA:257,1
DA:259,1
DA:262,1
DA:263,1
DA:264,1
DA:267,1
DA:268,1
DA:269,1
DA:270,1
DA:271,1
DA:272,1
DA:273,1
DA:274,1
DA:275,1
DA:276,1
DA:278,1
DA:279,1
DA:280,1
DA:281,1
DA:282,1
DA:283,1
DA:284,1
DA:285,1
DA:286,1
DA:287,1
DA:288,1
DA:289,1
DA:290,1
DA:293,1
DA:294,1
DA:295,1
DA:298,1
DA:299,1
DA:300,1
DA:301,1
DA:302,1
DA:303,1
DA:304,1
DA:305,1
DA:306,1
DA:307,1
DA:309,1
DA:310,1
DA:312,1
DA:313,1
DA:314,1
DA:315,1
DA:316,1
DA:317,1
DA:318,1
DA:319,1
DA:320,1
DA:321,1
DA:323,1
DA:327,1
DA:328,1
DA:329,1
DA:332,1
DA:333,1
DA:334,1
DA:335,1
DA:336,1
DA:337,1
DA:338,1
DA:339,1
DA:340,1
DA:341,1
DA:343,1
DA:344,1
DA:345,1
DA:346,1
DA:347,1
DA:348,1
DA:349,1
DA:350,1
DA:351,1
DA:352,1
DA:354,1
DA:357,1
DA:358,1
DA:365,1
DA:366,1
DA:367,1
DA:368,1
DA:369,1
DA:370,1
DA:371,1
DA:372,1
DA:373,1
DA:374,1
DA:375,1
DA:376,1
DA:377,1
DA:378,1
DA:379,1
DA:380,1
DA:381,1
DA:382,1
DA:384,1
DA:385,1
DA:386,1
DA:387,1
DA:388,1
DA:389,1
DA:390,1
DA:391,1
DA:392,1
DA:395,1
DA:397,1
DA:398,1
DA:399,1
DA:400,1
DA:403,1
DA:404,1
DA:405,1
DA:406,1
DA:407,1
DA:408,1
DA:409,1
DA:410,1
DA:411,1
DA:412,1
DA:413,1
DA:414,1
DA:415,1
DA:416,1
DA:417,1
DA:418,1
DA:419,1
DA:420,1
DA:421,1
DA:422,1
DA:423,1
DA:424,1
DA:425,1
DA:426,1
DA:428,1
DA:429,1
DA:430,1
DA:431,1
DA:432,1
DA:433,1
DA:434,1
DA:435,1
DA:436,1
DA:437,1
DA:438,1
DA:439,1
DA:440,1
DA:443,1
DA:446,1
DA:447,1
DA:448,1
DA:449,1
DA:452,1
DA:453,1
DA:454,1
DA:455,1
DA:456,1
DA:457,1
DA:458,1
DA:459,1
DA:460,1
DA:461,1
DA:463,1
DA:464,1
DA:465,1
DA:466,1
DA:468,1
DA:472,1
DA:473,1
DA:480,1
DA:481,1
DA:482,1
DA:483,1
DA:484,1
DA:486,1
DA:488,1
DA:489,1
DA:492,1
DA:493,1
DA:494,1
DA:497,1
DA:498,1
DA:499,1
DA:500,1
DA:501,1
DA:503,1
DA:505,1
DA:506,1
DA:509,1
DA:510,1
DA:511,1
DA:514,1
DA:515,1
DA:516,1
DA:517,1
DA:518,1
DA:520,1
DA:521,1
DA:522,1
DA:524,1
DA:527,1
DA:528,1
DA:531,1
DA:532,1
DA:533,1
DA:534,1
DA:535,1
DA:538,1
DA:539,1
DA:540,1
DA:542,1
DA:545,1
DA:546,1
DA:547,1
DA:554,1
DA:555,1
DA:557,1
DA:558,1
DA:559,1
DA:562,1
DA:563,1
DA:564,1
DA:566,1
DA:567,1
DA:570,1
DA:572,1
DA:573,300
DA:574,1
DA:576,1
DA:579,1
DA:580,1
DA:583,1
DA:584,1
DA:585,1
DA:587,1
DA:590,1
DA:591,1
DA:592,1
DA:593,1
DA:596,1
DA:598,1
DA:599,1
DA:602,1
DA:604,1
DA:605,1
BRF:0
BRH:0
LF:426
LH:426
end_of_record
SF:C:\Users\pv2br\source\repos\AstraWeave-AI-Native-Gaming-Engine\astraweave-render\src\camera.rs
FN:367,_RNvNtNtCs5u7LM5pVa0o_17astraweave_render6camera5testss_23test_camera_mode_toggle
FN:393,_RNvNtNtCs5u7LM5pVa0o_17astraweave_render6camera5testss_24test_orbit_mode_behavior
FN:421,_RNvNtNtCs5u7LM5pVa0o_17astraweave_render6camera5testss_27test_mouse_delta_processing
FN:343,_RNvNtNtCs5u7LM5pVa0o_17astraweave_render6camera5testss_30test_camera_zoom_functionality
FN:289,_RNvNtNtCs5u7LM5pVa0o_17astraweave_render6camera5testss_31test_camera_basic_functionality
FN:314,_RNvNtNtCs5u7LM5pVa0o_17astraweave_render6camera5testss_31test_camera_controller_movement
FN:179,_RNvMs_NtCs5u7LM5pVa0o_17astraweave_render6cameraNtB4_16CameraController11begin_frame
FN:104,_RNvMs_NtCs5u7LM5pVa0o_17astraweave_render6cameraNtB4_16CameraController11is_dragging
FN:213,_RNvMs_NtCs5u7LM5pVa0o_17astraweave_render6cameraNtB4_16CameraController16set_orbit_target
FN:139,_RNvMs_NtCs5u7LM5pVa0o_17astraweave_render6cameraNtB4_16CameraController18process_mouse_move
FN:19,_RNvMNtCs5u7LM5pVa0o_17astraweave_render6cameraNtB2_6Camera11proj_matrix
FN:14,_RNvMNtCs5u7LM5pVa0o_17astraweave_render6cameraNtB2_6Camera11view_matrix
FN:23,_RNvMNtCs5u7LM5pVa0o_17astraweave_render6cameraNtB2_6Camera2vp
FN:27,_RNvMNtCs5u7LM5pVa0o_17astraweave_render6cameraNtB2_6Camera3dir
FN:198,_RNvMs_NtCs5u7LM5pVa0o_17astraweave_render6cameraNtB4_16CameraController11toggle_mode
FN:225,_RNvMs_NtCs5u7LM5pVa0o_17astraweave_render6cameraNtB4_16CameraController13update_camera
FN:183,_RNvMs_NtCs5u7LM5pVa0o_17astraweave_render6cameraNtB4_16CameraController14process_scroll
FN:108,_RNvMs_NtCs5u7LM5pVa0o_17astraweave_render6cameraNtB4_16CameraController16process_keyboard
FN:160,_RNvMs_NtCs5u7LM5pVa0o_17astraweave_render6cameraNtB4_16CameraController19process_mouse_delta
FN:130,_RNvMs_NtCs5u7LM5pVa0o_17astraweave_render6cameraNtB4_16CameraController20process_mouse_button
FN:220,_RNvMs_NtCs5u7LM5pVa0o_17astraweave_render6cameraNtB4_16CameraController21update_orbit_position
FN:74,_RNvMs_NtCs5u7LM5pVa0o_17astraweave_render6cameraNtB4_16CameraController3new
FNDA:1,_RNvNtNtCs5u7LM5pVa0o_17astraweave_render6camera5testss_23test_camera_mode_toggle
FNDA:1,_RNvNtNtCs5u7LM5pVa0o_17astraweave_render6camera5testss_24test_orbit_mode_behavior
FNDA:1,_RNvNtNtCs5u7LM5pVa0o_17astraweave_render6camera5testss_27test_mouse_delta_processing
FNDA:1,_RNvNtNtCs5u7LM5pVa0o_17astraweave_render6camera5testss_30test_camera_zoom_functionality
FNDA:1,_RNvNtNtCs5u7LM5pVa0o_17astraweave_render6camera5testss_31test_camera_basic_functionality
FNDA:1,_RNvNtNtCs5u7LM5pVa0o_17astraweave_render6camera5testss_31test_camera_controller_movement
FNDA:0,_RNvMs_NtCs5u7LM5pVa0o_17astraweave_render6cameraNtB4_16CameraController11begin_frame
FNDA:0,_RNvMs_NtCs5u7LM5pVa0o_17astraweave_render6cameraNtB4_16CameraController11is_dragging
FNDA:0,_RNvMs_NtCs5u7LM5pVa0o_17astraweave_render6cameraNtB4_16CameraController16set_orbit_target
FNDA:0,_RNvMs_NtCs5u7LM5pVa0o_17astraweave_render6cameraNtB4_16CameraController18process_mouse_move
FNDA:3,_RNvMNtCs5u7LM5pVa0o_17astraweave_render6cameraNtB2_6Camera11proj_matrix
FNDA:3,_RNvMNtCs5u7LM5pVa0o_17astraweave_render6cameraNtB2_6Camera11view_matrix
FNDA:2,_RNvMNtCs5u7LM5pVa0o_17astraweave_render6cameraNtB2_6Camera2vp
FNDA:15,_RNvMNtCs5u7LM5pVa0o_17astraweave_render6cameraNtB2_6Camera3dir
FNDA:4,_RNvMs_NtCs5u7LM5pVa0o_17astraweave_render6cameraNtB4_16CameraController11toggle_mode
FNDA:5,_RNvMs_NtCs5u7LM5pVa0o_17astraweave_render6cameraNtB4_16CameraController13update_camera
FNDA:3,_RNvMs_NtCs5u7LM5pVa0o_17astraweave_render6cameraNtB4_16CameraController14process_scroll
FNDA:4,_RNvMs_NtCs5u7LM5pVa0o_17astraweave_render6cameraNtB4_16CameraController16process_keyboard
FNDA:3,_RNvMs_NtCs5u7LM5pVa0o_17astraweave_render6cameraNtB4_16CameraController19process_mouse_delta
FNDA:1,_RNvMs_NtCs5u7LM5pVa0o_17astraweave_render6cameraNtB4_16CameraController20process_mouse_button
FNDA:3,_RNvMs_NtCs5u7LM5pVa0o_17astraweave_render6cameraNtB4_16CameraController21update_orbit_position
FNDA:5,_RNvMs_NtCs5u7LM5pVa0o_17astraweave_render6cameraNtB4_16CameraController3new
FNF:22
FNH:18
DA:14,3
DA:15,3
DA:16,3
DA:17,3
DA:19,3
DA:20,3
DA:21,3
DA:23,2
DA:24,2
DA:25,2
DA:27,15
DA:28,15
DA:29,15
DA:30,15
DA:31,15
DA:32,15
DA:33,15
DA:74,5
DA:75,5
DA:76,5
DA:77,5
DA:78,5
DA:79,5
DA:80,5
DA:81,5
DA:82,5
DA:83,5
DA:84,5
DA:85,5
DA:86,5
DA:87,5
DA:88,5
DA:89,5
DA:90,5
DA:91,5
DA:92,5
DA:93,5
DA:94,5
DA:95,5
DA:96,5
DA:97,5
DA:98,5
DA:99,5
DA:100,5
DA:101,5
DA:104,0
DA:105,0
DA:106,0
DA:108,4
DA:109,4
DA:110,4
DA:111,4
DA:112,0
DA:113,0
DA:114,0
DA:116,0
DA:118,0
DA:120,0
DA:121,0
DA:122,0
DA:123,0
DA:124,0
DA:125,0
DA:126,0
DA:128,4
DA:130,1
DA:131,1
DA:132,1
DA:133,1
DA:134,0
DA:135,1
DA:136,0
DA:137,1
DA:139,0
DA:140,0
DA:142,0
DA:143,0
DA:144,0
DA:145,0
DA:146,0
DA:148,0
DA:149,0
DA:150,0
DA:151,0
DA:152,0
DA:153,0
DA:154,0
DA:155,0
DA:156,0
DA:157,0
DA:158,0
DA:160,3
DA:161,3
DA:163,2
DA:164,0
DA:165,2
DA:166,2
DA:167,2
DA:168,0
DA:169,0
DA:170,0
DA:171,2
DA:172,2
DA:173,2
DA:174,2
DA:175,1
DA:176,3
DA:179,0
DA:180,0
DA:181,0
DA:183,3
DA:184,3
DA:185,2
DA:186,2
DA:187,2
DA:188,2
DA:189,2
DA:190,1
DA:191,1
DA:192,1
DA:193,1
DA:194,1
DA:196,3
DA:198,4
DA:199,4
DA:200,3
DA:201,3
DA:202,3
DA:203,3
DA:204,3
DA:205,3
DA:206,1
DA:207,1
DA:208,1
DA:209,1
DA:211,4
DA:213,0
DA:214,0
DA:215,0
DA:216,0
DA:217,0
DA:218,0
DA:220,3
DA:221,3
DA:222,3
DA:223,3
DA:225,5
DA:227,5
DA:228,3
DA:229,3
DA:230,3
DA:231,3
DA:234,5
DA:235,5
DA:236,5
DA:239,5
DA:240,5
DA:241,0
DA:242,5
DA:243,5
DA:244,0
DA:245,5
DA:247,5
DA:249,3
DA:250,3
DA:251,3
DA:253,3
DA:254,3
DA:255,3
DA:256,3
DA:257,3
DA:258,1
DA:259,2
DA:263,2
DA:264,2
DA:265,2
DA:266,2
DA:268,2
DA:269,2
DA:270,2
DA:271,2
DA:273,2
DA:274,1
DA:275,1
DA:278,2
DA:281,5
DA:289,1
DA:290,1
DA:291,1
DA:292,1
DA:293,1
DA:294,1
DA:295,1
DA:296,1
DA:297,1
DA:298,1
DA:301,1
DA:302,1
DA:305,1
DA:306,1
DA:309,1
DA:310,1
DA:311,1
DA:314,1
DA:315,1
DA:316,1
DA:317,1
DA:318,1
DA:319,1
DA:320,1
DA:321,1
DA:322,1
DA:323,1
DA:324,1
DA:327,1
DA:328,1
DA:330,1
DA:331,1
DA:334,1
DA:335,1
DA:336,1
DA:339,1
DA:340,1
DA:343,1
DA:344,1
DA:345,1
DA:346,1
DA:347,1
DA:348,1
DA:349,1
DA:350,1
DA:351,1
DA:352,1
DA:353,1
DA:355,1
DA:358,1
DA:359,1
DA:362,1
DA:363,1
DA:364,1
DA:367,1
DA:368,1
DA:369,1
DA:370,1
DA:371,1
DA:372,1
DA:373,1
DA:374,1
DA:375,1
DA:376,1
DA:377,1
DA:380,1
DA:383,1
DA:384,1
DA:385,1
DA:388,1
DA:389,1
DA:390,1
DA:393,1
DA:394,1
DA:395,1
DA:396,1
DA:397,1
DA:398,1
DA:399,1
DA:400,1
DA:401,1
DA:402,1
DA:403,1
DA:406,1
DA:409,1
DA:410,1
DA:411,1
DA:414,1
DA:415,1
DA:416,1
DA:417,1
DA:418,1
DA:421,1
DA:422,1
DA:423,1
DA:424,1
DA:425,1
DA:426,1
DA:427,1
DA:428,1
DA:429,1
DA:430,1
DA:431,1
DA:434,1
DA:435,1
DA:436,1
DA:438,1
DA:439,1
DA:440,1
DA:443,1
DA:446,1
DA:447,1
DA:448,1
DA:450,1
DA:452,1
DA:454,1
DA:457,1
DA:458,1
DA:459,1
DA:461,1
DA:463,1
DA:464,1
BRF:0
BRH:0
LF:308
LH:258
end_of_record
SF:C:\Users\pv2br\source\repos\AstraWeave-AI-Native-Gaming-Engine\astraweave-render\src\clustered.rs
FN:23,_RNvNtCs5u7LM5pVa0o_17astraweave_render9clustered13cluster_index
FN:34,_RNvNtCs5u7LM5pVa0o_17astraweave_render9clustered14bin_lights_cpu
FN:19,_RNvNtCs5u7LM5pVa0o_17astraweave_render9clustered9clamp_u32
FN:250,_RNCNvNtNtCs5u7LM5pVa0o_17astraweave_render9clustered5testss_38cpu_binning_produces_consistent_counts0B7_
FN:224,_RNCNvNtNtCs5u7LM5pVa0o_17astraweave_render9clustered5testss_16parse_cluster_cs0B7_
FN:288,_RNCNvNtNtCs5u7LM5pVa0o_17astraweave_render9clustered5testss_25cpu_binning_indices_valid0B7_
FN:221,_RNvNtNtCs5u7LM5pVa0o_17astraweave_render9clustered5testss_16parse_cluster_cs
FN:267,_RNvNtNtCs5u7LM5pVa0o_17astraweave_render9clustered5testss_25cpu_binning_indices_valid
FN:228,_RNvNtNtCs5u7LM5pVa0o_17astraweave_render9clustered5testss_38cpu_binning_produces_consistent_counts
FNDA:758,_RNvNtCs5u7LM5pVa0o_17astraweave_render9clustered13cluster_index
FNDA:2,_RNvNtCs5u7LM5pVa0o_17astraweave_render9clustered14bin_lights_cpu
FNDA:528,_RNvNtCs5u7LM5pVa0o_17astraweave_render9clustered9clamp_u32
FNDA:256,_RNCNvNtNtCs5u7LM5pVa0o_17astraweave_render9clustered5testss_38cpu_binning_produces_consistent_counts0B7_
FNDA:1,_RNCNvNtNtCs5u7LM5pVa0o_17astraweave_render9clustered5testss_16parse_cluster_cs0B7_
FNDA:64,_RNCNvNtNtCs5u7LM5pVa0o_17astraweave_render9clustered5testss_25cpu_binning_indices_valid0B7_
FNDA:1,_RNvNtNtCs5u7LM5pVa0o_17astraweave_render9clustered5testss_16parse_cluster_cs
FNDA:1,_RNvNtNtCs5u7LM5pVa0o_17astraweave_render9clustered5testss_25cpu_binning_indices_valid
FNDA:1,_RNvNtNtCs5u7LM5pVa0o_17astraweave_render9clustered5testss_38cpu_binning_produces_consistent_counts
FNF:9
FNH:9
DA:19,528
DA:20,528
DA:21,528
DA:23,758
DA:24,758
DA:25,758
DA:34,2
DA:35,2
DA:36,2
DA:37,2
DA:38,2
DA:39,2
DA:40,2
DA:41,2
DA:42,2
DA:43,2
DA:44,2
DA:45,2
DA:46,2
DA:47,2
DA:49,2
DA:50,2
DA:53,66
DA:54,66
DA:55,66
DA:56,0
DA:57,66
DA:59,66
DA:60,66
DA:62,66
DA:63,66
DA:65,66
DA:66,66
DA:67,66
DA:68,66
DA:69,66
DA:70,66
DA:71,66
DA:72,66
DA:73,66
DA:74,66
DA:76,66
DA:77,66
DA:78,66
DA:79,0
DA:80,66
DA:81,66
DA:82,66
DA:83,66
DA:84,66
DA:85,66
DA:86,66
DA:87,82
DA:88,135
DA:89,251
DA:90,251
DA:91,251
DA:92,251
DA:98,2
DA:99,320
DA:100,320
DA:101,320
DA:104,2
DA:105,2
DA:106,2
DA:107,66
DA:108,66
DA:109,66
DA:110,0
DA:111,66
DA:112,66
DA:113,66
DA:114,66
DA:115,66
DA:116,66
DA:117,66
DA:118,66
DA:119,66
DA:120,66
DA:121,66
DA:122,66
DA:123,66
DA:124,66
DA:125,66
DA:126,66
DA:127,66
DA:128,66
DA:129,0
DA:130,66
DA:131,66
DA:132,66
DA:133,66
DA:134,66
DA:135,66
DA:136,66
DA:137,82
DA:138,135
DA:139,251
DA:140,251
DA:141,251
DA:142,251
DA:143,251
DA:144,251
DA:149,2
DA:150,2
DA:221,1
DA:222,1
DA:223,1
DA:224,1
DA:225,1
DA:228,1
DA:229,1
DA:230,1
DA:231,1
DA:232,1
DA:233,1
DA:234,1
DA:235,1
DA:236,65
DA:237,64
DA:238,64
DA:239,64
DA:240,64
DA:241,64
DA:242,64
DA:243,64
DA:244,64
DA:245,64
DA:246,1
DA:248,1
DA:249,1
DA:250,256
DA:251,1
DA:254,1
DA:255,8
DA:256,32
DA:257,256
DA:258,256
DA:259,256
DA:260,256
DA:263,1
DA:264,1
DA:267,1
DA:268,1
DA:269,1
DA:270,1
DA:271,1
DA:272,1
DA:273,1
DA:274,1
DA:275,1
DA:276,1
DA:277,1
DA:279,1
DA:280,1
DA:281,1
DA:282,1
DA:283,1
DA:284,1
DA:285,1
DA:286,1
DA:288,64
DA:289,1
DA:291,11
DA:292,10
DA:295,64
DA:296,64
DA:298,1
BRF:0
BRH:0
LF:171
LH:167
end_of_record
SF:C:\Users\pv2br\source\repos\AstraWeave-AI-Native-Gaming-Engine\astraweave-render\src\clustered_forward.rs
FN:449,_RNvNtNtCs5u7LM5pVa0o_17astraweave_render17clustered_forward5testss_23test_gpu_light_creation
FN:441,_RNvNtNtCs5u7LM5pVa0o_17astraweave_render17clustered_forward5testss_27test_cluster_config_default
FN:48,_RNvMs_NtCs5u7LM5pVa0o_17astraweave_render17clustered_forwardNtB4_8GpuLight3new
FN:25,_RNvXNtCs5u7LM5pVa0o_17astraweave_render17clustered_forwardNtB2_13ClusterConfigNtNtCsixiwFwjEgS7_4core7default7Default7default
FN:329,_RNvMs0_NtCs5u7LM5pVa0o_17astraweave_render17clustered_forwardNtB5_24ClusteredForwardRenderer10bind_group
FN:339,_RNvMs0_NtCs5u7LM5pVa0o_17astraweave_render17clustered_forwardNtB5_24ClusteredForwardRenderer11light_count
FN:288,_RNvMs0_NtCs5u7LM5pVa0o_17astraweave_render17clustered_forwardNtB5_24ClusteredForwardRenderer13cluster_index
FN:207,_RNvMs0_NtCs5u7LM5pVa0o_17astraweave_render17clustered_forwardNtB5_24ClusteredForwardRenderer13update_lights
FN:212,_RNvMs0_NtCs5u7LM5pVa0o_17astraweave_render17clustered_forwardNtB5_24ClusteredForwardRenderer14build_clusters
FN:324,_RNvMs0_NtCs5u7LM5pVa0o_17astraweave_render17clustered_forwardNtB5_24ClusteredForwardRenderer17bind_group_layout
FN:293,_RNvMs0_NtCs5u7LM5pVa0o_17astraweave_render17clustered_forwardNtB5_24ClusteredForwardRenderer24light_intersects_cluster
FN:97,_RNvMs0_NtCs5u7LM5pVa0o_17astraweave_render17clustered_forwardNtB5_24ClusteredForwardRenderer3new
FN:334,_RNvMs0_NtCs5u7LM5pVa0o_17astraweave_render17clustered_forwardNtB5_24ClusteredForwardRenderer6config
FNDA:1,_RNvNtNtCs5u7LM5pVa0o_17astraweave_render17clustered_forward5testss_23test_gpu_light_creation
FNDA:1,_RNvNtNtCs5u7LM5pVa0o_17astraweave_render17clustered_forward5testss_27test_cluster_config_default
FNDA:3,_RNvMs_NtCs5u7LM5pVa0o_17astraweave_render17clustered_forwardNtB4_8GpuLight3new
FNDA:2,_RNvXNtCs5u7LM5pVa0o_17astraweave_render17clustered_forwardNtB2_13ClusterConfigNtNtCsixiwFwjEgS7_4core7default7Default7default
FNDA:0,_RNvMs0_NtCs5u7LM5pVa0o_17astraweave_render17clustered_forwardNtB5_24ClusteredForwardRenderer10bind_group
FNDA:0,_RNvMs0_NtCs5u7LM5pVa0o_17astraweave_render17clustered_forwardNtB5_24ClusteredForwardRenderer11light_count
FNDA:0,_RNvMs0_NtCs5u7LM5pVa0o_17astraweave_render17clustered_forwardNtB5_24ClusteredForwardRenderer13cluster_index
FNDA:0,_RNvMs0_NtCs5u7LM5pVa0o_17astraweave_render17clustered_forwardNtB5_24ClusteredForwardRenderer13update_lights
FNDA:0,_RNvMs0_NtCs5u7LM5pVa0o_17astraweave_render17clustered_forwardNtB5_24ClusteredForwardRenderer14build_clusters
FNDA:0,_RNvMs0_NtCs5u7LM5pVa0o_17astraweave_render17clustered_forwardNtB5_24ClusteredForwardRenderer17bind_group_layout
FNDA:0,_RNvMs0_NtCs5u7LM5pVa0o_17astraweave_render17clustered_forwardNtB5_24ClusteredForwardRenderer24light_intersects_cluster
FNDA:0,_RNvMs0_NtCs5u7LM5pVa0o_17astraweave_render17clustered_forwardNtB5_24ClusteredForwardRenderer3new
FNDA:0,_RNvMs0_NtCs5u7LM5pVa0o_17astraweave_render17clustered_forwardNtB5_24ClusteredForwardRenderer6config
FNF:13
FNH:4
DA:25,2
DA:26,2
DA:27,2
DA:28,2
DA:29,2
DA:30,2
DA:31,2
DA:32,2
DA:33,2
DA:48,3
DA:49,3
DA:50,3
DA:51,3
DA:52,3
DA:53,3
DA:97,0
DA:98,0
DA:99,0
DA:100,0
DA:103,0
DA:104,0
DA:105,0
DA:106,0
DA:107,0
DA:108,0
DA:110,0
DA:111,0
DA:112,0
DA:113,0
DA:114,0
DA:115,0
DA:117,0
DA:118,0
DA:119,0
DA:120,0
DA:121,0
DA:122,0
DA:125,0
DA:126,0
DA:127,0
DA:128,0
DA:129,0
DA:130,0
DA:131,0
DA:132,0
DA:133,0
DA:134,0
DA:135,0
DA:136,0
DA:137,0
DA:138,0
DA:139,0
DA:140,0
DA:141,0
DA:142,0
DA:143,0
DA:144,0
DA:145,0
DA:146,0
DA:147,0
DA:148,0
DA:149,0
DA:150,0
DA:151,0
DA:152,0
DA:153,0
DA:154,0
DA:155,0
DA:156,0
DA:157,0
DA:158,0
DA:159,0
DA:160,0
DA:163,0
DA:164,0
DA:165,0
DA:166,0
DA:167,0
DA:168,0
DA:169,0
DA:170,0
DA:171,0
DA:172,0
DA:173,0
DA:174,0
DA:175,0
DA:176,0
DA:177,0
DA:178,0
DA:179,0
DA:180,0
DA:182,0
DA:183,0
DA:184,0
DA:185,0
DA:186,0
DA:187,0
DA:188,0
DA:189,0
DA:190,0
DA:191,0
DA:192,0
DA:193,0
DA:194,0
DA:195,0
DA:196,0
DA:197,0
DA:198,0
DA:199,0
DA:200,0
DA:201,0
DA:202,0
DA:203,0
DA:204,0
DA:207,0
DA:208,0
DA:209,0
DA:212,0
DA:213,0
DA:214,0
DA:215,0
DA:216,0
DA:217,0
DA:218,0
DA:220,0
DA:222,0
DA:223,0
DA:224,0
DA:227,0
DA:228,0
DA:229,0
DA:230,0
DA:233,0
DA:234,0
DA:235,0
DA:236,0
DA:239,0
DA:240,0
DA:241,0
DA:242,0
DA:243,0
DA:245,0
DA:246,0
DA:247,0
DA:248,0
DA:251,0
DA:252,0
DA:253,0
DA:254,0
DA:255,0
DA:257,0
DA:258,0
DA:259,0
DA:260,0
DA:261,0
DA:262,0
DA:263,0
DA:270,0
DA:271,0
DA:272,0
DA:273,0
DA:274,0
DA:276,0
DA:278,0
DA:279,0
DA:280,0
DA:281,0
DA:282,0
DA:283,0
DA:284,0
DA:285,0
DA:288,0
DA:289,0
DA:290,0
DA:293,0
DA:294,0
DA:295,0
DA:296,0
DA:297,0
DA:298,0
DA:300,0
DA:301,0
DA:302,0
DA:303,0
DA:304,0
DA:307,0
DA:308,0
DA:309,0
DA:310,0
DA:311,0
DA:312,0
DA:313,0
DA:314,0
DA:315,0
DA:316,0
DA:319,0
DA:320,0
DA:321,0
DA:324,0
DA:325,0
DA:326,0
DA:329,0
DA:330,0
DA:331,0
DA:334,0
DA:335,0
DA:336,0
DA:339,0
DA:340,0
DA:341,0
DA:441,1
DA:442,1
DA:443,1
DA:444,1
DA:445,1
DA:446,1
DA:449,1
DA:450,1
DA:451,1
DA:453,1
DA:457,1
DA:458,1
DA:459,1
DA:460,1
BRF:0
BRH:0
LF:224
LH:29
end_of_record
SF:C:\Users\pv2br\source\repos\AstraWeave-AI-Native-Gaming-Engine\astraweave-render\src\culling.rs
FN:236,_RNCNvNtCs5u7LM5pVa0o_17astraweave_render7culling16cpu_frustum_cull0B5_
FN:36,_RNvMNtCs5u7LM5pVa0o_17astraweave_render7cullingNtB2_12InstanceAABB14from_transform
FN:26,_RNvMNtCs5u7LM5pVa0o_17astraweave_render7cullingNtB2_12InstanceAABB3new
FN:95,_RNvMs_NtCs5u7LM5pVa0o_17astraweave_render7cullingNtB4_13FrustumPlanes14from_view_proj
FN:111,_RNvMs_NtCs5u7LM5pVa0o_17astraweave_render7cullingNtB4_13FrustumPlanes15normalize_plane
FN:127,_RNvMs_NtCs5u7LM5pVa0o_17astraweave_render7cullingNtB4_13FrustumPlanes9test_aabb
FN:233,_RNvNtCs5u7LM5pVa0o_17astraweave_render7culling16cpu_frustum_cull
FN:263,_RINvNtCs5u7LM5pVa0o_17astraweave_render7culling23batch_visible_instancesppEB4_
FN:277,_RNCINvNtCs5u7LM5pVa0o_17astraweave_render7culling23batch_visible_instancesppE0B6_
FN:250,_RNCNvNtCs5u7LM5pVa0o_17astraweave_render7culling27build_indirect_commands_cpu0B5_
FN:161,_RNvMs0_NtCs5u7LM5pVa0o_17astraweave_render7cullingNtB5_19DrawIndirectCommand3new
FN:195,_RNvMs2_NtCs5u7LM5pVa0o_17astraweave_render7cullingNtB5_7BatchId3new
FN:222,_RNvMs3_NtCs5u7LM5pVa0o_17astraweave_render7cullingNtB5_9DrawBatch12add_instance
FN:226,_RNvMs3_NtCs5u7LM5pVa0o_17astraweave_render7cullingNtB5_9DrawBatch14instance_count
FN:213,_RNvMs3_NtCs5u7LM5pVa0o_17astraweave_render7cullingNtB5_9DrawBatch3new
FN:462,_RNvMs4_NtCs5u7LM5pVa0o_17astraweave_render7cullingNtB5_15CullingPipeline17bind_group_layout
FN:562,_RNvMs4_NtCs5u7LM5pVa0o_17astraweave_render7cullingNtB5_15CullingPipeline18execute_with_clear
FN:467,_RNvMs4_NtCs5u7LM5pVa0o_17astraweave_render7cullingNtB5_15CullingPipeline24create_culling_resources
FN:385,_RNvMs4_NtCs5u7LM5pVa0o_17astraweave_render7cullingNtB5_15CullingPipeline3new
FN:545,_RNvMs4_NtCs5u7LM5pVa0o_17astraweave_render7cullingNtB5_15CullingPipeline7execute
FN:247,_RNvNtCs5u7LM5pVa0o_17astraweave_render7culling27build_indirect_commands_cpu
FN:177,_RNvXs1_NtCs5u7LM5pVa0o_17astraweave_render7cullingNtB5_19DrawIndirectCommandNtNtCsixiwFwjEgS7_4core7default7Default7default
FN:635,_RNvNtNtCs5u7LM5pVa0o_17astraweave_render7culling5testss_16test_cpu_culling
FN:590,_RNvNtNtCs5u7LM5pVa0o_17astraweave_render7culling5testss_23test_frustum_extraction
FN:652,_RNvNtNtCs5u7LM5pVa0o_17astraweave_render7culling5testss_24test_aabb_from_transform
FN:607,_RNvNtNtCs5u7LM5pVa0o_17astraweave_render7culling5testss_24test_aabb_inside_frustum
FN:621,_RNvNtNtCs5u7LM5pVa0o_17astraweave_render7culling5testss_25test_aabb_outside_frustum
FNDA:3,_RNCNvNtCs5u7LM5pVa0o_17astraweave_render7culling16cpu_frustum_cull0B5_
FNDA:1,_RNvMNtCs5u7LM5pVa0o_17astraweave_render7cullingNtB2_12InstanceAABB14from_transform
FNDA:4,_RNvMNtCs5u7LM5pVa0o_17astraweave_render7cullingNtB2_12InstanceAABB3new
FNDA:5,_RNvMs_NtCs5u7LM5pVa0o_17astraweave_render7cullingNtB4_13FrustumPlanes14from_view_proj
FNDA:30,_RNvMs_NtCs5u7LM5pVa0o_17astraweave_render7cullingNtB4_13FrustumPlanes15normalize_plane
FNDA:5,_RNvMs_NtCs5u7LM5pVa0o_17astraweave_render7cullingNtB4_13FrustumPlanes9test_aabb
FNDA:1,_RNvNtCs5u7LM5pVa0o_17astraweave_render7culling16cpu_frustum_cull
FNDA:0,_RINvNtCs5u7LM5pVa0o_17astraweave_render7culling23batch_visible_instancesppEB4_
FNDA:0,_RNCINvNtCs5u7LM5pVa0o_17astraweave_render7culling23batch_visible_instancesppE0B6_
FNDA:0,_RNCNvNtCs5u7LM5pVa0o_17astraweave_render7culling27build_indirect_commands_cpu0B5_
FNDA:0,_RNvMs0_NtCs5u7LM5pVa0o_17astraweave_render7cullingNtB5_19DrawIndirectCommand3new
FNDA:0,_RNvMs2_NtCs5u7LM5pVa0o_17astraweave_render7cullingNtB5_7BatchId3new
FNDA:0,_RNvMs3_NtCs5u7LM5pVa0o_17astraweave_render7cullingNtB5_9DrawBatch12add_instance
FNDA:0,_RNvMs3_NtCs5u7LM5pVa0o_17astraweave_render7cullingNtB5_9DrawBatch14instance_count
FNDA:0,_RNvMs3_NtCs5u7LM5pVa0o_17astraweave_render7cullingNtB5_9DrawBatch3new
FNDA:0,_RNvMs4_NtCs5u7LM5pVa0o_17astraweave_render7cullingNtB5_15CullingPipeline17bind_group_layout
FNDA:0,_RNvMs4_NtCs5u7LM5pVa0o_17astraweave_render7cullingNtB5_15CullingPipeline18execute_with_clear
FNDA:0,_RNvMs4_NtCs5u7LM5pVa0o_17astraweave_render7cullingNtB5_15CullingPipeline24create_culling_resources
FNDA:0,_RNvMs4_NtCs5u7LM5pVa0o_17astraweave_render7cullingNtB5_15CullingPipeline3new
FNDA:0,_RNvMs4_NtCs5u7LM5pVa0o_17astraweave_render7cullingNtB5_15CullingPipeline7execute
FNDA:0,_RNvNtCs5u7LM5pVa0o_17astraweave_render7culling27build_indirect_commands_cpu
FNDA:0,_RNvXs1_NtCs5u7LM5pVa0o_17astraweave_render7cullingNtB5_19DrawIndirectCommandNtNtCsixiwFwjEgS7_4core7default7Default7default
FNDA:1,_RNvNtNtCs5u7LM5pVa0o_17astraweave_render7culling5testss_16test_cpu_culling
FNDA:1,_RNvNtNtCs5u7LM5pVa0o_17astraweave_render7culling5testss_23test_frustum_extraction
FNDA:1,_RNvNtNtCs5u7LM5pVa0o_17astraweave_render7culling5testss_24test_aabb_from_transform
FNDA:1,_RNvNtNtCs5u7LM5pVa0o_17astraweave_render7culling5testss_24test_aabb_inside_frustum
FNDA:1,_RNvNtNtCs5u7LM5pVa0o_17astraweave_render7culling5testss_25test_aabb_outside_frustum
FNF:27
FNH:12
DA:26,4
DA:27,4
DA:28,4
DA:29,4
DA:30,4
DA:31,4
DA:32,4
DA:33,4
DA:36,1
DA:37,1
DA:38,1
DA:39,1
DA:40,1
DA:41,1
DA:42,1
DA:43,1
DA:46,1
DA:50,1
DA:51,1
DA:52,1
DA:53,1
DA:54,1
DA:55,1
DA:56,1
DA:57,1
DA:58,1
DA:59,1
DA:61,1
DA:62,1
DA:64,9
DA:65,8
DA:66,8
DA:67,8
DA:68,8
DA:69,8
DA:71,1
DA:73,1
DA:74,1
DA:75,1
DA:76,1
DA:77,1
DA:78,1
DA:79,1
DA:95,5
DA:96,5
DA:99,5
DA:100,5
DA:101,5
DA:102,5
DA:103,5
DA:104,5
DA:106,5
DA:107,5
DA:108,5
DA:109,5
DA:111,30
DA:112,30
DA:113,30
DA:114,30
DA:115,30
DA:116,30
DA:117,30
DA:118,30
DA:119,30
DA:121,0
DA:123,30
DA:127,5
DA:128,25
DA:129,22
DA:130,22
DA:133,22
DA:136,22
DA:137,22
DA:138,22
DA:141,22
DA:142,2
DA:143,20
DA:145,3
DA:146,5
DA:161,0
DA:162,0
DA:163,0
DA:164,0
DA:165,0
DA:166,0
DA:167,0
DA:168,0
DA:169,0
DA:170,0
DA:171,0
DA:172,0
DA:173,0
DA:177,0
DA:178,0
DA:179,0
DA:180,0
DA:181,0
DA:182,0
DA:183,0
DA:184,0
DA:195,0
DA:196,0
DA:197,0
DA:198,0
DA:199,0
DA:200,0
DA:213,0
DA:214,0
DA:215,0
DA:216,0
DA:217,0
DA:218,0
DA:219,0
DA:220,0
DA:222,0
DA:223,0
DA:224,0
DA:226,0
DA:227,0
DA:228,0
DA:233,1
DA:234,1
DA:235,1
DA:236,3
DA:237,3
DA:238,3
DA:239,3
DA:240,3
DA:241,1
DA:242,1
DA:243,1
DA:247,0
DA:248,0
DA:249,0
DA:250,0
DA:251,0
DA:252,0
DA:253,0
DA:254,0
DA:257,0
DA:258,0
DA:259,0
DA:263,0
DA:264,0
DA:265,0
DA:266,0
DA:267,0
DA:270,0
DA:272,0
DA:273,0
DA:275,0
DA:276,0
DA:277,0
DA:278,0
DA:279,0
DA:280,0
DA:281,0
DA:284,0
DA:285,0
DA:385,0
DA:386,0
DA:387,0
DA:388,0
DA:389,0
DA:391,0
DA:392,0
DA:393,0
DA:394,0
DA:395,0
DA:396,0
DA:397,0
DA:398,0
DA:399,0
DA:400,0
DA:401,0
DA:402,0
DA:403,0
DA:404,0
DA:405,0
DA:406,0
DA:407,0
DA:408,0
DA:409,0
DA:410,0
DA:411,0
DA:412,0
DA:413,0
DA:414,0
DA:415,0
DA:416,0
DA:417,0
DA:418,0
DA:419,0
DA:420,0
DA:421,0
DA:422,0
DA:423,0
DA:424,0
DA:425,0
DA:426,0
DA:427,0
DA:428,0
DA:429,0
DA:430,0
DA:431,0
DA:432,0
DA:433,0
DA:434,0
DA:435,0
DA:436,0
DA:437,0
DA:438,0
DA:439,0
DA:441,0
DA:442,0
DA:443,0
DA:444,0
DA:445,0
DA:447,0
DA:448,0
DA:449,0
DA:450,0
DA:451,0
DA:452,0
DA:453,0
DA:454,0
DA:456,0
DA:457,0
DA:458,0
DA:459,0
DA:460,0
DA:462,0
DA:463,0
DA:464,0
DA:467,0
DA:468,0
DA:469,0
DA:470,0
DA:471,0
DA:472,0
DA:474,0
DA:475,0
DA:477,0
DA:480,0
DA:481,0
DA:482,0
DA:483,0
DA:484,0
DA:486,0
DA:487,0
DA:488,0
DA:489,0
DA:490,0
DA:493,0
DA:494,0
DA:495,0
DA:496,0
DA:497,0
DA:498,0
DA:499,0
DA:502,0
DA:503,0
DA:504,0
DA:505,0
DA:506,0
DA:507,0
DA:508,0
DA:509,0
DA:511,0
DA:512,0
DA:513,0
DA:514,0
DA:515,0
DA:516,0
DA:517,0
DA:518,0
DA:519,0
DA:520,0
DA:521,0
DA:522,0
DA:523,0
DA:524,0
DA:525,0
DA:526,0
DA:527,0
DA:528,0
DA:529,0
DA:530,0
DA:531,0
DA:532,0
DA:534,0
DA:535,0
DA:536,0
DA:537,0
DA:538,0
DA:539,0
DA:540,0
DA:541,0
DA:545,0
DA:546,0
DA:547,0
DA:548,0
DA:549,0
DA:550,0
DA:551,0
DA:552,0
DA:553,0
DA:554,0
DA:555,0
DA:556,0
DA:557,0
DA:558,0
DA:559,0
DA:562,0
DA:563,0
DA:564,0
DA:565,0
DA:566,0
DA:567,0
DA:569,0
DA:572,0
DA:573,0
DA:590,1
DA:592,1
DA:593,1
DA:596,7
DA:597,6
DA:598,6
DA:599,6
DA:600,6
DA:601,0
DA:604,1
DA:607,1
DA:608,1
DA:609,1
DA:612,1
DA:613,1
DA:614,1
DA:615,1
DA:616,0
DA:618,1
DA:621,1
DA:622,1
DA:623,1
DA:626,1
DA:627,1
DA:628,1
DA:629,1
DA:630,0
DA:632,1
DA:635,1
DA:636,1
DA:637,1
DA:639,1
DA:640,1
DA:641,1
DA:642,1
DA:645,1
DA:646,1
DA:647,1
DA:648,1
DA:649,1
DA:652,1
DA:653,1
DA:654,1
DA:655,1
DA:657,1
DA:660,1
DA:661,1
DA:662,1
DA:665,1
DA:666,1
DA:667,1
DA:668,1
BRF:0
BRH:0
LF:377
LH:139
end_of_record
SF:C:\Users\pv2br\source\repos\AstraWeave-AI-Native-Gaming-Engine\astraweave-render\src\culling_node.rs
FN:16,_RINvMNtCs5u7LM5pVa0o_17astraweave_render12culling_nodeNtB3_11CullingNode3newpEB5_
FN:27,_RNvMNtCs5u7LM5pVa0o_17astraweave_render12culling_nodeNtB2_11CullingNode7prepare
FN:41,_RNvMNtCs5u7LM5pVa0o_17astraweave_render12culling_nodeNtB2_11CullingNode9resources
FN:51,_RNvXs_NtCs5u7LM5pVa0o_17astraweave_render12culling_nodeNtB4_11CullingNodeNtNtB6_5graph10RenderNode3run
FN:47,_RNvXs_NtCs5u7LM5pVa0o_17astraweave_render12culling_nodeNtB4_11CullingNodeNtNtB6_5graph10RenderNode4name
FNDA:0,_RINvMNtCs5u7LM5pVa0o_17astraweave_render12culling_nodeNtB3_11CullingNode3newpEB5_
FNDA:0,_RNvMNtCs5u7LM5pVa0o_17astraweave_render12culling_nodeNtB2_11CullingNode7prepare
FNDA:0,_RNvMNtCs5u7LM5pVa0o_17astraweave_render12culling_nodeNtB2_11CullingNode9resources
FNDA:0,_RNvXs_NtCs5u7LM5pVa0o_17astraweave_render12culling_nodeNtB4_11CullingNodeNtNtB6_5graph10RenderNode3run
FNDA:0,_RNvXs_NtCs5u7LM5pVa0o_17astraweave_render12culling_nodeNtB4_11CullingNodeNtNtB6_5graph10RenderNode4name
FNF:5
FNH:0
DA:16,0
DA:17,0
DA:18,0
DA:19,0
DA:20,0
DA:21,0
DA:22,0
DA:23,0
DA:27,0
DA:28,0
DA:29,0
DA:30,0
DA:31,0
DA:32,0
DA:33,0
DA:34,0
DA:35,0
DA:36,0
DA:37,0
DA:38,0
DA:41,0
DA:42,0
DA:43,0
DA:47,0
DA:48,0
DA:49,0
DA:51,0
DA:52,0
DA:53,0
DA:54,0
DA:55,0
DA:57,0
DA:58,0
DA:59,0
DA:60,0
DA:63,0
DA:66,0
DA:67,0
DA:73,0
DA:74,0
BRF:0
BRH:0
LF:40
LH:0
end_of_record
SF:C:\Users\pv2br\source\repos\AstraWeave-AI-Native-Gaming-Engine\astraweave-render\src\depth.rs
FN:39,_RNCNvNtNtCs5u7LM5pVa0o_17astraweave_render5depth5tests18create_test_device0B7_
FN:70,_RNCNvNtNtCs5u7LM5pVa0o_17astraweave_render5depth5testss_17test_depth_create0B7_
FN:127,_RNCNvNtNtCs5u7LM5pVa0o_17astraweave_render5depth5testss_28test_depth_format_consistent0B7_
FN:96,_RNCNvNtNtCs5u7LM5pVa0o_17astraweave_render5depth5testss_33test_depth_create_different_sizes0B7_
FN:39,_RNvNtNtCs5u7LM5pVa0o_17astraweave_render5depth5tests18create_test_device
FN:69,_RNvNtNtCs5u7LM5pVa0o_17astraweave_render5depth5testss_17test_depth_create
FN:126,_RNvNtNtCs5u7LM5pVa0o_17astraweave_render5depth5testss_28test_depth_format_consistent
FN:95,_RNvNtNtCs5u7LM5pVa0o_17astraweave_render5depth5testss_33test_depth_create_different_sizes
FN:8,_RNvMNtCs5u7LM5pVa0o_17astraweave_render5depthNtB2_5Depth6create
FNDA:3,_RNCNvNtNtCs5u7LM5pVa0o_17astraweave_render5depth5tests18create_test_device0B7_
FNDA:1,_RNCNvNtNtCs5u7LM5pVa0o_17astraweave_render5depth5testss_17test_depth_create0B7_
FNDA:1,_RNCNvNtNtCs5u7LM5pVa0o_17astraweave_render5depth5testss_28test_depth_format_consistent0B7_
FNDA:1,_RNCNvNtNtCs5u7LM5pVa0o_17astraweave_render5depth5testss_33test_depth_create_different_sizes0B7_
FNDA:3,_RNvNtNtCs5u7LM5pVa0o_17astraweave_render5depth5tests18create_test_device
FNDA:1,_RNvNtNtCs5u7LM5pVa0o_17astraweave_render5depth5testss_17test_depth_create
FNDA:1,_RNvNtNtCs5u7LM5pVa0o_17astraweave_render5depth5testss_28test_depth_format_consistent
FNDA:1,_RNvNtNtCs5u7LM5pVa0o_17astraweave_render5depth5testss_33test_depth_create_different_sizes
FNDA:8,_RNvMNtCs5u7LM5pVa0o_17astraweave_render5depthNtB2_5Depth6create
FNF:9
FNH:9
DA:8,8
DA:9,8
DA:10,8
DA:11,8
DA:12,8
DA:13,8
DA:14,8
DA:15,8
DA:16,8
DA:17,8
DA:18,8
DA:19,8
DA:20,8
DA:21,8
DA:22,8
DA:23,8
DA:24,8
DA:25,8
DA:26,8
DA:27,8
DA:28,8
DA:29,8
DA:30,8
DA:31,8
DA:32,8
DA:39,3
DA:40,3
DA:41,3
DA:42,3
DA:43,3
DA:45,3
DA:46,3
DA:47,3
DA:48,3
DA:49,3
DA:50,3
DA:51,3
DA:52,3
DA:54,3
DA:55,3
DA:56,3
DA:57,3
DA:58,3
DA:59,3
DA:60,3
DA:61,3
DA:62,3
DA:63,3
DA:64,3
DA:65,3
DA:66,3
DA:69,1
DA:70,1
DA:71,1
DA:72,1
DA:73,1
DA:74,1
DA:75,1
DA:76,1
DA:77,1
DA:78,1
DA:79,1
DA:80,1
DA:81,1
DA:83,1
DA:86,1
DA:87,1
DA:88,1
DA:89,1
DA:90,1
DA:91,1
DA:92,1
DA:95,1
DA:96,1
DA:97,1
DA:99,1
DA:100,1
DA:101,1
DA:102,1
DA:103,1
DA:106,5
DA:107,4
DA:108,4
DA:109,4
DA:110,4
DA:111,4
DA:112,4
DA:113,4
DA:114,4
DA:115,4
DA:116,4
DA:118,4
DA:119,4
DA:120,4
DA:122,1
DA:123,1
DA:126,1
DA:127,1
DA:128,1
DA:129,1
DA:130,1
DA:131,1
DA:132,1
DA:133,1
DA:134,1
DA:135,1
DA:136,1
DA:137,1
DA:138,1
DA:140,1
DA:143,1
DA:144,1
DA:145,1
BRF:0
BRH:0
LF:117
LH:117
end_of_record
SF:C:\Users\pv2br\source\repos\AstraWeave-AI-Native-Gaming-Engine\astraweave-render\src\effects.rs
FN:95,_RNCNvMNtCs5u7LM5pVa0o_17astraweave_render7effectsNtB4_9WeatherFx9tick_rain0B6_
FN:117,_RNCNvMNtCs5u7LM5pVa0o_17astraweave_render7effectsNtB4_9WeatherFx9tick_wind0B6_
FN:136,_RNCNvNtNtCs5u7LM5pVa0o_17astraweave_render7effects5tests18create_test_device0B7_
FN:167,_RNCNvNtNtCs5u7LM5pVa0o_17astraweave_render7effects5testss_19test_weather_fx_new0B7_
FN:178,_RNCNvNtNtCs5u7LM5pVa0o_17astraweave_render7effects5testss_24test_weather_fx_set_kind0B7_
FN:192,_RNCNvNtNtCs5u7LM5pVa0o_17astraweave_render7effects5testss_27test_weather_fx_update_none0B7_
FN:205,_RNCNvNtNtCs5u7LM5pVa0o_17astraweave_render7effects5testss_27test_weather_fx_update_rain0B7_
FN:219,_RNCNvNtNtCs5u7LM5pVa0o_17astraweave_render7effects5testss_27test_weather_fx_update_wind0B7_
FN:302,_RNCNvNtNtCs5u7LM5pVa0o_17astraweave_render7effects5testss_29test_weather_fx_buffer_exists0B7_
FN:251,_RNCNvNtNtCs5u7LM5pVa0o_17astraweave_render7effects5testss_33test_weather_fx_particles_despawn0B7_
FN:272,_RNCNvNtNtCs5u7LM5pVa0o_17astraweave_render7effects5testss_34test_weather_fx_switch_kind_clears0B7_
FN:233,_RNCNvNtNtCs5u7LM5pVa0o_17astraweave_render7effects5testss_37test_weather_fx_rain_spawns_up_to_max0B7_
FN:136,_RNvNtNtCs5u7LM5pVa0o_17astraweave_render7effects5tests18create_test_device
FN:166,_RNvNtNtCs5u7LM5pVa0o_17astraweave_render7effects5testss_19test_weather_fx_new
FN:287,_RNvNtNtCs5u7LM5pVa0o_17astraweave_render7effects5testss_23test_weather_kind_debug
FN:177,_RNvNtNtCs5u7LM5pVa0o_17astraweave_render7effects5testss_24test_weather_fx_set_kind
FN:191,_RNvNtNtCs5u7LM5pVa0o_17astraweave_render7effects5testss_27test_weather_fx_update_none
FN:204,_RNvNtNtCs5u7LM5pVa0o_17astraweave_render7effects5testss_27test_weather_fx_update_rain
FN:218,_RNvNtNtCs5u7LM5pVa0o_17astraweave_render7effects5testss_27test_weather_fx_update_wind
FN:301,_RNvNtNtCs5u7LM5pVa0o_17astraweave_render7effects5testss_29test_weather_fx_buffer_exists
FN:250,_RNvNtNtCs5u7LM5pVa0o_17astraweave_render7effects5testss_33test_weather_fx_particles_despawn
FN:271,_RNvNtNtCs5u7LM5pVa0o_17astraweave_render7effects5testss_34test_weather_fx_switch_kind_clears
FN:232,_RNvNtNtCs5u7LM5pVa0o_17astraweave_render7effects5testss_37test_weather_fx_rain_spawns_up_to_max
FN:29,_RNvMNtCs5u7LM5pVa0o_17astraweave_render7effectsNtB2_9WeatherFx3new
FN:127,_RNvMNtCs5u7LM5pVa0o_17astraweave_render7effectsNtB2_9WeatherFx5count
FN:124,_RNvMNtCs5u7LM5pVa0o_17astraweave_render7effectsNtB2_9WeatherFx6buffer
FN:48,_RNvMNtCs5u7LM5pVa0o_17astraweave_render7effectsNtB2_9WeatherFx6update
FN:44,_RNvMNtCs5u7LM5pVa0o_17astraweave_render7effectsNtB2_9WeatherFx8set_kind
FN:78,_RNvMNtCs5u7LM5pVa0o_17astraweave_render7effectsNtB2_9WeatherFx9tick_rain
FN:102,_RNvMNtCs5u7LM5pVa0o_17astraweave_render7effectsNtB2_9WeatherFx9tick_wind
FN:60,_RNCNvMNtCs5u7LM5pVa0o_17astraweave_render7effectsNtB4_9WeatherFx6update0B6_
FNDA:10800,_RNCNvMNtCs5u7LM5pVa0o_17astraweave_render7effectsNtB4_9WeatherFx9tick_rain0B6_
FNDA:100,_RNCNvMNtCs5u7LM5pVa0o_17astraweave_render7effectsNtB4_9WeatherFx9tick_wind0B6_
FNDA:9,_RNCNvNtNtCs5u7LM5pVa0o_17astraweave_render7effects5tests18create_test_device0B7_
FNDA:1,_RNCNvNtNtCs5u7LM5pVa0o_17astraweave_render7effects5testss_19test_weather_fx_new0B7_
FNDA:1,_RNCNvNtNtCs5u7LM5pVa0o_17astraweave_render7effects5testss_24test_weather_fx_set_kind0B7_
FNDA:1,_RNCNvNtNtCs5u7LM5pVa0o_17astraweave_render7effects5testss_27test_weather_fx_update_none0B7_
FNDA:1,_RNCNvNtNtCs5u7LM5pVa0o_17astraweave_render7effects5testss_27test_weather_fx_update_rain0B7_
FNDA:1,_RNCNvNtNtCs5u7LM5pVa0o_17astraweave_render7effects5testss_27test_weather_fx_update_wind0B7_
FNDA:1,_RNCNvNtNtCs5u7LM5pVa0o_17astraweave_render7effects5testss_29test_weather_fx_buffer_exists0B7_
FNDA:1,_RNCNvNtNtCs5u7LM5pVa0o_17astraweave_render7effects5testss_33test_weather_fx_particles_despawn0B7_
FNDA:1,_RNCNvNtNtCs5u7LM5pVa0o_17astraweave_render7effects5testss_34test_weather_fx_switch_kind_clears0B7_
FNDA:1,_RNCNvNtNtCs5u7LM5pVa0o_17astraweave_render7effects5testss_37test_weather_fx_rain_spawns_up_to_max0B7_
FNDA:9,_RNvNtNtCs5u7LM5pVa0o_17astraweave_render7effects5tests18create_test_device
FNDA:1,_RNvNtNtCs5u7LM5pVa0o_17astraweave_render7effects5testss_19test_weather_fx_new
FNDA:1,_RNvNtNtCs5u7LM5pVa0o_17astraweave_render7effects5testss_23test_weather_kind_debug
FNDA:1,_RNvNtNtCs5u7LM5pVa0o_17astraweave_render7effects5testss_24test_weather_fx_set_kind
FNDA:1,_RNvNtNtCs5u7LM5pVa0o_17astraweave_render7effects5testss_27test_weather_fx_update_none
FNDA:1,_RNvNtNtCs5u7LM5pVa0o_17astraweave_render7effects5testss_27test_weather_fx_update_rain
FNDA:1,_RNvNtNtCs5u7LM5pVa0o_17astraweave_render7effects5testss_27test_weather_fx_update_wind
FNDA:1,_RNvNtNtCs5u7LM5pVa0o_17astraweave_render7effects5testss_29test_weather_fx_buffer_exists
FNDA:1,_RNvNtNtCs5u7LM5pVa0o_17astraweave_render7effects5testss_33test_weather_fx_particles_despawn
FNDA:1,_RNvNtNtCs5u7LM5pVa0o_17astraweave_render7effects5testss_34test_weather_fx_switch_kind_clears
FNDA:1,_RNvNtNtCs5u7LM5pVa0o_17astraweave_render7effects5testss_37test_weather_fx_rain_spawns_up_to_max
FNDA:9,_RNvMNtCs5u7LM5pVa0o_17astraweave_render7effectsNtB2_9WeatherFx3new
FNDA:10,_RNvMNtCs5u7LM5pVa0o_17astraweave_render7effectsNtB2_9WeatherFx5count
FNDA:1,_RNvMNtCs5u7LM5pVa0o_17astraweave_render7effectsNtB2_9WeatherFx6buffer
FNDA:116,_RNvMNtCs5u7LM5pVa0o_17astraweave_render7effectsNtB2_9WeatherFx6update
FNDA:10,_RNvMNtCs5u7LM5pVa0o_17astraweave_render7effectsNtB2_9WeatherFx8set_kind
FNDA:113,_RNvMNtCs5u7LM5pVa0o_17astraweave_render7effectsNtB2_9WeatherFx9tick_rain
FNDA:1,_RNvMNtCs5u7LM5pVa0o_17astraweave_render7effectsNtB2_9WeatherFx9tick_wind
FNDA:900,_RNCNvMNtCs5u7LM5pVa0o_17astraweave_render7effectsNtB4_9WeatherFx6update0B6_
FNF:31
FNH:31
DA:29,9
DA:30,9
DA:31,9
DA:32,9
DA:33,9
DA:34,9
DA:35,9
DA:36,9
DA:37,9
DA:38,9
DA:39,9
DA:40,9
DA:41,9
DA:42,9
DA:44,10
DA:45,10
DA:46,10
DA:48,116
DA:49,116
DA:50,2
DA:51,2
DA:52,2
DA:53,113
DA:54,1
DA:57,116
DA:58,116
DA:59,116
DA:60,900
DA:61,900
DA:62,900
DA:63,900
DA:64,900
DA:65,900
DA:66,900
DA:67,900
DA:68,900
DA:69,900
DA:70,900
DA:71,900
DA:72,900
DA:73,900
DA:74,116
DA:75,116
DA:76,116
DA:78,113
DA:79,113
DA:81,10363
DA:82,10250
DA:83,10250
DA:84,10250
DA:85,10250
DA:86,10250
DA:87,10250
DA:88,10250
DA:89,10250
DA:90,10250
DA:91,10250
DA:92,10250
DA:93,10250
DA:95,10800
DA:96,10800
DA:97,10800
DA:98,10800
DA:99,10800
DA:100,113
DA:102,1
DA:103,1
DA:104,101
DA:105,100
DA:106,100
DA:107,100
DA:108,100
DA:109,100
DA:110,100
DA:111,100
DA:112,100
DA:113,100
DA:114,100
DA:115,100
DA:116,100
DA:117,100
DA:118,100
DA:119,100
DA:120,100
DA:121,100
DA:122,1
DA:124,1
DA:125,1
DA:126,1
DA:127,10
DA:128,10
DA:129,10
DA:136,9
DA:137,9
DA:138,9
DA:139,9
DA:140,9
DA:142,9
DA:143,9
DA:144,9
DA:145,9
DA:146,9
DA:147,9
DA:148,9
DA:149,9
DA:151,9
DA:152,9
DA:153,9
DA:154,9
DA:155,9
DA:156,9
DA:157,9
DA:158,9
DA:159,9
DA:160,9
DA:161,9
DA:162,9
DA:163,9
DA:166,1
DA:167,1
DA:168,1
DA:169,1
DA:171,1
DA:172,1
DA:173,1
DA:174,1
DA:177,1
DA:178,1
DA:179,1
DA:180,1
DA:182,1
DA:183,1
DA:184,1
DA:187,1
DA:188,1
DA:191,1
DA:192,1
DA:193,1
DA:194,1
DA:196,1
DA:197,1
DA:199,1
DA:200,1
DA:201,1
DA:204,1
DA:205,1
DA:206,1
DA:207,1
DA:209,1
DA:210,1
DA:212,1
DA:213,1
DA:214,1
DA:215,1
DA:218,1
DA:219,1
DA:220,1
DA:221,1
DA:223,1
DA:224,1
DA:226,1
DA:227,1
DA:228,1
DA:229,1
DA:232,1
DA:233,1
DA:234,1
DA:235,1
DA:236,1
DA:238,1
DA:241,11
DA:242,10
DA:243,10
DA:245,1
DA:246,1
DA:247,1
DA:250,1
DA:251,1
DA:252,1
DA:253,1
DA:255,1
DA:256,1
DA:259,101
DA:260,100
DA:261,100
DA:266,1
DA:267,1
DA:268,1
DA:271,1
DA:272,1
DA:273,1
DA:274,1
DA:276,1
DA:277,1
DA:278,1
DA:280,1
DA:281,1
DA:282,1
DA:283,1
DA:284,1
DA:287,1
DA:288,1
DA:289,1
DA:290,1
DA:291,1
DA:294,4
DA:295,3
DA:296,3
DA:298,1
DA:301,1
DA:302,1
DA:303,1
DA:304,1
DA:306,1
DA:308,1
DA:309,1
BRF:0
BRH:0
LF:229
LH:229
end_of_record
SF:C:\Users\pv2br\source\repos\AstraWeave-AI-Native-Gaming-Engine\astraweave-render\src\environment.rs
FN:992,_RNCNvMs5_NtCs5u7LM5pVa0o_17astraweave_render11environmentNtB7_16WeatherParticles21update_rain_particles0B9_
FN:1030,_RNCNvMs5_NtCs5u7LM5pVa0o_17astraweave_render11environmentNtB7_16WeatherParticles21update_snow_particles0B9_
FN:402,_RNvMs1_NtCs5u7LM5pVa0o_17astraweave_render11environmentNtB5_11SkyRenderer10set_config
FN:387,_RNvMs1_NtCs5u7LM5pVa0o_17astraweave_render11environmentNtB5_11SkyRenderer11time_of_day
FN:392,_RNvMs1_NtCs5u7LM5pVa0o_17astraweave_render11environmentNtB5_11SkyRenderer15time_of_day_mut
FN:204,_RNvMs1_NtCs5u7LM5pVa0o_17astraweave_render11environmentNtB5_11SkyRenderer18init_gpu_resources
FN:453,_RNvMs1_NtCs5u7LM5pVa0o_17astraweave_render11environmentNtB5_11SkyRenderer19create_sky_uniforms
FN:441,_RNvMs1_NtCs5u7LM5pVa0o_17astraweave_render11environmentNtB5_11SkyRenderer21create_skybox_indices
FN:408,_RNvMs1_NtCs5u7LM5pVa0o_17astraweave_render11environmentNtB5_11SkyRenderer22create_skybox_vertices
FN:191,_RNvMs1_NtCs5u7LM5pVa0o_17astraweave_render11environmentNtB5_11SkyRenderer3new
FN:397,_RNvMs1_NtCs5u7LM5pVa0o_17astraweave_render11environmentNtB5_11SkyRenderer6config
FN:328,_RNvMs1_NtCs5u7LM5pVa0o_17astraweave_render11environmentNtB5_11SkyRenderer6render
FN:323,_RNvMs1_NtCs5u7LM5pVa0o_17astraweave_render11environmentNtB5_11SkyRenderer6update
FN:501,_RNvMs2_NtCs5u7LM5pVa0o_17astraweave_render11environmentNtB5_9SkyVertex4desc
FN:764,_RNvMs4_NtCs5u7LM5pVa0o_17astraweave_render11environmentNtB5_13WeatherSystem14target_weather
FN:779,_RNvMs4_NtCs5u7LM5pVa0o_17astraweave_render11environmentNtB5_13WeatherSystem15get_fog_density
FN:784,_RNvMs4_NtCs5u7LM5pVa0o_17astraweave_render11environmentNtB5_13WeatherSystem17get_wind_strength
FN:774,_RNvMs4_NtCs5u7LM5pVa0o_17astraweave_render11environmentNtB5_13WeatherSystem18get_snow_intensity
FN:789,_RNvMs4_NtCs5u7LM5pVa0o_17astraweave_render11environmentNtB5_13WeatherSystem18get_wind_direction
FN:838,_RNvMs4_NtCs5u7LM5pVa0o_17astraweave_render11environmentNtB5_13WeatherSystem21get_light_attenuation
FN:810,_RNvMs4_NtCs5u7LM5pVa0o_17astraweave_render11environmentNtB5_13WeatherSystem26get_terrain_color_modifier
FN:851,_RNvMs4_NtCs5u7LM5pVa0o_17astraweave_render11environmentNtB5_13WeatherSystem29get_biome_appropriate_weather
FN:715,_RNvMs4_NtCs5u7LM5pVa0o_17astraweave_render11environmentNtB5_13WeatherSystem6update
FN:805,_RNvMs4_NtCs5u7LM5pVa0o_17astraweave_render11environmentNtB5_13WeatherSystem8is_foggy
FN:953,_RNvMs5_NtCs5u7LM5pVa0o_17astraweave_render11environmentNtB5_16WeatherParticles14rain_particles
FN:958,_RNvMs5_NtCs5u7LM5pVa0o_17astraweave_render11environmentNtB5_16WeatherParticles14snow_particles
FN:964,_RNvMs5_NtCs5u7LM5pVa0o_17astraweave_render11environmentNtB5_16WeatherParticles21update_rain_particles
FN:1002,_RNvMs5_NtCs5u7LM5pVa0o_17astraweave_render11environmentNtB5_16WeatherParticles21update_snow_particles
FN:926,_RNvMs5_NtCs5u7LM5pVa0o_17astraweave_render11environmentNtB5_16WeatherParticles3new
FN:936,_RNvMs5_NtCs5u7LM5pVa0o_17astraweave_render11environmentNtB5_16WeatherParticles6update
FN:115,_RNvMs_NtCs5u7LM5pVa0o_17astraweave_render11environmentNtB4_9TimeOfDay17get_ambient_color
FN:49,_RNvMs_NtCs5u7LM5pVa0o_17astraweave_render11environmentNtB4_9TimeOfDay6update
FN:692,_RNvXs3_NtCs5u7LM5pVa0o_17astraweave_render11environmentNtB5_13WeatherSystemNtNtCsixiwFwjEgS7_4core7default7Default7default
FN:654,_RNvNtNtCs5u7LM5pVa0o_17astraweave_render11environment5testss_19test_weather_system
FN:647,_RNvNtNtCs5u7LM5pVa0o_17astraweave_render11environment5testss_23test_sky_config_default
FN:633,_RNvNtNtCs5u7LM5pVa0o_17astraweave_render11environment5testss_24test_day_night_detection
FN:611,_RNvNtNtCs5u7LM5pVa0o_17astraweave_render11environment5testss_25test_time_of_day_creation
FN:618,_RNvNtNtCs5u7LM5pVa0o_17astraweave_render11environment5testss_29test_sun_position_calculation
FN:794,_RNvMs4_NtCs5u7LM5pVa0o_17astraweave_render11environmentNtB5_13WeatherSystem10is_raining
FN:800,_RNvMs4_NtCs5u7LM5pVa0o_17astraweave_render11environmentNtB5_13WeatherSystem10is_snowing
FN:742,_RNvMs4_NtCs5u7LM5pVa0o_17astraweave_render11environmentNtB5_13WeatherSystem11set_weather
FN:759,_RNvMs4_NtCs5u7LM5pVa0o_17astraweave_render11environmentNtB5_13WeatherSystem15current_weather
FN:769,_RNvMs4_NtCs5u7LM5pVa0o_17astraweave_render11environmentNtB5_13WeatherSystem18get_rain_intensity
FN:870,_RNvMs4_NtCs5u7LM5pVa0o_17astraweave_render11environmentNtB5_13WeatherSystem25update_weather_parameters
FN:699,_RNvMs4_NtCs5u7LM5pVa0o_17astraweave_render11environmentNtB5_13WeatherSystem3new
FN:139,_RNvMs_NtCs5u7LM5pVa0o_17astraweave_render11environmentNtB4_9TimeOfDay11is_twilight
FN:97,_RNvMs_NtCs5u7LM5pVa0o_17astraweave_render11environmentNtB4_9TimeOfDay15get_light_color
FN:57,_RNvMs_NtCs5u7LM5pVa0o_17astraweave_render11environmentNtB4_9TimeOfDay16get_sun_position
FN:82,_RNvMs_NtCs5u7LM5pVa0o_17astraweave_render11environmentNtB4_9TimeOfDay17get_moon_position
FN:87,_RNvMs_NtCs5u7LM5pVa0o_17astraweave_render11environmentNtB4_9TimeOfDay19get_light_direction
FN:39,_RNvMs_NtCs5u7LM5pVa0o_17astraweave_render11environmentNtB4_9TimeOfDay3new
FN:129,_RNvMs_NtCs5u7LM5pVa0o_17astraweave_render11environmentNtB4_9TimeOfDay6is_day
FN:134,_RNvMs_NtCs5u7LM5pVa0o_17astraweave_render11environmentNtB4_9TimeOfDay8is_night
FN:27,_RNvXNtCs5u7LM5pVa0o_17astraweave_render11environmentNtB2_9TimeOfDayNtNtCsixiwFwjEgS7_4core7default7Default7default
FN:162,_RNvXs0_NtCs5u7LM5pVa0o_17astraweave_render11environmentNtB5_9SkyConfigNtNtCsixiwFwjEgS7_4core7default7Default7default
FNDA:0,_RNCNvMs5_NtCs5u7LM5pVa0o_17astraweave_render11environmentNtB7_16WeatherParticles21update_rain_particles0B9_
FNDA:0,_RNCNvMs5_NtCs5u7LM5pVa0o_17astraweave_render11environmentNtB7_16WeatherParticles21update_snow_particles0B9_
FNDA:0,_RNvMs1_NtCs5u7LM5pVa0o_17astraweave_render11environmentNtB5_11SkyRenderer10set_config
FNDA:0,_RNvMs1_NtCs5u7LM5pVa0o_17astraweave_render11environmentNtB5_11SkyRenderer11time_of_day
FNDA:0,_RNvMs1_NtCs5u7LM5pVa0o_17astraweave_render11environmentNtB5_11SkyRenderer15time_of_day_mut
FNDA:0,_RNvMs1_NtCs5u7LM5pVa0o_17astraweave_render11environmentNtB5_11SkyRenderer18init_gpu_resources
FNDA:0,_RNvMs1_NtCs5u7LM5pVa0o_17astraweave_render11environmentNtB5_11SkyRenderer19create_sky_uniforms
FNDA:0,_RNvMs1_NtCs5u7LM5pVa0o_17astraweave_render11environmentNtB5_11SkyRenderer21create_skybox_indices
FNDA:0,_RNvMs1_NtCs5u7LM5pVa0o_17astraweave_render11environmentNtB5_11SkyRenderer22create_skybox_vertices
FNDA:0,_RNvMs1_NtCs5u7LM5pVa0o_17astraweave_render11environmentNtB5_11SkyRenderer3new
FNDA:0,_RNvMs1_NtCs5u7LM5pVa0o_17astraweave_render11environmentNtB5_11SkyRenderer6config
FNDA:0,_RNvMs1_NtCs5u7LM5pVa0o_17astraweave_render11environmentNtB5_11SkyRenderer6render
FNDA:0,_RNvMs1_NtCs5u7LM5pVa0o_17astraweave_render11environmentNtB5_11SkyRenderer6update
FNDA:0,_RNvMs2_NtCs5u7LM5pVa0o_17astraweave_render11environmentNtB5_9SkyVertex4desc
FNDA:0,_RNvMs4_NtCs5u7LM5pVa0o_17astraweave_render11environmentNtB5_13WeatherSystem14target_weather
FNDA:0,_RNvMs4_NtCs5u7LM5pVa0o_17astraweave_render11environmentNtB5_13WeatherSystem15get_fog_density
FNDA:0,_RNvMs4_NtCs5u7LM5pVa0o_17astraweave_render11environmentNtB5_13WeatherSystem17get_wind_strength
FNDA:0,_RNvMs4_NtCs5u7LM5pVa0o_17astraweave_render11environmentNtB5_13WeatherSystem18get_snow_intensity
FNDA:0,_RNvMs4_NtCs5u7LM5pVa0o_17astraweave_render11environmentNtB5_13WeatherSystem18get_wind_direction
FNDA:0,_RNvMs4_NtCs5u7LM5pVa0o_17astraweave_render11environmentNtB5_13WeatherSystem21get_light_attenuation
FNDA:0,_RNvMs4_NtCs5u7LM5pVa0o_17astraweave_render11environmentNtB5_13WeatherSystem26get_terrain_color_modifier
FNDA:0,_RNvMs4_NtCs5u7LM5pVa0o_17astraweave_render11environmentNtB5_13WeatherSystem29get_biome_appropriate_weather
FNDA:0,_RNvMs4_NtCs5u7LM5pVa0o_17astraweave_render11environmentNtB5_13WeatherSystem6update
FNDA:0,_RNvMs4_NtCs5u7LM5pVa0o_17astraweave_render11environmentNtB5_13WeatherSystem8is_foggy
FNDA:0,_RNvMs5_NtCs5u7LM5pVa0o_17astraweave_render11environmentNtB5_16WeatherParticles14rain_particles
FNDA:0,_RNvMs5_NtCs5u7LM5pVa0o_17astraweave_render11environmentNtB5_16WeatherParticles14snow_particles
FNDA:0,_RNvMs5_NtCs5u7LM5pVa0o_17astraweave_render11environmentNtB5_16WeatherParticles21update_rain_particles
FNDA:0,_RNvMs5_NtCs5u7LM5pVa0o_17astraweave_render11environmentNtB5_16WeatherParticles21update_snow_particles
FNDA:0,_RNvMs5_NtCs5u7LM5pVa0o_17astraweave_render11environmentNtB5_16WeatherParticles3new
FNDA:0,_RNvMs5_NtCs5u7LM5pVa0o_17astraweave_render11environmentNtB5_16WeatherParticles6update
FNDA:0,_RNvMs_NtCs5u7LM5pVa0o_17astraweave_render11environmentNtB4_9TimeOfDay17get_ambient_color
FNDA:0,_RNvMs_NtCs5u7LM5pVa0o_17astraweave_render11environmentNtB4_9TimeOfDay6update
FNDA:0,_RNvXs3_NtCs5u7LM5pVa0o_17astraweave_render11environmentNtB5_13WeatherSystemNtNtCsixiwFwjEgS7_4core7default7Default7default
FNDA:1,_RNvNtNtCs5u7LM5pVa0o_17astraweave_render11environment5testss_19test_weather_system
FNDA:1,_RNvNtNtCs5u7LM5pVa0o_17astraweave_render11environment5testss_23test_sky_config_default
FNDA:1,_RNvNtNtCs5u7LM5pVa0o_17astraweave_render11environment5testss_24test_day_night_detection
FNDA:1,_RNvNtNtCs5u7LM5pVa0o_17astraweave_render11environment5testss_25test_time_of_day_creation
FNDA:1,_RNvNtNtCs5u7LM5pVa0o_17astraweave_render11environment5testss_29test_sun_position_calculation
FNDA:1,_RNvMs4_NtCs5u7LM5pVa0o_17astraweave_render11environmentNtB5_13WeatherSystem10is_raining
FNDA:1,_RNvMs4_NtCs5u7LM5pVa0o_17astraweave_render11environmentNtB5_13WeatherSystem10is_snowing
FNDA:1,_RNvMs4_NtCs5u7LM5pVa0o_17astraweave_render11environmentNtB5_13WeatherSystem11set_weather
FNDA:2,_RNvMs4_NtCs5u7LM5pVa0o_17astraweave_render11environmentNtB5_13WeatherSystem15current_weather
FNDA:1,_RNvMs4_NtCs5u7LM5pVa0o_17astraweave_render11environmentNtB5_13WeatherSystem18get_rain_intensity
FNDA:1,_RNvMs4_NtCs5u7LM5pVa0o_17astraweave_render11environmentNtB5_13WeatherSystem25update_weather_parameters
FNDA:2,_RNvMs4_NtCs5u7LM5pVa0o_17astraweave_render11environmentNtB5_13WeatherSystem3new
FNDA:1,_RNvMs_NtCs5u7LM5pVa0o_17astraweave_render11environmentNtB4_9TimeOfDay11is_twilight
FNDA:1,_RNvMs_NtCs5u7LM5pVa0o_17astraweave_render11environmentNtB4_9TimeOfDay15get_light_color
FNDA:18,_RNvMs_NtCs5u7LM5pVa0o_17astraweave_render11environmentNtB4_9TimeOfDay16get_sun_position
FNDA:2,_RNvMs_NtCs5u7LM5pVa0o_17astraweave_render11environmentNtB4_9TimeOfDay17get_moon_position
FNDA:2,_RNvMs_NtCs5u7LM5pVa0o_17astraweave_render11environmentNtB4_9TimeOfDay19get_light_direction
FNDA:12,_RNvMs_NtCs5u7LM5pVa0o_17astraweave_render11environmentNtB4_9TimeOfDay3new
FNDA:2,_RNvMs_NtCs5u7LM5pVa0o_17astraweave_render11environmentNtB4_9TimeOfDay6is_day
FNDA:2,_RNvMs_NtCs5u7LM5pVa0o_17astraweave_render11environmentNtB4_9TimeOfDay8is_night
FNDA:1,_RNvXNtCs5u7LM5pVa0o_17astraweave_render11environmentNtB2_9TimeOfDayNtNtCsixiwFwjEgS7_4core7default7Default7default
FNDA:2,_RNvXs0_NtCs5u7LM5pVa0o_17astraweave_render11environmentNtB5_9SkyConfigNtNtCsixiwFwjEgS7_4core7default7Default7default
FNF:55
FNH:22
DA:27,1
DA:28,1
DA:29,1
DA:30,1
DA:31,1
DA:32,1
DA:33,1
DA:34,1
DA:39,12
DA:40,12
DA:41,12
DA:42,12
DA:43,12
DA:44,12
DA:45,12
DA:46,12
DA:49,0
DA:50,0
DA:51,0
DA:52,0
DA:53,0
DA:54,0
DA:57,18
DA:59,18
DA:60,18
DA:61,18
DA:67,18
DA:69,4
DA:71,14
DA:72,14
DA:73,14
DA:74,14
DA:75,14
DA:77,14
DA:79,18
DA:82,2
DA:83,2
DA:84,2
DA:87,2
DA:88,2
DA:89,2
DA:90,1
DA:92,1
DA:94,2
DA:97,1
DA:98,1
DA:100,1
DA:102,1
DA:103,1
DA:104,0
DA:106,0
DA:107,0
DA:110,0
DA:112,1
DA:115,0
DA:116,0
DA:118,0
DA:120,0
DA:121,0
DA:124,0
DA:126,0
DA:129,2
DA:130,2
DA:131,2
DA:134,2
DA:135,2
DA:136,2
DA:139,1
DA:140,1
DA:141,1
DA:142,1
DA:162,2
DA:163,2
DA:164,2
DA:165,2
DA:166,2
DA:167,2
DA:168,2
DA:169,2
DA:170,2
DA:171,2
DA:172,2
DA:173,2
DA:174,2
DA:191,0
DA:192,0
DA:193,0
DA:194,0
DA:195,0
DA:196,0
DA:197,0
DA:198,0
DA:199,0
DA:200,0
DA:201,0
DA:204,0
DA:205,0
DA:206,0
DA:207,0
DA:208,0
DA:210,0
DA:211,0
DA:213,0
DA:214,0
DA:215,0
DA:216,0
DA:217,0
DA:218,0
DA:219,0
DA:221,0
DA:222,0
DA:223,0
DA:224,0
DA:225,0
DA:226,0
DA:227,0
DA:230,0
DA:231,0
DA:232,0
DA:233,0
DA:234,0
DA:235,0
DA:238,0
DA:239,0
DA:240,0
DA:241,0
DA:242,0
DA:243,0
DA:244,0
DA:245,0
DA:246,0
DA:247,0
DA:248,0
DA:249,0
DA:250,0
DA:252,0
DA:253,0
DA:254,0
DA:255,0
DA:256,0
DA:257,0
DA:258,0
DA:259,0
DA:260,0
DA:261,0
DA:262,0
DA:263,0
DA:266,0
DA:267,0
DA:268,0
DA:269,0
DA:271,0
DA:272,0
DA:273,0
DA:274,0
DA:275,0
DA:277,0
DA:278,0
DA:279,0
DA:280,0
DA:281,0
DA:282,0
DA:283,0
DA:284,0
DA:285,0
DA:286,0
DA:287,0
DA:288,0
DA:289,0
DA:290,0
DA:291,0
DA:292,0
DA:293,0
DA:294,0
DA:295,0
DA:296,0
DA:297,0
DA:298,0
DA:299,0
DA:300,0
DA:301,0
DA:302,0
DA:303,0
DA:304,0
DA:305,0
DA:306,0
DA:307,0
DA:308,0
DA:309,0
DA:310,0
DA:311,0
DA:312,0
DA:313,0
DA:314,0
DA:315,0
DA:316,0
DA:317,0
DA:319,0
DA:320,0
DA:323,0
DA:324,0
DA:325,0
DA:328,0
DA:329,0
DA:330,0
DA:331,0
DA:332,0
DA:333,0
DA:334,0
DA:335,0
DA:337,0
DA:338,0
DA:339,0
DA:340,0
DA:341,0
DA:343,0
DA:344,0
DA:345,0
DA:346,0
DA:347,0
DA:348,0
DA:349,0
DA:350,0
DA:351,0
DA:352,0
DA:353,0
DA:354,0
DA:355,0
DA:356,0
DA:357,0
DA:358,0
DA:359,0
DA:360,0
DA:361,0
DA:362,0
DA:363,0
DA:364,0
DA:365,0
DA:366,0
DA:367,0
DA:368,0
DA:369,0
DA:370,0
DA:371,0
DA:372,0
DA:373,0
DA:374,0
DA:375,0
DA:376,0
DA:377,0
DA:378,0
DA:379,0
DA:380,0
DA:381,0
DA:383,0
DA:384,0
DA:387,0
DA:388,0
DA:389,0
DA:392,0
DA:393,0
DA:394,0
DA:397,0
DA:398,0
DA:399,0
DA:402,0
DA:403,0
DA:404,0
DA:408,0
DA:410,0
DA:411,0
DA:413,0
DA:414,0
DA:415,0
DA:416,0
DA:417,0
DA:418,0
DA:419,0
DA:420,0
DA:421,0
DA:422,0
DA:423,0
DA:424,0
DA:426,0
DA:427,0
DA:428,0
DA:429,0
DA:430,0
DA:431,0
DA:432,0
DA:433,0
DA:434,0
DA:435,0
DA:436,0
DA:437,0
DA:439,0
DA:441,0
DA:442,0
DA:451,0
DA:453,0
DA:454,0
DA:455,0
DA:458,0
DA:459,0
DA:460,0
DA:461,0
DA:464,0
DA:465,0
DA:466,0
DA:468,0
DA:469,0
DA:470,0
DA:471,0
DA:472,0
DA:473,0
DA:474,0
DA:475,0
DA:476,0
DA:479,0
DA:480,0
DA:481,0
DA:482,0
DA:483,0
DA:484,0
DA:485,0
DA:486,0
DA:487,0
DA:488,0
DA:489,0
DA:490,0
DA:501,0
DA:502,0
DA:503,0
DA:504,0
DA:505,0
DA:506,0
DA:507,0
DA:508,0
DA:509,0
DA:510,0
DA:511,0
DA:611,1
DA:612,1
DA:613,1
DA:614,1
DA:615,1
DA:618,1
DA:619,1
DA:620,1
DA:621,1
DA:623,1
DA:624,1
DA:625,1
DA:627,1
DA:628,1
DA:629,1
DA:630,1
DA:633,1
DA:634,1
DA:635,1
DA:636,1
DA:638,1
DA:639,1
DA:640,1
DA:642,1
DA:643,1
DA:644,1
DA:647,1
DA:648,1
DA:649,1
DA:650,1
DA:651,1
DA:654,1
DA:655,1
DA:656,1
DA:658,1
DA:659,1
DA:660,1
DA:661,1
DA:692,0
DA:693,0
DA:694,0
DA:699,2
DA:700,2
DA:701,2
DA:702,2
DA:703,2
DA:704,2
DA:705,2
DA:706,2
DA:707,2
DA:708,2
DA:709,2
DA:710,2
DA:711,2
DA:712,2
DA:715,0
DA:716,0
DA:719,0
DA:720,0
DA:722,0
DA:723,0
DA:724,0
DA:725,0
DA:726,0
DA:729,0
DA:732,0
DA:733,0
DA:734,0
DA:735,0
DA:736,0
DA:737,0
DA:738,0
DA:739,0
DA:742,1
DA:743,1
DA:744,1
DA:745,1
DA:746,1
DA:747,1
DA:748,1
DA:749,1
DA:750,1
DA:751,0
DA:752,0
DA:753,0
DA:754,0
DA:755,0
DA:756,1
DA:759,2
DA:760,2
DA:761,2
DA:764,0
DA:765,0
DA:766,0
DA:769,1
DA:770,1
DA:771,1
DA:774,0
DA:775,0
DA:776,0
DA:779,0
DA:780,0
DA:781,0
DA:784,0
DA:785,0
DA:786,0
DA:789,0
DA:790,0
DA:791,0
DA:794,1
DA:795,1
DA:796,0
DA:797,1
DA:800,1
DA:801,1
DA:802,1
DA:805,0
DA:806,0
DA:807,0
DA:810,0
DA:811,0
DA:812,0
DA:813,0
DA:816,0
DA:817,0
DA:818,0
DA:819,0
DA:820,0
DA:825,0
DA:826,0
DA:827,0
DA:828,0
DA:829,0
DA:832,0
DA:833,0
DA:835,0
DA:838,0
DA:839,0
DA:840,0
DA:841,0
DA:842,0
DA:843,0
DA:844,0
DA:845,0
DA:846,0
DA:848,0
DA:851,0
DA:854,0
DA:855,0
DA:856,0
DA:857,0
DA:858,0
DA:859,0
DA:861,0
DA:863,0
DA:864,0
DA:866,0
DA:870,1
DA:871,1
DA:874,1
DA:875,0
DA:876,0
DA:877,1
DA:878,0
DA:879,0
DA:880,0
DA:881,0
DA:885,1
DA:886,0
DA:887,0
DA:888,0
DA:889,0
DA:890,0
DA:891,0
DA:892,0
DA:893,0
DA:896,1
DA:900,1
DA:901,1
DA:902,1
DA:903,1
DA:904,1
DA:926,0
DA:927,0
DA:928,0
DA:929,0
DA:930,0
DA:931,0
DA:932,0
DA:933,0
DA:936,0
DA:938,0
DA:939,0
DA:940,0
DA:941,0
DA:942,0
DA:945,0
DA:946,0
DA:947,0
DA:948,0
DA:949,0
DA:950,0
DA:953,0
DA:954,0
DA:955,0
DA:958,0
DA:959,0
DA:960,0
DA:964,0
DA:965,0
DA:966,0
DA:967,0
DA:968,0
DA:969,0
DA:970,0
DA:973,0
DA:974,0
DA:975,0
DA:976,0
DA:977,0
DA:978,0
DA:979,0
DA:980,0
DA:981,0
DA:982,0
DA:983,0
DA:984,0
DA:985,0
DA:986,0
DA:987,0
DA:988,0
DA:989,0
DA:992,0
DA:993,0
DA:994,0
DA:997,0
DA:998,0
DA:999,0
DA:1000,0
DA:1002,0
DA:1003,0
DA:1004,0
DA:1005,0
DA:1006,0
DA:1007,0
DA:1008,0
DA:1011,0
DA:1012,0
DA:1013,0
DA:1014,0
DA:1015,0
DA:1016,0
DA:1017,0
DA:1018,0
DA:1019,0
DA:1020,0
DA:1021,0
DA:1022,0
DA:1023,0
DA:1024,0
DA:1025,0
DA:1026,0
DA:1027,0
DA:1030,0
DA:1031,0
DA:1032,0
DA:1035,0
DA:1036,0
DA:1039,0
DA:1040,0
DA:1041,0
DA:1042,0
BRF:0
BRH:0
LF:615
LH:152
end_of_record
SF:C:\Users\pv2br\source\repos\AstraWeave-AI-Native-Gaming-Engine\astraweave-render\src\gi\mod.rs
FN:27,_RNvXNtCs5u7LM5pVa0o_17astraweave_render2giNtB2_14HybridGiConfigNtNtCsixiwFwjEgS7_4core7default7Default7default
FNDA:0,_RNvXNtCs5u7LM5pVa0o_17astraweave_render2giNtB2_14HybridGiConfigNtNtCsixiwFwjEgS7_4core7default7Default7default
FNF:1
FNH:0
DA:27,0
DA:28,0
DA:29,0
DA:30,0
DA:31,0
DA:32,0
DA:33,0
BRF:0
BRH:0
LF:7
LH:0
end_of_record
SF:C:\Users\pv2br\source\repos\AstraWeave-AI-Native-Gaming-Engine\astraweave-render\src\gi\voxelization_pipeline.rs
FN:515,_RNvNtNtNtCs5u7LM5pVa0o_17astraweave_render2gi21voxelization_pipeline5testss_22test_voxel_vertex_size
FN:525,_RNvNtNtNtCs5u7LM5pVa0o_17astraweave_render2gi21voxelization_pipeline5testss_22test_voxelization_mesh
FN:520,_RNvNtNtNtCs5u7LM5pVa0o_17astraweave_render2gi21voxelization_pipeline5testss_24test_voxel_material_size
FN:507,_RNvNtNtNtCs5u7LM5pVa0o_17astraweave_render2gi21voxelization_pipeline5testss_32test_voxelization_config_default
FN:80,_RNvMs1_NtNtCs5u7LM5pVa0o_17astraweave_render2gi21voxelization_pipelineNtB5_13VoxelMaterial11from_albedo
FN:87,_RNvMs1_NtNtCs5u7LM5pVa0o_17astraweave_render2gi21voxelization_pipelineNtB5_13VoxelMaterial8emissive
FN:283,_RNvMs3_NtNtCs5u7LM5pVa0o_17astraweave_render2gi21voxelization_pipelineNtB5_20VoxelizationPipeline11upload_mesh
FN:340,_RNvMs3_NtNtCs5u7LM5pVa0o_17astraweave_render2gi21voxelization_pipelineNtB5_20VoxelizationPipeline12clear_voxels
FN:277,_RNvMs3_NtNtCs5u7LM5pVa0o_17astraweave_render2gi21voxelization_pipelineNtB5_20VoxelizationPipeline13update_config
FN:368,_RNvMs3_NtNtCs5u7LM5pVa0o_17astraweave_render2gi21voxelization_pipelineNtB5_20VoxelizationPipeline13voxelize_mesh
FN:497,_RNvMs3_NtNtCs5u7LM5pVa0o_17astraweave_render2gi21voxelization_pipelineNtB5_20VoxelizationPipeline17bind_group_layout
FN:405,_RNvMs3_NtNtCs5u7LM5pVa0o_17astraweave_render2gi21voxelization_pipelineNtB5_20VoxelizationPipeline17create_bind_group
FN:449,_RNvMs3_NtNtCs5u7LM5pVa0o_17astraweave_render2gi21voxelization_pipelineNtB5_20VoxelizationPipeline27create_bind_group_for_clear
FN:150,_RNvMs3_NtNtCs5u7LM5pVa0o_17astraweave_render2gi21voxelization_pipelineNtB5_20VoxelizationPipeline3new
FN:492,_RNvMs3_NtNtCs5u7LM5pVa0o_17astraweave_render2gi21voxelization_pipelineNtB5_20VoxelizationPipeline5stats
FN:487,_RNvMs3_NtNtCs5u7LM5pVa0o_17astraweave_render2gi21voxelization_pipelineNtB5_20VoxelizationPipeline6config
FN:111,_RNvMs2_NtNtCs5u7LM5pVa0o_17astraweave_render2gi21voxelization_pipelineNtB5_16VoxelizationMesh14triangle_count
FN:103,_RNvMs2_NtNtCs5u7LM5pVa0o_17astraweave_render2gi21voxelization_pipelineNtB5_16VoxelizationMesh3new
FN:46,_RNvMs_NtNtCs5u7LM5pVa0o_17astraweave_render2gi21voxelization_pipelineNtB4_11VoxelVertex3new
FN:25,_RNvXNtNtCs5u7LM5pVa0o_17astraweave_render2gi21voxelization_pipelineNtB2_18VoxelizationConfigNtNtCsixiwFwjEgS7_4core7default7Default7default
FN:69,_RNvXs0_NtNtCs5u7LM5pVa0o_17astraweave_render2gi21voxelization_pipelineNtB5_13VoxelMaterialNtNtCsixiwFwjEgS7_4core7default7Default7default
FNDA:1,_RNvNtNtNtCs5u7LM5pVa0o_17astraweave_render2gi21voxelization_pipeline5testss_22test_voxel_vertex_size
FNDA:1,_RNvNtNtNtCs5u7LM5pVa0o_17astraweave_render2gi21voxelization_pipeline5testss_22test_voxelization_mesh
FNDA:1,_RNvNtNtNtCs5u7LM5pVa0o_17astraweave_render2gi21voxelization_pipeline5testss_24test_voxel_material_size
FNDA:1,_RNvNtNtNtCs5u7LM5pVa0o_17astraweave_render2gi21voxelization_pipeline5testss_32test_voxelization_config_default
FNDA:0,_RNvMs1_NtNtCs5u7LM5pVa0o_17astraweave_render2gi21voxelization_pipelineNtB5_13VoxelMaterial11from_albedo
FNDA:0,_RNvMs1_NtNtCs5u7LM5pVa0o_17astraweave_render2gi21voxelization_pipelineNtB5_13VoxelMaterial8emissive
FNDA:0,_RNvMs3_NtNtCs5u7LM5pVa0o_17astraweave_render2gi21voxelization_pipelineNtB5_20VoxelizationPipeline11upload_mesh
FNDA:0,_RNvMs3_NtNtCs5u7LM5pVa0o_17astraweave_render2gi21voxelization_pipelineNtB5_20VoxelizationPipeline12clear_voxels
FNDA:0,_RNvMs3_NtNtCs5u7LM5pVa0o_17astraweave_render2gi21voxelization_pipelineNtB5_20VoxelizationPipeline13update_config
FNDA:0,_RNvMs3_NtNtCs5u7LM5pVa0o_17astraweave_render2gi21voxelization_pipelineNtB5_20VoxelizationPipeline13voxelize_mesh
FNDA:0,_RNvMs3_NtNtCs5u7LM5pVa0o_17astraweave_render2gi21voxelization_pipelineNtB5_20VoxelizationPipeline17bind_group_layout
FNDA:0,_RNvMs3_NtNtCs5u7LM5pVa0o_17astraweave_render2gi21voxelization_pipelineNtB5_20VoxelizationPipeline17create_bind_group
FNDA:0,_RNvMs3_NtNtCs5u7LM5pVa0o_17astraweave_render2gi21voxelization_pipelineNtB5_20VoxelizationPipeline27create_bind_group_for_clear
FNDA:0,_RNvMs3_NtNtCs5u7LM5pVa0o_17astraweave_render2gi21voxelization_pipelineNtB5_20VoxelizationPipeline3new
FNDA:0,_RNvMs3_NtNtCs5u7LM5pVa0o_17astraweave_render2gi21voxelization_pipelineNtB5_20VoxelizationPipeline5stats
FNDA:0,_RNvMs3_NtNtCs5u7LM5pVa0o_17astraweave_render2gi21voxelization_pipelineNtB5_20VoxelizationPipeline6config
FNDA:1,_RNvMs2_NtNtCs5u7LM5pVa0o_17astraweave_render2gi21voxelization_pipelineNtB5_16VoxelizationMesh14triangle_count
FNDA:1,_RNvMs2_NtNtCs5u7LM5pVa0o_17astraweave_render2gi21voxelization_pipelineNtB5_16VoxelizationMesh3new
FNDA:3,_RNvMs_NtNtCs5u7LM5pVa0o_17astraweave_render2gi21voxelization_pipelineNtB4_11VoxelVertex3new
FNDA:1,_RNvXNtNtCs5u7LM5pVa0o_17astraweave_render2gi21voxelization_pipelineNtB2_18VoxelizationConfigNtNtCsixiwFwjEgS7_4core7default7Default7default
FNDA:1,_RNvXs0_NtNtCs5u7LM5pVa0o_17astraweave_render2gi21voxelization_pipelineNtB5_13VoxelMaterialNtNtCsixiwFwjEgS7_4core7default7Default7default
FNF:21
FNH:9
DA:25,1
DA:26,1
DA:27,1
DA:28,1
DA:29,1
DA:30,1
DA:31,1
DA:32,1
DA:46,3
DA:47,3
DA:48,3
DA:49,3
DA:50,3
DA:51,3
DA:69,1
DA:70,1
DA:71,1
DA:72,1
DA:73,1
DA:74,1
DA:75,1
DA:76,1
DA:80,0
DA:81,0
DA:82,0
DA:83,0
DA:84,0
DA:85,0
DA:87,0
DA:88,0
DA:89,0
DA:90,0
DA:91,0
DA:92,0
DA:103,1
DA:104,1
DA:105,1
DA:106,1
DA:107,1
DA:108,1
DA:109,1
DA:111,1
DA:112,1
DA:113,1
DA:150,0
DA:152,0
DA:153,0
DA:154,0
DA:155,0
DA:156,0
DA:159,0
DA:160,0
DA:161,0
DA:162,0
DA:163,0
DA:164,0
DA:165,0
DA:166,0
DA:167,0
DA:168,0
DA:169,0
DA:170,0
DA:171,0
DA:172,0
DA:173,0
DA:174,0
DA:175,0
DA:176,0
DA:177,0
DA:178,0
DA:179,0
DA:180,0
DA:181,0
DA:182,0
DA:183,0
DA:184,0
DA:185,0
DA:186,0
DA:187,0
DA:188,0
DA:189,0
DA:190,0
DA:191,0
DA:192,0
DA:193,0
DA:194,0
DA:195,0
DA:196,0
DA:197,0
DA:198,0
DA:199,0
DA:200,0
DA:201,0
DA:202,0
DA:203,0
DA:204,0
DA:205,0
DA:206,0
DA:207,0
DA:208,0
DA:209,0
DA:210,0
DA:211,0
DA:212,0
DA:213,0
DA:214,0
DA:215,0
DA:216,0
DA:217,0
DA:218,0
DA:221,0
DA:222,0
DA:223,0
DA:224,0
DA:225,0
DA:226,0
DA:228,0
DA:229,0
DA:230,0
DA:231,0
DA:232,0
DA:233,0
DA:234,0
DA:235,0
DA:238,0
DA:239,0
DA:240,0
DA:241,0
DA:242,0
DA:243,0
DA:244,0
DA:245,0
DA:248,0
DA:249,0
DA:250,0
DA:251,0
DA:252,0
DA:255,0
DA:256,0
DA:257,0
DA:258,0
DA:259,0
DA:260,0
DA:262,0
DA:263,0
DA:264,0
DA:265,0
DA:266,0
DA:267,0
DA:268,0
DA:269,0
DA:270,0
DA:271,0
DA:272,0
DA:273,0
DA:274,0
DA:277,0
DA:278,0
DA:279,0
DA:280,0
DA:283,0
DA:285,0
DA:286,0
DA:287,0
DA:288,0
DA:289,0
DA:290,0
DA:291,0
DA:292,0
DA:293,0
DA:294,0
DA:295,0
DA:296,0
DA:297,0
DA:298,0
DA:299,0
DA:300,0
DA:304,0
DA:305,0
DA:306,0
DA:307,0
DA:308,0
DA:309,0
DA:310,0
DA:311,0
DA:312,0
DA:313,0
DA:314,0
DA:315,0
DA:316,0
DA:317,0
DA:318,0
DA:319,0
DA:323,0
DA:324,0
DA:326,0
DA:330,0
DA:331,0
DA:332,0
DA:335,0
DA:336,0
DA:337,0
DA:340,0
DA:341,0
DA:342,0
DA:343,0
DA:344,0
DA:345,0
DA:346,0
DA:349,0
DA:351,0
DA:352,0
DA:353,0
DA:354,0
DA:356,0
DA:357,0
DA:360,0
DA:361,0
DA:362,0
DA:364,0
DA:365,0
DA:368,0
DA:369,0
DA:370,0
DA:371,0
DA:372,0
DA:373,0
DA:374,0
DA:375,0
DA:376,0
DA:379,0
DA:382,0
DA:385,0
DA:386,0
DA:387,0
DA:388,0
DA:390,0
DA:391,0
DA:394,0
DA:395,0
DA:396,0
DA:397,0
DA:399,0
DA:401,0
DA:402,0
DA:405,0
DA:406,0
DA:407,0
DA:408,0
DA:409,0
DA:411,0
DA:412,0
DA:413,0
DA:414,0
DA:415,0
DA:416,0
DA:417,0
DA:418,0
DA:420,0
DA:421,0
DA:422,0
DA:423,0
DA:424,0
DA:425,0
DA:426,0
DA:427,0
DA:428,0
DA:429,0
DA:430,0
DA:431,0
DA:432,0
DA:433,0
DA:434,0
DA:435,0
DA:436,0
DA:437,0
DA:438,0
DA:439,0
DA:440,0
DA:441,0
DA:442,0
DA:443,0
DA:444,0
DA:445,0
DA:446,0
DA:449,0
DA:450,0
DA:451,0
DA:452,0
DA:453,0
DA:455,0
DA:456,0
DA:458,0
DA:459,0
DA:460,0
DA:461,0
DA:462,0
DA:463,0
DA:464,0
DA:465,0
DA:466,0
DA:467,0
DA:468,0
DA:469,0
DA:470,0
DA:471,0
DA:472,0
DA:473,0
DA:474,0
DA:475,0
DA:476,0
DA:477,0
DA:478,0
DA:479,0
DA:480,0
DA:481,0
DA:482,0
DA:483,0
DA:484,0
DA:487,0
DA:488,0
DA:489,0
DA:492,0
DA:493,0
DA:494,0
DA:497,0
DA:498,0
DA:499,0
DA:507,1
DA:508,1
DA:509,1
DA:510,1
DA:511,1
DA:512,1
DA:515,1
DA:516,1
DA:517,1
DA:520,1
DA:521,1
DA:522,1
DA:525,1
DA:526,1
DA:527,1
DA:528,1
DA:529,1
DA:531,1
DA:532,1
DA:534,1
DA:535,1
DA:536,1
BRF:0
BRH:0
LF:350
LH:54
end_of_record
SF:C:\Users\pv2br\source\repos\AstraWeave-AI-Native-Gaming-Engine\astraweave-render\src\gi\vxgi.rs
FN:349,_RNvNtNtNtCs5u7LM5pVa0o_17astraweave_render2gi4vxgi5testss_24test_voxel_radiance_size
FN:342,_RNvNtNtNtCs5u7LM5pVa0o_17astraweave_render2gi4vxgi5testss_24test_vxgi_config_default
FN:207,_RNvMs_NtNtCs5u7LM5pVa0o_17astraweave_render2gi4vxgiNtB4_12VxgiRenderer10bind_group
FN:174,_RNvMs_NtNtCs5u7LM5pVa0o_17astraweave_render2gi4vxgiNtB4_12VxgiRenderer10mark_dirty
FN:202,_RNvMs_NtNtCs5u7LM5pVa0o_17astraweave_render2gi4vxgiNtB4_12VxgiRenderer17bind_group_layout
FN:179,_RNvMs_NtNtCs5u7LM5pVa0o_17astraweave_render2gi4vxgiNtB4_12VxgiRenderer18update_voxel_field
FN:64,_RNvMs_NtNtCs5u7LM5pVa0o_17astraweave_render2gi4vxgiNtB4_12VxgiRenderer3new
FN:212,_RNvMs_NtNtCs5u7LM5pVa0o_17astraweave_render2gi4vxgiNtB4_12VxgiRenderer6config
FN:23,_RNvXNtNtCs5u7LM5pVa0o_17astraweave_render2gi4vxgiNtB2_10VxgiConfigNtNtCsixiwFwjEgS7_4core7default7Default7default
FNDA:1,_RNvNtNtNtCs5u7LM5pVa0o_17astraweave_render2gi4vxgi5testss_24test_voxel_radiance_size
FNDA:1,_RNvNtNtNtCs5u7LM5pVa0o_17astraweave_render2gi4vxgi5testss_24test_vxgi_config_default
FNDA:0,_RNvMs_NtNtCs5u7LM5pVa0o_17astraweave_render2gi4vxgiNtB4_12VxgiRenderer10bind_group
FNDA:0,_RNvMs_NtNtCs5u7LM5pVa0o_17astraweave_render2gi4vxgiNtB4_12VxgiRenderer10mark_dirty
FNDA:0,_RNvMs_NtNtCs5u7LM5pVa0o_17astraweave_render2gi4vxgiNtB4_12VxgiRenderer17bind_group_layout
FNDA:0,_RNvMs_NtNtCs5u7LM5pVa0o_17astraweave_render2gi4vxgiNtB4_12VxgiRenderer18update_voxel_field
FNDA:0,_RNvMs_NtNtCs5u7LM5pVa0o_17astraweave_render2gi4vxgiNtB4_12VxgiRenderer3new
FNDA:0,_RNvMs_NtNtCs5u7LM5pVa0o_17astraweave_render2gi4vxgiNtB4_12VxgiRenderer6config
FNDA:1,_RNvXNtNtCs5u7LM5pVa0o_17astraweave_render2gi4vxgiNtB2_10VxgiConfigNtNtCsixiwFwjEgS7_4core7default7Default7default
FNF:9
FNH:3
DA:23,1
DA:24,1
DA:25,1
DA:26,1
DA:27,1
DA:28,1
DA:29,1
DA:30,1
DA:31,1
DA:64,0
DA:66,0
DA:67,0
DA:68,0
DA:69,0
DA:70,0
DA:71,0
DA:72,0
DA:73,0
DA:74,0
DA:75,0
DA:76,0
DA:77,0
DA:78,0
DA:79,0
DA:80,0
DA:81,0
DA:83,0
DA:84,0
DA:85,0
DA:86,0
DA:87,0
DA:88,0
DA:89,0
DA:90,0
DA:91,0
DA:92,0
DA:93,0
DA:95,0
DA:96,0
DA:97,0
DA:98,0
DA:99,0
DA:100,0
DA:101,0
DA:102,0
DA:103,0
DA:104,0
DA:107,0
DA:108,0
DA:109,0
DA:110,0
DA:111,0
DA:112,0
DA:113,0
DA:114,0
DA:115,0
DA:116,0
DA:117,0
DA:118,0
DA:119,0
DA:120,0
DA:121,0
DA:122,0
DA:123,0
DA:124,0
DA:125,0
DA:126,0
DA:127,0
DA:128,0
DA:130,0
DA:131,0
DA:132,0
DA:133,0
DA:134,0
DA:135,0
DA:136,0
DA:137,0
DA:138,0
DA:139,0
DA:140,0
DA:141,0
DA:142,0
DA:143,0
DA:146,0
DA:147,0
DA:148,0
DA:149,0
DA:151,0
DA:152,0
DA:153,0
DA:154,0
DA:155,0
DA:156,0
DA:157,0
DA:158,0
DA:159,0
DA:161,0
DA:162,0
DA:163,0
DA:164,0
DA:165,0
DA:166,0
DA:167,0
DA:168,0
DA:169,0
DA:170,0
DA:171,0
DA:174,0
DA:175,0
DA:176,0
DA:179,0
DA:180,0
DA:181,0
DA:182,0
DA:185,0
DA:186,0
DA:187,0
DA:188,0
DA:190,0
DA:192,0
DA:193,0
DA:194,0
DA:196,0
DA:198,0
DA:199,0
DA:202,0
DA:203,0
DA:204,0
DA:207,0
DA:208,0
DA:209,0
DA:212,0
DA:213,0
DA:214,0
DA:342,1
DA:343,1
DA:344,1
DA:345,1
DA:346,1
DA:349,1
DA:350,1
DA:351,1
BRF:0
BRH:0
LF:142
LH:17
end_of_record
SF:C:\Users\pv2br\source\repos\AstraWeave-AI-Native-Gaming-Engine\astraweave-render\src\graph.rs
FN:298,_RNvNtNtCs5u7LM5pVa0o_17astraweave_render5graph5testss_26render_graph_runs_in_order
FN:323,_RNvNtNtCs5u7LM5pVa0o_17astraweave_render5graph5testss_32resource_table_transient_texture
FN:291,_RNvXNtNtCs5u7LM5pVa0o_17astraweave_render5graph5testsNtB2_8TestNodeNtB4_10RenderNode3run
FN:288,_RNvXNtNtCs5u7LM5pVa0o_17astraweave_render5graph5testsNtB2_8TestNodeNtB4_10RenderNode4name
FN:127,_RNCNvMs_NtCs5u7LM5pVa0o_17astraweave_render5graphNtB6_13ResourceTable3tex0B8_
FN:178,_RINvMs0_NtCs5u7LM5pVa0o_17astraweave_render5graphNtB6_9ClearNode3newppEB8_
FN:226,_RINvMs2_NtCs5u7LM5pVa0o_17astraweave_render5graphNtB6_16RendererMainNode3newppEB8_
FN:74,_RINvMs_NtCs5u7LM5pVa0o_17astraweave_render5graphNtB5_13ResourceTable10insert_bufpEB7_
FN:68,_RINvMs_NtCs5u7LM5pVa0o_17astraweave_render5graphNtB5_13ResourceTable11insert_viewpEB7_
FN:77,_RINvMs_NtCs5u7LM5pVa0o_17astraweave_render5graphNtB5_13ResourceTable17insert_bind_grouppEB7_
FN:117,_RNCNvMs_NtCs5u7LM5pVa0o_17astraweave_render5graphNtB6_13ResourceTable10bind_group0B8_
FN:84,_RNCNvMs_NtCs5u7LM5pVa0o_17astraweave_render5graphNtB6_13ResourceTable4view0B8_
FN:94,_RNCNvMs_NtCs5u7LM5pVa0o_17astraweave_render5graphNtB6_13ResourceTable8view_mut0B8_
FN:61,_RNvMNtCs5u7LM5pVa0o_17astraweave_render5graphNtB2_12GraphContext17with_primary_view
FN:49,_RNvMNtCs5u7LM5pVa0o_17astraweave_render5graphNtB2_12GraphContext8with_gpu
FN:113,_RNvMs_NtCs5u7LM5pVa0o_17astraweave_render5graphNtB4_13ResourceTable10bind_group
FN:101,_RNvMs_NtCs5u7LM5pVa0o_17astraweave_render5graphNtB4_13ResourceTable11target_view
FN:80,_RNvMs_NtCs5u7LM5pVa0o_17astraweave_render5graphNtB4_13ResourceTable4view
FN:90,_RNvMs_NtCs5u7LM5pVa0o_17astraweave_render5graphNtB4_13ResourceTable8view_mut
FN:191,_RNvXs1_NtCs5u7LM5pVa0o_17astraweave_render5graphNtB5_9ClearNodeNtB5_10RenderNode3run
FN:188,_RNvXs1_NtCs5u7LM5pVa0o_17astraweave_render5graphNtB5_9ClearNodeNtB5_10RenderNode4name
FN:238,_RNvXs3_NtCs5u7LM5pVa0o_17astraweave_render5graphNtB5_16RendererMainNodeNtB5_10RenderNode3run
FN:235,_RNvXs3_NtCs5u7LM5pVa0o_17astraweave_render5graphNtB5_16RendererMainNodeNtB5_10RenderNode4name
FN:263,_RINvMs5_NtCs5u7LM5pVa0o_17astraweave_render5graphNtB6_11RenderGraph8add_nodeNtNtB6_5tests8TestNodeEB8_
FN:71,_RINvMs_NtCs5u7LM5pVa0o_17astraweave_render5graphNtB5_13ResourceTable10insert_texRNtNtCs6L9tbza1LrC_5alloc6string6StringEB7_
FN:136,_RINvMs_NtCs5u7LM5pVa0o_17astraweave_render5graphNtB5_13ResourceTable24create_transient_textureReEB7_
FN:37,_RNvMNtCs5u7LM5pVa0o_17astraweave_render5graphNtB2_12GraphContext3new
FN:259,_RNvMs5_NtCs5u7LM5pVa0o_17astraweave_render5graphNtB5_11RenderGraph3new
FN:271,_RNvMs5_NtCs5u7LM5pVa0o_17astraweave_render5graphNtB5_11RenderGraph7execute
FN:123,_RNvMs_NtCs5u7LM5pVa0o_17astraweave_render5graphNtB4_13ResourceTable3tex
FN:253,_RNvXs4_NtCs5u7LM5pVa0o_17astraweave_render5graphNtB5_11RenderGraphNtNtCsixiwFwjEgS7_4core7default7Default7default
FNDA:1,_RNvNtNtCs5u7LM5pVa0o_17astraweave_render5graph5testss_26render_graph_runs_in_order
FNDA:1,_RNvNtNtCs5u7LM5pVa0o_17astraweave_render5graph5testss_32resource_table_transient_texture
FNDA:3,_RNvXNtNtCs5u7LM5pVa0o_17astraweave_render5graph5testsNtB2_8TestNodeNtB4_10RenderNode3run
FNDA:0,_RNvXNtNtCs5u7LM5pVa0o_17astraweave_render5graph5testsNtB2_8TestNodeNtB4_10RenderNode4name
FNDA:0,_RNCNvMs_NtCs5u7LM5pVa0o_17astraweave_render5graphNtB6_13ResourceTable3tex0B8_
FNDA:0,_RINvMs0_NtCs5u7LM5pVa0o_17astraweave_render5graphNtB6_9ClearNode3newppEB8_
FNDA:0,_RINvMs2_NtCs5u7LM5pVa0o_17astraweave_render5graphNtB6_16RendererMainNode3newppEB8_
FNDA:0,_RINvMs_NtCs5u7LM5pVa0o_17astraweave_render5graphNtB5_13ResourceTable10insert_bufpEB7_
FNDA:0,_RINvMs_NtCs5u7LM5pVa0o_17astraweave_render5graphNtB5_13ResourceTable11insert_viewpEB7_
FNDA:0,_RINvMs_NtCs5u7LM5pVa0o_17astraweave_render5graphNtB5_13ResourceTable17insert_bind_grouppEB7_
FNDA:0,_RNCNvMs_NtCs5u7LM5pVa0o_17astraweave_render5graphNtB6_13ResourceTable10bind_group0B8_
FNDA:0,_RNCNvMs_NtCs5u7LM5pVa0o_17astraweave_render5graphNtB6_13ResourceTable4view0B8_
FNDA:0,_RNCNvMs_NtCs5u7LM5pVa0o_17astraweave_render5graphNtB6_13ResourceTable8view_mut0B8_
FNDA:0,_RNvMNtCs5u7LM5pVa0o_17astraweave_render5graphNtB2_12GraphContext17with_primary_view
FNDA:0,_RNvMNtCs5u7LM5pVa0o_17astraweave_render5graphNtB2_12GraphContext8with_gpu
FNDA:0,_RNvMs_NtCs5u7LM5pVa0o_17astraweave_render5graphNtB4_13ResourceTable10bind_group
FNDA:0,_RNvMs_NtCs5u7LM5pVa0o_17astraweave_render5graphNtB4_13ResourceTable11target_view
FNDA:0,_RNvMs_NtCs5u7LM5pVa0o_17astraweave_render5graphNtB4_13ResourceTable4view
FNDA:0,_RNvMs_NtCs5u7LM5pVa0o_17astraweave_render5graphNtB4_13ResourceTable8view_mut
FNDA:0,_RNvXs1_NtCs5u7LM5pVa0o_17astraweave_render5graphNtB5_9ClearNodeNtB5_10RenderNode3run
FNDA:0,_RNvXs1_NtCs5u7LM5pVa0o_17astraweave_render5graphNtB5_9ClearNodeNtB5_10RenderNode4name
FNDA:0,_RNvXs3_NtCs5u7LM5pVa0o_17astraweave_render5graphNtB5_16RendererMainNodeNtB5_10RenderNode3run
FNDA:0,_RNvXs3_NtCs5u7LM5pVa0o_17astraweave_render5graphNtB5_16RendererMainNodeNtB5_10RenderNode4name
FNDA:3,_RINvMs5_NtCs5u7LM5pVa0o_17astraweave_render5graphNtB6_11RenderGraph8add_nodeNtNtB6_5tests8TestNodeEB8_
FNDA:1,_RINvMs_NtCs5u7LM5pVa0o_17astraweave_render5graphNtB5_13ResourceTable10insert_texRNtNtCs6L9tbza1LrC_5alloc6string6StringEB7_
FNDA:1,_RINvMs_NtCs5u7LM5pVa0o_17astraweave_render5graphNtB5_13ResourceTable24create_transient_textureReEB7_
FNDA:1,_RNvMNtCs5u7LM5pVa0o_17astraweave_render5graphNtB2_12GraphContext3new
FNDA:1,_RNvMs5_NtCs5u7LM5pVa0o_17astraweave_render5graphNtB5_11RenderGraph3new
FNDA:1,_RNvMs5_NtCs5u7LM5pVa0o_17astraweave_render5graphNtB5_11RenderGraph7execute
FNDA:1,_RNvMs_NtCs5u7LM5pVa0o_17astraweave_render5graphNtB4_13ResourceTable3tex
FNDA:1,_RNvXs4_NtCs5u7LM5pVa0o_17astraweave_render5graphNtB5_11RenderGraphNtNtCsixiwFwjEgS7_4core7default7Default7default
FNF:31
FNH:11
DA:37,1
DA:38,1
DA:39,1
DA:40,1
DA:41,1
DA:42,1
DA:43,1
DA:44,1
DA:45,1
DA:46,1
DA:49,0
DA:50,0
DA:51,0
DA:52,0
DA:53,0
DA:54,0
DA:55,0
DA:56,0
DA:57,0
DA:58,0
DA:59,0
DA:61,0
DA:62,0
DA:63,0
DA:64,0
DA:68,0
DA:69,0
DA:70,0
DA:71,1
DA:72,1
DA:73,1
DA:74,0
DA:75,0
DA:76,0
DA:77,0
DA:78,0
DA:79,0
DA:80,0
DA:81,0
DA:82,0
DA:83,0
DA:84,0
DA:86,0
DA:87,0
DA:89,0
DA:90,0
DA:91,0
DA:92,0
DA:93,0
DA:94,0
DA:96,0
DA:97,0
DA:99,0
DA:101,0
DA:102,0
DA:103,0
DA:104,0
DA:105,0
DA:106,0
DA:107,0
DA:108,0
DA:109,0
DA:110,0
DA:111,0
DA:112,0
DA:113,0
DA:114,0
DA:115,0
DA:116,0
DA:117,0
DA:119,0
DA:120,0
DA:122,0
DA:123,1
DA:124,1
DA:125,1
DA:126,1
DA:127,1
DA:129,1
DA:130,0
DA:132,1
DA:136,1
DA:137,1
DA:138,1
DA:139,1
DA:140,1
DA:141,1
DA:142,1
DA:143,1
DA:144,1
DA:146,1
DA:147,1
DA:148,1
DA:149,1
DA:151,1
DA:152,0
DA:154,1
DA:178,0
DA:179,0
DA:180,0
DA:181,0
DA:182,0
DA:183,0
DA:184,0
DA:188,0
DA:189,0
DA:190,0
DA:191,0
DA:192,0
DA:193,0
DA:194,0
DA:195,0
DA:196,0
DA:197,0
DA:198,0
DA:199,0
DA:200,0
DA:201,0
DA:202,0
DA:203,0
DA:204,0
DA:205,0
DA:206,0
DA:207,0
DA:208,0
DA:209,0
DA:210,0
DA:211,0
DA:212,0
DA:213,0
DA:214,0
DA:215,0
DA:216,0
DA:226,0
DA:227,0
DA:228,0
DA:229,0
DA:230,0
DA:231,0
DA:235,0
DA:236,0
DA:237,0
DA:238,0
DA:241,0
DA:242,0
DA:243,0
DA:244,0
DA:245,0
DA:246,0
DA:247,0
DA:248,0
DA:249,0
DA:253,1
DA:254,1
DA:255,1
DA:259,1
DA:260,1
DA:261,1
DA:263,3
DA:264,3
DA:265,3
DA:267,3
DA:268,3
DA:271,1
DA:272,3
DA:273,3
DA:275,1
DA:276,1
DA:288,0
DA:289,0
DA:290,0
DA:291,3
DA:292,3
DA:293,3
DA:294,3
DA:298,1
DA:299,1
DA:300,1
DA:301,1
DA:302,1
DA:303,1
DA:304,1
DA:305,1
DA:306,1
DA:307,1
DA:308,1
DA:309,1
DA:310,1
DA:311,1
DA:312,1
DA:313,1
DA:314,1
DA:315,1
DA:316,1
DA:317,1
DA:320,1
DA:323,1
DA:325,1
DA:326,1
DA:327,1
DA:328,1
DA:329,1
DA:330,1
DA:331,1
DA:332,1
DA:333,1
DA:334,1
DA:336,1
DA:337,1
DA:338,1
DA:339,1
DA:340,1
DA:341,1
DA:342,1
DA:343,1
DA:344,1
DA:345,1
DA:346,1
DA:347,1
DA:348,1
DA:349,1
DA:350,1
DA:351,1
DA:352,1
DA:353,1
DA:354,1
DA:355,1
DA:356,1
DA:358,1
DA:359,1
DA:360,1
BRF:0
BRH:0
LF:235
LH:111
end_of_record
SF:C:\Users\pv2br\source\repos\AstraWeave-AI-Native-Gaming-Engine\astraweave-render\src\graph_adapter.rs
FN:12,_RNCNvNtCs5u7LM5pVa0o_17astraweave_render13graph_adapter21run_graph_on_renderer0B5_
FN:18,_RNCNvNtCs5u7LM5pVa0o_17astraweave_render13graph_adapter21run_graph_on_renderers_0B5_
FN:4,_RNvNtCs5u7LM5pVa0o_17astraweave_render13graph_adapter21run_graph_on_renderer
FNDA:0,_RNCNvNtCs5u7LM5pVa0o_17astraweave_render13graph_adapter21run_graph_on_renderer0B5_
FNDA:0,_RNCNvNtCs5u7LM5pVa0o_17astraweave_render13graph_adapter21run_graph_on_renderers_0B5_
FNDA:0,_RNvNtCs5u7LM5pVa0o_17astraweave_render13graph_adapter21run_graph_on_renderer
FNF:3
FNH:0
DA:4,0
DA:5,0
DA:6,0
DA:7,0
DA:10,0
DA:11,0
DA:12,0
DA:13,0
DA:14,0
DA:15,0
DA:16,0
DA:17,0
DA:18,0
DA:19,0
BRF:0
BRH:0
LF:17
LH:0
end_of_record
SF:C:\Users\pv2br\source\repos\AstraWeave-AI-Native-Gaming-Engine\astraweave-render\src\ibl.rs
FN:38,_RNvMNtCs5u7LM5pVa0o_17astraweave_render3iblNtB2_10IblQuality15irradiance_size
FN:28,_RNvMNtCs5u7LM5pVa0o_17astraweave_render3iblNtB2_10IblQuality8env_size
FN:44,_RNvMNtCs5u7LM5pVa0o_17astraweave_render3iblNtB2_10IblQuality9spec_mips
FN:35,_RNvMNtCs5u7LM5pVa0o_17astraweave_render3iblNtB2_10IblQuality9spec_size
FN:1429,_RNvNtNtCs5u7LM5pVa0o_17astraweave_render3ibl5testss_18test_face_indexing
FN:1343,_RNvNtNtCs5u7LM5pVa0o_17astraweave_render3ibl5testss_22test_sky_mode_creation
FN:1322,_RNvNtNtCs5u7LM5pVa0o_17astraweave_render3ibl5testss_24test_ibl_quality_presets
FN:1456,_RNvNtNtCs5u7LM5pVa0o_17astraweave_render3ibl5testss_25test_ibl_resources_struct
FN:1398,_RNvNtNtCs5u7LM5pVa0o_17astraweave_render3ibl5testss_28test_sample_count_by_quality
FN:1437,_RNvNtNtCs5u7LM5pVa0o_17astraweave_render3ibl5testss_29test_uniform_buffer_alignment
FN:1469,_RNvNtNtCs5u7LM5pVa0o_17astraweave_render3ibl5testss_32test_shader_constant_consistency
FN:1375,_RNvNtNtCs5u7LM5pVa0o_17astraweave_render3ibl5testss_43test_prefilter_params_roughness_calculation
FN:41,_RNvMNtCs5u7LM5pVa0o_17astraweave_render3iblNtB2_10IblQuality13brdf_lut_size
FN:528,_RNvMs_NtCs5u7LM5pVa0o_17astraweave_render3iblNtB4_10IblManager16bake_environment
FN:449,_RNvMs_NtCs5u7LM5pVa0o_17astraweave_render3iblNtB4_10IblManager17bind_group_layout
FN:957,_RNvMs_NtCs5u7LM5pVa0o_17astraweave_render3iblNtB4_10IblManager17create_bind_group
FN:110,_RNvMs_NtCs5u7LM5pVa0o_17astraweave_render3iblNtB4_10IblManager3new
FN:452,_RNvMs_NtCs5u7LM5pVa0o_17astraweave_render3iblNtB4_10IblManager7sampler
FN:1459,_RNvNvNtNtCs5u7LM5pVa0o_17astraweave_render3ibl5testss_25test_ibl_resources_struct30__assert_ibl_resources_complete
FNDA:3,_RNvMNtCs5u7LM5pVa0o_17astraweave_render3iblNtB2_10IblQuality15irradiance_size
FNDA:9,_RNvMNtCs5u7LM5pVa0o_17astraweave_render3iblNtB2_10IblQuality8env_size
FNDA:3,_RNvMNtCs5u7LM5pVa0o_17astraweave_render3iblNtB2_10IblQuality9spec_mips
FNDA:6,_RNvMNtCs5u7LM5pVa0o_17astraweave_render3iblNtB2_10IblQuality9spec_size
FNDA:1,_RNvNtNtCs5u7LM5pVa0o_17astraweave_render3ibl5testss_18test_face_indexing
FNDA:1,_RNvNtNtCs5u7LM5pVa0o_17astraweave_render3ibl5testss_22test_sky_mode_creation
FNDA:1,_RNvNtNtCs5u7LM5pVa0o_17astraweave_render3ibl5testss_24test_ibl_quality_presets
FNDA:1,_RNvNtNtCs5u7LM5pVa0o_17astraweave_render3ibl5testss_25test_ibl_resources_struct
FNDA:1,_RNvNtNtCs5u7LM5pVa0o_17astraweave_render3ibl5testss_28test_sample_count_by_quality
FNDA:1,_RNvNtNtCs5u7LM5pVa0o_17astraweave_render3ibl5testss_29test_uniform_buffer_alignment
FNDA:1,_RNvNtNtCs5u7LM5pVa0o_17astraweave_render3ibl5testss_32test_shader_constant_consistency
FNDA:1,_RNvNtNtCs5u7LM5pVa0o_17astraweave_render3ibl5testss_43test_prefilter_params_roughness_calculation
FNDA:0,_RNvMNtCs5u7LM5pVa0o_17astraweave_render3iblNtB2_10IblQuality13brdf_lut_size
FNDA:0,_RNvMs_NtCs5u7LM5pVa0o_17astraweave_render3iblNtB4_10IblManager16bake_environment
FNDA:0,_RNvMs_NtCs5u7LM5pVa0o_17astraweave_render3iblNtB4_10IblManager17bind_group_layout
FNDA:0,_RNvMs_NtCs5u7LM5pVa0o_17astraweave_render3iblNtB4_10IblManager17create_bind_group
FNDA:0,_RNvMs_NtCs5u7LM5pVa0o_17astraweave_render3iblNtB4_10IblManager3new
FNDA:0,_RNvMs_NtCs5u7LM5pVa0o_17astraweave_render3iblNtB4_10IblManager7sampler
FNDA:0,_RNvNvNtNtCs5u7LM5pVa0o_17astraweave_render3ibl5testss_25test_ibl_resources_struct30__assert_ibl_resources_complete
FNF:19
FNH:12
DA:28,9
DA:29,9
DA:30,3
DA:31,3
DA:32,3
DA:34,9
DA:35,6
DA:36,6
DA:37,6
DA:38,3
DA:39,3
DA:40,3
DA:41,0
DA:42,0
DA:43,0
DA:44,3
DA:45,3
DA:46,3
DA:47,3
DA:110,0
DA:111,0
DA:112,0
DA:113,0
DA:114,0
DA:115,0
DA:116,0
DA:117,0
DA:118,0
DA:119,0
DA:120,0
DA:121,0
DA:123,0
DA:124,0
DA:125,0
DA:126,0
DA:127,0
DA:128,0
DA:129,0
DA:130,0
DA:131,0
DA:132,0
DA:133,0
DA:134,0
DA:135,0
DA:136,0
DA:137,0
DA:138,0
DA:139,0
DA:140,0
DA:141,0
DA:142,0
DA:143,0
DA:144,0
DA:145,0
DA:146,0
DA:147,0
DA:148,0
DA:149,0
DA:150,0
DA:151,0
DA:152,0
DA:153,0
DA:154,0
DA:155,0
DA:156,0
DA:157,0
DA:158,0
DA:159,0
DA:160,0
DA:161,0
DA:162,0
DA:163,0
DA:164,0
DA:165,0
DA:166,0
DA:167,0
DA:170,0
DA:171,0
DA:172,0
DA:173,0
DA:174,0
DA:175,0
DA:176,0
DA:177,0
DA:178,0
DA:179,0
DA:180,0
DA:181,0
DA:182,0
DA:183,0
DA:184,0
DA:185,0
DA:187,0
DA:188,0
DA:189,0
DA:190,0
DA:191,0
DA:192,0
DA:193,0
DA:194,0
DA:195,0
DA:196,0
DA:197,0
DA:198,0
DA:199,0
DA:200,0
DA:201,0
DA:202,0
DA:203,0
DA:204,0
DA:205,0
DA:206,0
DA:207,0
DA:208,0
DA:209,0
DA:210,0
DA:211,0
DA:212,0
DA:213,0
DA:214,0
DA:215,0
DA:216,0
DA:219,0
DA:220,0
DA:221,0
DA:222,0
DA:223,0
DA:224,0
DA:225,0
DA:226,0
DA:227,0
DA:228,0
DA:229,0
DA:230,0
DA:231,0
DA:232,0
DA:233,0
DA:234,0
DA:235,0
DA:236,0
DA:237,0
DA:238,0
DA:239,0
DA:242,0
DA:243,0
DA:244,0
DA:245,0
DA:246,0
DA:247,0
DA:248,0
DA:249,0
DA:250,0
DA:251,0
DA:252,0
DA:253,0
DA:254,0
DA:255,0
DA:258,0
DA:259,0
DA:260,0
DA:261,0
DA:262,0
DA:263,0
DA:264,0
DA:265,0
DA:266,0
DA:267,0
DA:268,0
DA:269,0
DA:270,0
DA:271,0
DA:272,0
DA:273,0
DA:274,0
DA:275,0
DA:276,0
DA:277,0
DA:278,0
DA:279,0
DA:280,0
DA:281,0
DA:282,0
DA:283,0
DA:284,0
DA:285,0
DA:286,0
DA:287,0
DA:288,0
DA:289,0
DA:290,0
DA:291,0
DA:292,0
DA:293,0
DA:294,0
DA:295,0
DA:296,0
DA:297,0
DA:299,0
DA:300,0
DA:301,0
DA:302,0
DA:303,0
DA:304,0
DA:305,0
DA:306,0
DA:307,0
DA:308,0
DA:309,0
DA:310,0
DA:311,0
DA:312,0
DA:313,0
DA:314,0
DA:315,0
DA:316,0
DA:317,0
DA:318,0
DA:319,0
DA:320,0
DA:321,0
DA:322,0
DA:323,0
DA:325,0
DA:326,0
DA:327,0
DA:328,0
DA:329,0
DA:330,0
DA:331,0
DA:332,0
DA:333,0
DA:334,0
DA:335,0
DA:336,0
DA:337,0
DA:338,0
DA:339,0
DA:340,0
DA:341,0
DA:342,0
DA:343,0
DA:344,0
DA:345,0
DA:346,0
DA:347,0
DA:348,0
DA:349,0
DA:352,0
DA:353,0
DA:354,0
DA:355,0
DA:356,0
DA:357,0
DA:358,0
DA:359,0
DA:360,0
DA:361,0
DA:362,0
DA:363,0
DA:364,0
DA:365,0
DA:366,0
DA:367,0
DA:368,0
DA:369,0
DA:370,0
DA:371,0
DA:372,0
DA:373,0
DA:374,0
DA:375,0
DA:376,0
DA:377,0
DA:378,0
DA:379,0
DA:380,0
DA:381,0
DA:382,0
DA:383,0
DA:384,0
DA:385,0
DA:386,0
DA:387,0
DA:388,0
DA:389,0
DA:390,0
DA:391,0
DA:392,0
DA:393,0
DA:394,0
DA:395,0
DA:396,0
DA:397,0
DA:398,0
DA:399,0
DA:400,0
DA:401,0
DA:402,0
DA:403,0
DA:404,0
DA:405,0
DA:406,0
DA:407,0
DA:408,0
DA:409,0
DA:410,0
DA:411,0
DA:412,0
DA:413,0
DA:414,0
DA:415,0
DA:416,0
DA:417,0
DA:418,0
DA:419,0
DA:421,0
DA:422,0
DA:423,0
DA:424,0
DA:425,0
DA:426,0
DA:427,0
DA:428,0
DA:429,0
DA:430,0
DA:431,0
DA:432,0
DA:433,0
DA:434,0
DA:435,0
DA:436,0
DA:437,0
DA:438,0
DA:439,0
DA:440,0
DA:441,0
DA:442,0
DA:443,0
DA:445,0
DA:446,0
DA:447,0
DA:449,0
DA:450,0
DA:451,0
DA:452,0
DA:453,0
DA:454,0
DA:528,0
DA:529,0
DA:530,0
DA:531,0
DA:532,0
DA:533,0
DA:535,0
DA:536,0
DA:537,0
DA:538,0
DA:540,0
DA:541,0
DA:542,0
DA:543,0
DA:544,0
DA:545,0
DA:546,0
DA:547,0
DA:548,0
DA:549,0
DA:550,0
DA:551,0
DA:552,0
DA:553,0
DA:554,0
DA:555,0
DA:556,0
DA:557,0
DA:558,0
DA:559,0
DA:560,0
DA:561,0
DA:562,0
DA:563,0
DA:564,0
DA:565,0
DA:566,0
DA:567,0
DA:568,0
DA:569,0
DA:570,0
DA:571,0
DA:572,0
DA:573,0
DA:574,0
DA:575,0
DA:576,0
DA:577,0
DA:578,0
DA:579,0
DA:580,0
DA:581,0
DA:582,0
DA:583,0
DA:584,0
DA:585,0
DA:586,0
DA:587,0
DA:588,0
DA:589,0
DA:590,0
DA:591,0
DA:592,0
DA:593,0
DA:594,0
DA:595,0
DA:598,0
DA:599,0
DA:600,0
DA:601,0
DA:602,0
DA:603,0
DA:604,0
DA:605,0
DA:606,0
DA:607,0
DA:608,0
DA:609,0
DA:610,0
DA:611,0
DA:612,0
DA:613,0
DA:614,0
DA:615,0
DA:616,0
DA:617,0
DA:618,0
DA:621,0
DA:622,0
DA:623,0
DA:624,0
DA:625,0
DA:626,0
DA:627,0
DA:628,0
DA:629,0
DA:630,0
DA:631,0
DA:632,0
DA:633,0
DA:634,0
DA:635,0
DA:636,0
DA:637,0
DA:638,0
DA:639,0
DA:640,0
DA:641,0
DA:642,0
DA:643,0
DA:646,0
DA:648,0
DA:649,0
DA:650,0
DA:651,0
DA:652,0
DA:653,0
DA:654,0
DA:655,0
DA:656,0
DA:657,0
DA:658,0
DA:659,0
DA:660,0
DA:661,0
DA:662,0
DA:663,0
DA:664,0
DA:665,0
DA:666,0
DA:667,0
DA:668,0
DA:669,0
DA:670,0
DA:671,0
DA:672,0
DA:673,0
DA:674,0
DA:675,0
DA:676,0
DA:677,0
DA:678,0
DA:679,0
DA:680,0
DA:681,0
DA:682,0
DA:683,0
DA:684,0
DA:685,0
DA:686,0
DA:770,0
DA:777,0
DA:778,0
DA:779,0
DA:780,0
DA:781,0
DA:782,0
DA:783,0
DA:784,0
DA:785,0
DA:786,0
DA:787,0
DA:788,0
DA:789,0
DA:790,0
DA:791,0
DA:792,0
DA:793,0
DA:794,0
DA:795,0
DA:796,0
DA:797,0
DA:798,0
DA:799,0
DA:800,0
DA:801,0
DA:802,0
DA:803,0
DA:804,0
DA:805,0
DA:806,0
DA:807,0
DA:808,0
DA:809,0
DA:810,0
DA:811,0
DA:812,0
DA:813,0
DA:814,0
DA:815,0
DA:816,0
DA:817,0
DA:818,0
DA:819,0
DA:820,0
DA:821,0
DA:822,0
DA:823,0
DA:824,0
DA:825,0
DA:830,0
DA:831,0
DA:832,0
DA:833,0
DA:834,0
DA:835,0
DA:836,0
DA:837,0
DA:838,0
DA:839,0
DA:840,0
DA:841,0
DA:842,0
DA:843,0
DA:846,0
DA:847,0
DA:848,0
DA:849,0
DA:850,0
DA:851,0
DA:853,0
DA:854,0
DA:855,0
DA:857,0
DA:859,0
DA:861,0
DA:863,0
DA:864,0
DA:866,0
DA:870,0
DA:871,0
DA:873,0
DA:877,0
DA:878,0
DA:880,0
DA:885,0
DA:886,0
DA:887,0
DA:888,0
DA:889,0
DA:890,0
DA:891,0
DA:892,0
DA:893,0
DA:894,0
DA:895,0
DA:896,0
DA:897,0
DA:898,0
DA:899,0
DA:900,0
DA:901,0
DA:902,0
DA:903,0
DA:904,0
DA:905,0
DA:906,0
DA:907,0
DA:908,0
DA:909,0
DA:910,0
DA:911,0
DA:912,0
DA:913,0
DA:914,0
DA:915,0
DA:916,0
DA:917,0
DA:918,0
DA:919,0
DA:920,0
DA:921,0
DA:922,0
DA:923,0
DA:924,0
DA:925,0
DA:926,0
DA:927,0
DA:928,0
DA:929,0
DA:930,0
DA:931,0
DA:932,0
DA:933,0
DA:934,0
DA:936,0
DA:940,0
DA:941,0
DA:942,0
DA:943,0
DA:944,0
DA:945,0
DA:946,0
DA:947,0
DA:948,0
DA:949,0
DA:950,0
DA:951,0
DA:952,0
DA:953,0
DA:954,0
DA:955,0
DA:957,0
DA:958,0
DA:959,0
DA:960,0
DA:961,0
DA:962,0
DA:963,0
DA:964,0
DA:965,0
DA:966,0
DA:967,0
DA:968,0
DA:969,0
DA:970,0
DA:971,0
DA:972,0
DA:973,0
DA:974,0
DA:975,0
DA:976,0
DA:977,0
DA:978,0
DA:979,0
DA:980,0
DA:1322,1
DA:1324,1
DA:1325,1
DA:1326,1
DA:1327,1
DA:1330,1
DA:1331,1
DA:1332,1
DA:1333,1
DA:1336,1
DA:1337,1
DA:1338,1
DA:1339,1
DA:1340,1
DA:1343,1
DA:1345,1
DA:1346,1
DA:1347,1
DA:1348,1
DA:1349,1
DA:1351,1
DA:1352,1
DA:1354,1
DA:1355,1
DA:1357,0
DA:1361,1
DA:1362,1
DA:1363,1
DA:1364,1
DA:1365,1
DA:1366,1
DA:1367,1
DA:1368,1
DA:1370,0
DA:1372,1
DA:1375,1
DA:1379,1
DA:1380,10
DA:1381,10
DA:1383,10
DA:1384,1
DA:1385,9
DA:1386,1
DA:1388,8
DA:1389,8
DA:1390,0
DA:1395,1
DA:1398,1
DA:1402,1
DA:1403,1
DA:1404,1
DA:1405,1
DA:1406,0
DA:1410,1
DA:1411,1
DA:1412,1
DA:1413,1
DA:1414,1
DA:1415,0
DA:1419,1
DA:1420,1
DA:1421,1
DA:1422,1
DA:1423,1
DA:1424,0
DA:1426,1
DA:1429,1
DA:1431,7
DA:1432,6
DA:1434,1
DA:1437,1
DA:1440,1
DA:1441,1
DA:1442,1
DA:1443,1
DA:1445,1
DA:1447,1
DA:1448,1
DA:1449,1
DA:1451,0
DA:1453,1
DA:1456,1
DA:1459,0
DA:1460,0
DA:1461,0
DA:1462,0
DA:1463,0
DA:1464,0
DA:1465,0
DA:1466,1
DA:1469,1
DA:1471,1
DA:1472,1
DA:1473,1
DA:1474,0
DA:1476,1
DA:1477,1
DA:1478,0
DA:1480,1
DA:1481,1
DA:1482,0
DA:1486,1
DA:1487,1
DA:1488,0
DA:1490,1
DA:1491,1
DA:1492,0
DA:1494,1
DA:1495,1
DA:1496,0
DA:1498,1
BRF:0
BRH:0
LF:784
LH:107
end_of_record
SF:C:\Users\pv2br\source\repos\AstraWeave-AI-Native-Gaming-Engine\astraweave-render\src\instancing.rs
FN:422,_RNvNtNtCs5u7LM5pVa0o_17astraweave_render10instancing5testss_17test_grid_pattern
FN:467,_RNvNtNtCs5u7LM5pVa0o_17astraweave_render10instancing5testss_19test_batch_clearing
FN:435,_RNvNtNtCs5u7LM5pVa0o_17astraweave_render10instancing5testss_19test_circle_pattern
FN:360,_RNvNtNtCs5u7LM5pVa0o_17astraweave_render10instancing5testss_20test_instance_to_raw
FN:372,_RNvNtNtCs5u7LM5pVa0o_17astraweave_render10instancing5testss_21test_batch_management
FN:385,_RNvNtNtCs5u7LM5pVa0o_17astraweave_render10instancing5testss_21test_instance_manager
FN:348,_RNvNtNtCs5u7LM5pVa0o_17astraweave_render10instancing5testss_22test_instance_creation
FN:342,_RNvNtNtCs5u7LM5pVa0o_17astraweave_render10instancing5testss_22test_instance_raw_size
FN:402,_RNvNtNtCs5u7LM5pVa0o_17astraweave_render10instancing5testss_24test_draw_call_reduction
FN:450,_RNvNtNtCs5u7LM5pVa0o_17astraweave_render10instancing5testss_28test_pattern_with_variations
FN:128,_RNCNvMs0_NtCs5u7LM5pVa0o_17astraweave_render10instancingNtB7_13InstanceBatch13update_buffer0B9_
FN:175,_RNCNvMs1_NtCs5u7LM5pVa0o_17astraweave_render10instancingNtB7_15InstanceManager13add_instances0B9_
FN:25,_RNvMNtCs5u7LM5pVa0o_17astraweave_render10instancingNtB2_11InstanceRaw11from_matrix
FN:32,_RNvMNtCs5u7LM5pVa0o_17astraweave_render10instancingNtB2_11InstanceRaw4desc
FN:121,_RNvMs0_NtCs5u7LM5pVa0o_17astraweave_render10instancingNtB5_13InstanceBatch13update_buffer
FN:141,_RNvMs0_NtCs5u7LM5pVa0o_17astraweave_render10instancingNtB5_13InstanceBatch5clear
FN:173,_RNvMs1_NtCs5u7LM5pVa0o_17astraweave_render10instancingNtB5_15InstanceManager13add_instances
FN:196,_RNvMs1_NtCs5u7LM5pVa0o_17astraweave_render10instancingNtB5_15InstanceManager13get_batch_mut
FN:183,_RNvMs1_NtCs5u7LM5pVa0o_17astraweave_render10instancingNtB5_15InstanceManager14update_buffers
FN:201,_RNvMs1_NtCs5u7LM5pVa0o_17astraweave_render10instancingNtB5_15InstanceManager7batches
FN:191,_RNvMs1_NtCs5u7LM5pVa0o_17astraweave_render10instancingNtB5_15InstanceManager9get_batch
FN:294,_RNvMs3_NtCs5u7LM5pVa0o_17astraweave_render10instancingNtB5_22InstancePatternBuilder20with_position_jitter
FN:246,_RNvXs2_NtCs5u7LM5pVa0o_17astraweave_render10instancingNtB5_15InstanceManagerNtNtCsixiwFwjEgS7_4core7default7Default7default
FN:332,_RNvXs4_NtCs5u7LM5pVa0o_17astraweave_render10instancingNtB5_22InstancePatternBuilderNtNtCsixiwFwjEgS7_4core7default7Default7default
FN:167,_RNCNvMs1_NtCs5u7LM5pVa0o_17astraweave_render10instancingNtB7_15InstanceManager12add_instance0B9_
FN:18,_RNvMNtCs5u7LM5pVa0o_17astraweave_render10instancingNtB2_11InstanceRaw14from_transform
FN:112,_RNvMs0_NtCs5u7LM5pVa0o_17astraweave_render10instancingNtB5_13InstanceBatch12add_instance
FN:116,_RNvMs0_NtCs5u7LM5pVa0o_17astraweave_render10instancingNtB5_13InstanceBatch14instance_count
FN:104,_RNvMs0_NtCs5u7LM5pVa0o_17astraweave_render10instancingNtB5_13InstanceBatch3new
FN:218,_RNvMs1_NtCs5u7LM5pVa0o_17astraweave_render10instancingNtB5_15InstanceManager11batch_count
FN:166,_RNvMs1_NtCs5u7LM5pVa0o_17astraweave_render10instancingNtB5_15InstanceManager12add_instance
FN:213,_RNvMs1_NtCs5u7LM5pVa0o_17astraweave_render10instancingNtB5_15InstanceManager15total_instances
FN:223,_RNvMs1_NtCs5u7LM5pVa0o_17astraweave_render10instancingNtB5_15InstanceManager16draw_calls_saved
FN:228,_RNvMs1_NtCs5u7LM5pVa0o_17astraweave_render10instancingNtB5_15InstanceManager27calculate_draw_call_savings
FN:237,_RNvMs1_NtCs5u7LM5pVa0o_17astraweave_render10instancingNtB5_15InstanceManager27draw_call_reduction_percent
FN:157,_RNvMs1_NtCs5u7LM5pVa0o_17astraweave_render10instancingNtB5_15InstanceManager3new
FN:206,_RNvMs1_NtCs5u7LM5pVa0o_17astraweave_render10instancingNtB5_15InstanceManager5clear
FN:305,_RNvMs3_NtCs5u7LM5pVa0o_17astraweave_render10instancingNtB5_22InstancePatternBuilder20with_scale_variation
FN:316,_RNvMs3_NtCs5u7LM5pVa0o_17astraweave_render10instancingNtB5_22InstancePatternBuilder22with_random_rotation_y
FN:257,_RNvMs3_NtCs5u7LM5pVa0o_17astraweave_render10instancingNtB5_22InstancePatternBuilder3new
FN:262,_RNvMs3_NtCs5u7LM5pVa0o_17astraweave_render10instancingNtB5_22InstancePatternBuilder4grid
FN:326,_RNvMs3_NtCs5u7LM5pVa0o_17astraweave_render10instancingNtB5_22InstancePatternBuilder5build
FN:278,_RNvMs3_NtCs5u7LM5pVa0o_17astraweave_render10instancingNtB5_22InstancePatternBuilder6circle
FN:75,_RNvMs_NtCs5u7LM5pVa0o_17astraweave_render10instancingNtB4_8Instance3new
FN:87,_RNvMs_NtCs5u7LM5pVa0o_17astraweave_render10instancingNtB4_8Instance6to_raw
FN:79,_RNvMs_NtCs5u7LM5pVa0o_17astraweave_render10instancingNtB4_8Instance8identity
FNDA:1,_RNvNtNtCs5u7LM5pVa0o_17astraweave_render10instancing5testss_17test_grid_pattern
FNDA:1,_RNvNtNtCs5u7LM5pVa0o_17astraweave_render10instancing5testss_19test_batch_clearing
FNDA:1,_RNvNtNtCs5u7LM5pVa0o_17astraweave_render10instancing5testss_19test_circle_pattern
FNDA:1,_RNvNtNtCs5u7LM5pVa0o_17astraweave_render10instancing5testss_20test_instance_to_raw
FNDA:1,_RNvNtNtCs5u7LM5pVa0o_17astraweave_render10instancing5testss_21test_batch_management
FNDA:1,_RNvNtNtCs5u7LM5pVa0o_17astraweave_render10instancing5testss_21test_instance_manager
FNDA:1,_RNvNtNtCs5u7LM5pVa0o_17astraweave_render10instancing5testss_22test_instance_creation
FNDA:1,_RNvNtNtCs5u7LM5pVa0o_17astraweave_render10instancing5testss_22test_instance_raw_size
FNDA:1,_RNvNtNtCs5u7LM5pVa0o_17astraweave_render10instancing5testss_24test_draw_call_reduction
FNDA:1,_RNvNtNtCs5u7LM5pVa0o_17astraweave_render10instancing5testss_28test_pattern_with_variations
FNDA:0,_RNCNvMs0_NtCs5u7LM5pVa0o_17astraweave_render10instancingNtB7_13InstanceBatch13update_buffer0B9_
FNDA:0,_RNCNvMs1_NtCs5u7LM5pVa0o_17astraweave_render10instancingNtB7_15InstanceManager13add_instances0B9_
FNDA:0,_RNvMNtCs5u7LM5pVa0o_17astraweave_render10instancingNtB2_11InstanceRaw11from_matrix
FNDA:0,_RNvMNtCs5u7LM5pVa0o_17astraweave_render10instancingNtB2_11InstanceRaw4desc
FNDA:0,_RNvMs0_NtCs5u7LM5pVa0o_17astraweave_render10instancingNtB5_13InstanceBatch13update_buffer
FNDA:0,_RNvMs0_NtCs5u7LM5pVa0o_17astraweave_render10instancingNtB5_13InstanceBatch5clear
FNDA:0,_RNvMs1_NtCs5u7LM5pVa0o_17astraweave_render10instancingNtB5_15InstanceManager13add_instances
FNDA:0,_RNvMs1_NtCs5u7LM5pVa0o_17astraweave_render10instancingNtB5_15InstanceManager13get_batch_mut
FNDA:0,_RNvMs1_NtCs5u7LM5pVa0o_17astraweave_render10instancingNtB5_15InstanceManager14update_buffers
FNDA:0,_RNvMs1_NtCs5u7LM5pVa0o_17astraweave_render10instancingNtB5_15InstanceManager7batches
FNDA:0,_RNvMs1_NtCs5u7LM5pVa0o_17astraweave_render10instancingNtB5_15InstanceManager9get_batch
FNDA:0,_RNvMs3_NtCs5u7LM5pVa0o_17astraweave_render10instancingNtB5_22InstancePatternBuilder20with_position_jitter
FNDA:0,_RNvXs2_NtCs5u7LM5pVa0o_17astraweave_render10instancingNtB5_15InstanceManagerNtNtCsixiwFwjEgS7_4core7default7Default7default
FNDA:0,_RNvXs4_NtCs5u7LM5pVa0o_17astraweave_render10instancingNtB5_22InstancePatternBuilderNtNtCsixiwFwjEgS7_4core7default7Default7default
FNDA:5,_RNCNvMs1_NtCs5u7LM5pVa0o_17astraweave_render10instancingNtB7_15InstanceManager12add_instance0B9_
FNDA:1,_RNvMNtCs5u7LM5pVa0o_17astraweave_render10instancingNtB2_11InstanceRaw14from_transform
FNDA:107,_RNvMs0_NtCs5u7LM5pVa0o_17astraweave_render10instancingNtB5_13InstanceBatch12add_instance
FNDA:2,_RNvMs0_NtCs5u7LM5pVa0o_17astraweave_render10instancingNtB5_13InstanceBatch14instance_count
FNDA:6,_RNvMs0_NtCs5u7LM5pVa0o_17astraweave_render10instancingNtB5_13InstanceBatch3new
FNDA:2,_RNvMs1_NtCs5u7LM5pVa0o_17astraweave_render10instancingNtB5_15InstanceManager11batch_count
FNDA:105,_RNvMs1_NtCs5u7LM5pVa0o_17astraweave_render10instancingNtB5_15InstanceManager12add_instance
FNDA:3,_RNvMs1_NtCs5u7LM5pVa0o_17astraweave_render10instancingNtB5_15InstanceManager15total_instances
FNDA:2,_RNvMs1_NtCs5u7LM5pVa0o_17astraweave_render10instancingNtB5_15InstanceManager16draw_calls_saved
FNDA:2,_RNvMs1_NtCs5u7LM5pVa0o_17astraweave_render10instancingNtB5_15InstanceManager27calculate_draw_call_savings
FNDA:1,_RNvMs1_NtCs5u7LM5pVa0o_17astraweave_render10instancingNtB5_15InstanceManager27draw_call_reduction_percent
FNDA:3,_RNvMs1_NtCs5u7LM5pVa0o_17astraweave_render10instancingNtB5_15InstanceManager3new
FNDA:1,_RNvMs1_NtCs5u7LM5pVa0o_17astraweave_render10instancingNtB5_15InstanceManager5clear
FNDA:1,_RNvMs3_NtCs5u7LM5pVa0o_17astraweave_render10instancingNtB5_22InstancePatternBuilder20with_scale_variation
FNDA:1,_RNvMs3_NtCs5u7LM5pVa0o_17astraweave_render10instancingNtB5_22InstancePatternBuilder22with_random_rotation_y
FNDA:3,_RNvMs3_NtCs5u7LM5pVa0o_17astraweave_render10instancingNtB5_22InstancePatternBuilder3new
FNDA:2,_RNvMs3_NtCs5u7LM5pVa0o_17astraweave_render10instancingNtB5_22InstancePatternBuilder4grid
FNDA:3,_RNvMs3_NtCs5u7LM5pVa0o_17astraweave_render10instancingNtB5_22InstancePatternBuilder5build
FNDA:1,_RNvMs3_NtCs5u7LM5pVa0o_17astraweave_render10instancingNtB5_22InstancePatternBuilder6circle
FNDA:22,_RNvMs_NtCs5u7LM5pVa0o_17astraweave_render10instancingNtB4_8Instance3new
FNDA:1,_RNvMs_NtCs5u7LM5pVa0o_17astraweave_render10instancingNtB4_8Instance6to_raw
FNDA:108,_RNvMs_NtCs5u7LM5pVa0o_17astraweave_render10instancingNtB4_8Instance8identity
FNF:46
FNH:32
DA:18,1
DA:19,1
DA:20,1
DA:21,1
DA:22,1
DA:23,1
DA:25,0
DA:26,0
DA:27,0
DA:28,0
DA:29,0
DA:32,0
DA:33,0
DA:34,0
DA:35,0
DA:36,0
DA:37,0
DA:38,0
DA:39,0
DA:40,0
DA:41,0
DA:42,0
DA:43,0
DA:44,0
DA:45,0
DA:46,0
DA:47,0
DA:48,0
DA:49,0
DA:50,0
DA:51,0
DA:52,0
DA:53,0
DA:54,0
DA:55,0
DA:56,0
DA:57,0
DA:58,0
DA:59,0
DA:60,0
DA:61,0
DA:62,0
DA:63,0
DA:75,22
DA:76,22
DA:77,22
DA:79,108
DA:80,108
DA:81,108
DA:82,108
DA:83,108
DA:84,108
DA:85,108
DA:87,1
DA:88,1
DA:89,1
DA:104,6
DA:105,6
DA:106,6
DA:107,6
DA:108,6
DA:109,6
DA:110,6
DA:112,107
DA:113,107
DA:114,107
DA:116,2
DA:117,2
DA:118,2
DA:121,0
DA:122,0
DA:123,0
DA:124,0
DA:125,0
DA:127,0
DA:128,0
DA:129,0
DA:131,0
DA:132,0
DA:133,0
DA:134,0
DA:135,0
DA:137,0
DA:138,0
DA:141,0
DA:142,0
DA:143,0
DA:157,3
DA:158,3
DA:159,3
DA:160,3
DA:161,3
DA:162,3
DA:163,3
DA:166,105
DA:167,105
DA:168,105
DA:169,105
DA:170,105
DA:173,0
DA:174,0
DA:175,0
DA:176,0
DA:177,0
DA:178,0
DA:179,0
DA:180,0
DA:183,0
DA:184,0
DA:185,0
DA:186,0
DA:187,0
DA:188,0
DA:191,0
DA:192,0
DA:193,0
DA:196,0
DA:197,0
DA:198,0
DA:201,0
DA:202,0
DA:203,0
DA:206,1
DA:207,1
DA:208,1
DA:209,1
DA:210,1
DA:213,3
DA:214,3
DA:215,3
DA:218,2
DA:219,2
DA:220,2
DA:223,2
DA:224,2
DA:225,2
DA:228,2
DA:231,2
DA:232,2
DA:233,2
DA:234,2
DA:237,1
DA:238,1
DA:239,0
DA:240,1
DA:241,1
DA:242,1
DA:246,0
DA:247,0
DA:248,0
DA:257,3
DA:258,3
DA:259,3
DA:262,2
DA:263,5
DA:264,13
DA:265,13
DA:266,13
DA:267,13
DA:268,13
DA:269,13
DA:270,13
DA:271,13
DA:272,13
DA:274,2
DA:275,2
DA:278,1
DA:279,8
DA:280,8
DA:281,8
DA:282,8
DA:283,8
DA:284,8
DA:285,8
DA:286,8
DA:287,8
DA:288,8
DA:289,8
DA:290,1
DA:291,1
DA:294,0
DA:296,0
DA:297,0
DA:298,0
DA:299,0
DA:300,0
DA:301,0
DA:302,0
DA:305,1
DA:307,1
DA:308,5
DA:309,4
DA:310,4
DA:311,4
DA:312,1
DA:313,1
DA:316,1
DA:318,1
DA:319,5
DA:320,4
DA:321,4
DA:322,4
DA:323,1
DA:324,1
DA:326,3
DA:327,3
DA:328,3
DA:332,0
DA:333,0
DA:334,0
DA:342,1
DA:344,1
DA:345,1
DA:348,1
DA:349,1
DA:350,1
DA:355,1
DA:356,1
DA:357,1
DA:360,1
DA:361,1
DA:362,1
DA:365,1
DA:366,1
DA:367,1
DA:368,1
DA:369,1
DA:372,1
DA:373,1
DA:375,1
DA:377,1
DA:378,1
DA:380,1
DA:381,1
DA:382,1
DA:385,1
DA:386,1
DA:389,1
DA:390,1
DA:391,1
DA:393,1
DA:394,1
DA:397,1
DA:398,1
DA:399,1
DA:402,1
DA:403,1
DA:406,101
DA:407,100
DA:408,100
DA:410,1
DA:415,1
DA:417,1
DA:418,1
DA:419,1
DA:422,1
DA:423,1
DA:424,1
DA:425,1
DA:427,1
DA:430,1
DA:431,1
DA:432,1
DA:435,1
DA:436,1
DA:437,1
DA:438,1
DA:440,1
DA:443,9
DA:444,8
DA:445,8
DA:447,1
DA:450,1
DA:451,1
DA:452,1
DA:453,1
DA:454,1
DA:455,1
DA:457,1
DA:460,5
DA:461,4
DA:462,4
DA:464,1
DA:467,1
DA:468,1
DA:469,1
DA:470,1
DA:472,1
DA:474,1
DA:476,1
DA:477,1
DA:478,1
BRF:0
BRH:0
LF:295
LH:200
end_of_record
SF:C:\Users\pv2br\source\repos\AstraWeave-AI-Native-Gaming-Engine\astraweave-render\src\lod_generator.rs
FN:67,_RNvMs0_NtCs5u7LM5pVa0o_17astraweave_render13lod_generatorNtB5_7Quadric10from_plane
FN:79,_RNvMs0_NtCs5u7LM5pVa0o_17astraweave_render13lod_generatorNtB5_7Quadric3add
FN:62,_RNvMs0_NtCs5u7LM5pVa0o_17astraweave_render13lod_generatorNtB5_7Quadric4zero
FN:88,_RNvMs0_NtCs5u7LM5pVa0o_17astraweave_render13lod_generatorNtB5_7Quadric8evaluate
FN:293,_RNvMs5_NtCs5u7LM5pVa0o_17astraweave_render13lod_generatorNtB5_12LODGenerator12rebuild_mesh
FN:153,_RNvMs5_NtCs5u7LM5pVa0o_17astraweave_render13lod_generatorNtB5_12LODGenerator13generate_lods
FN:272,_RNvMs5_NtCs5u7LM5pVa0o_17astraweave_render13lod_generatorNtB5_12LODGenerator14apply_collapse
FN:340,_RNvMs5_NtCs5u7LM5pVa0o_17astraweave_render13lod_generatorNtB5_12LODGenerator19calculate_reduction
FN:235,_RNvMs5_NtCs5u7LM5pVa0o_17astraweave_render13lod_generatorNtB5_12LODGenerator20build_edge_collapses
FN:206,_RNvMs5_NtCs5u7LM5pVa0o_17astraweave_render13lod_generatorNtB5_12LODGenerator23compute_vertex_quadrics
FN:148,_RNvMs5_NtCs5u7LM5pVa0o_17astraweave_render13lod_generatorNtB5_12LODGenerator3new
FN:167,_RNvMs5_NtCs5u7LM5pVa0o_17astraweave_render13lod_generatorNtB5_12LODGenerator8simplify
FN:44,_RNvMs_NtCs5u7LM5pVa0o_17astraweave_render13lod_generatorNtB4_18SimplificationMesh12vertex_count
FN:48,_RNvMs_NtCs5u7LM5pVa0o_17astraweave_render13lod_generatorNtB4_18SimplificationMesh14triangle_count
FN:40,_RNvMs_NtCs5u7LM5pVa0o_17astraweave_render13lod_generatorNtB4_18SimplificationMesh3new
FN:21,_RNvXNtCs5u7LM5pVa0o_17astraweave_render13lod_generatorNtB2_9LODConfigNtNtCsixiwFwjEgS7_4core7default7Default7default
FN:122,_RNvXs1_NtCs5u7LM5pVa0o_17astraweave_render13lod_generatorNtB5_12EdgeCollapseNtNtCsixiwFwjEgS7_4core3cmp10PartialOrd11partial_cmp
FN:129,_RNvXs2_NtCs5u7LM5pVa0o_17astraweave_render13lod_generatorNtB5_12EdgeCollapseNtNtCsixiwFwjEgS7_4core3cmp9PartialEq2eq
FN:137,_RNvXs4_NtCs5u7LM5pVa0o_17astraweave_render13lod_generatorNtB5_12EdgeCollapseNtNtCsixiwFwjEgS7_4core3cmp3Ord3cmp
FN:349,_RNvNtNtCs5u7LM5pVa0o_17astraweave_render13lod_generator5tests16create_test_cube
FN:384,_RNvNtNtCs5u7LM5pVa0o_17astraweave_render13lod_generator5testss_19test_lod_generation
FN:412,_RNvNtNtCs5u7LM5pVa0o_17astraweave_render13lod_generator5testss_23test_quadric_evaluation
FN:426,_RNvNtNtCs5u7LM5pVa0o_17astraweave_render13lod_generator5testss_26test_reduction_calculation
FN:399,_RNvNtNtCs5u7LM5pVa0o_17astraweave_render13lod_generator5testss_36test_simplification_reduces_vertices
FN:444,_RNvNtNtCs5u7LM5pVa0o_17astraweave_render13lod_generator5testss_40test_mesh_integrity_after_simplification
FN:362,_RNCNvNtNtCs5u7LM5pVa0o_17astraweave_render13lod_generator5tests16create_test_cube0B7_
FNDA:73,_RNvMs0_NtCs5u7LM5pVa0o_17astraweave_render13lod_generatorNtB5_7Quadric10from_plane
FNDA:324,_RNvMs0_NtCs5u7LM5pVa0o_17astraweave_render13lod_generatorNtB5_7Quadric3add
FNDA:330,_RNvMs0_NtCs5u7LM5pVa0o_17astraweave_render13lod_generatorNtB5_7Quadric4zero
FNDA:110,_RNvMs0_NtCs5u7LM5pVa0o_17astraweave_render13lod_generatorNtB5_7Quadric8evaluate
FNDA:6,_RNvMs5_NtCs5u7LM5pVa0o_17astraweave_render13lod_generatorNtB5_12LODGenerator12rebuild_mesh
FNDA:1,_RNvMs5_NtCs5u7LM5pVa0o_17astraweave_render13lod_generatorNtB5_12LODGenerator13generate_lods
FNDA:0,_RNvMs5_NtCs5u7LM5pVa0o_17astraweave_render13lod_generatorNtB5_12LODGenerator14apply_collapse
FNDA:1,_RNvMs5_NtCs5u7LM5pVa0o_17astraweave_render13lod_generatorNtB5_12LODGenerator19calculate_reduction
FNDA:6,_RNvMs5_NtCs5u7LM5pVa0o_17astraweave_render13lod_generatorNtB5_12LODGenerator20build_edge_collapses
FNDA:6,_RNvMs5_NtCs5u7LM5pVa0o_17astraweave_render13lod_generatorNtB5_12LODGenerator23compute_vertex_quadrics
FNDA:4,_RNvMs5_NtCs5u7LM5pVa0o_17astraweave_render13lod_generatorNtB5_12LODGenerator3new
FNDA:6,_RNvMs5_NtCs5u7LM5pVa0o_17astraweave_render13lod_generatorNtB5_12LODGenerator8simplify
FNDA:73,_RNvMs_NtCs5u7LM5pVa0o_17astraweave_render13lod_generatorNtB4_18SimplificationMesh12vertex_count
FNDA:25,_RNvMs_NtCs5u7LM5pVa0o_17astraweave_render13lod_generatorNtB4_18SimplificationMesh14triangle_count
FNDA:4,_RNvMs_NtCs5u7LM5pVa0o_17astraweave_render13lod_generatorNtB4_18SimplificationMesh3new
FNDA:3,_RNvXNtCs5u7LM5pVa0o_17astraweave_render13lod_generatorNtB2_9LODConfigNtNtCsixiwFwjEgS7_4core7default7Default7default
FNDA:153,_RNvXs1_NtCs5u7LM5pVa0o_17astraweave_render13lod_generatorNtB5_12EdgeCollapseNtNtCsixiwFwjEgS7_4core3cmp10PartialOrd11partial_cmp
FNDA:0,_RNvXs2_NtCs5u7LM5pVa0o_17astraweave_render13lod_generatorNtB5_12EdgeCollapseNtNtCsixiwFwjEgS7_4core3cmp9PartialEq2eq
FNDA:0,_RNvXs4_NtCs5u7LM5pVa0o_17astraweave_render13lod_generatorNtB5_12EdgeCollapseNtNtCsixiwFwjEgS7_4core3cmp3Ord3cmp
FNDA:4,_RNvNtNtCs5u7LM5pVa0o_17astraweave_render13lod_generator5tests16create_test_cube
FNDA:1,_RNvNtNtCs5u7LM5pVa0o_17astraweave_render13lod_generator5testss_19test_lod_generation
FNDA:1,_RNvNtNtCs5u7LM5pVa0o_17astraweave_render13lod_generator5testss_23test_quadric_evaluation
FNDA:1,_RNvNtNtCs5u7LM5pVa0o_17astraweave_render13lod_generator5testss_26test_reduction_calculation
FNDA:1,_RNvNtNtCs5u7LM5pVa0o_17astraweave_render13lod_generator5testss_36test_simplification_reduces_vertices
FNDA:1,_RNvNtNtCs5u7LM5pVa0o_17astraweave_render13lod_generator5testss_40test_mesh_integrity_after_simplification
FNDA:32,_RNCNvNtNtCs5u7LM5pVa0o_17astraweave_render13lod_generator5tests16create_test_cube0B7_
FNF:26
FNH:23
DA:21,3
DA:22,3
DA:23,3
DA:24,3
DA:25,3
DA:26,3
DA:27,3
DA:40,4
DA:41,4
DA:42,4
DA:44,73
DA:45,73
DA:46,73
DA:48,25
DA:49,25
DA:50,25
DA:62,330
DA:63,330
DA:64,330
DA:67,73
DA:68,73
DA:69,73
DA:70,73
DA:71,73
DA:72,73
DA:73,73
DA:74,73
DA:75,73
DA:76,73
DA:79,324
DA:80,324
DA:81,3564
DA:82,3240
DA:83,3240
DA:84,324
DA:85,324
DA:88,110
DA:89,110
DA:90,110
DA:91,110
DA:94,110
DA:95,110
DA:96,110
DA:97,110
DA:98,110
DA:99,110
DA:100,110
DA:101,110
DA:102,110
DA:103,110
DA:105,110
DA:106,110
DA:107,110
DA:108,110
DA:109,110
DA:122,153
DA:124,153
DA:125,153
DA:129,0
DA:130,0
DA:131,0
DA:137,0
DA:138,0
DA:139,0
DA:148,4
DA:149,4
DA:150,4
DA:153,1
DA:154,1
DA:155,1
DA:157,4
DA:158,3
DA:159,3
DA:160,3
DA:161,3
DA:163,1
DA:164,1
DA:167,6
DA:168,6
DA:169,0
DA:170,6
DA:173,6
DA:174,6
DA:177,6
DA:178,6
DA:181,6
DA:182,6
DA:183,6
DA:185,6
DA:186,6
DA:187,6
DA:188,6
DA:189,0
DA:192,0
DA:193,0
DA:194,0
DA:195,0
DA:197,0
DA:202,6
DA:203,6
DA:206,6
DA:207,72
DA:208,72
DA:209,72
DA:210,72
DA:211,72
DA:212,72
DA:213,72
DA:214,72
DA:215,72
DA:216,72
DA:217,72
DA:218,72
DA:219,72
DA:220,72
DA:221,72
DA:222,72
DA:223,72
DA:224,72
DA:225,72
DA:226,72
DA:227,72
DA:228,72
DA:229,72
DA:230,72
DA:231,72
DA:232,6
DA:235,6
DA:236,6
DA:237,6
DA:238,6
DA:239,6
DA:240,6
DA:241,6
DA:244,72
DA:245,72
DA:246,72
DA:247,72
DA:248,72
DA:249,72
DA:250,72
DA:251,72
DA:252,72
DA:255,108
DA:256,108
DA:257,108
DA:258,108
DA:259,108
DA:260,108
DA:261,108
DA:262,108
DA:263,108
DA:264,108
DA:265,108
DA:266,108
DA:267,108
DA:268,108
DA:269,6
DA:272,0
DA:273,0
DA:274,0
DA:275,0
DA:276,0
DA:277,0
DA:279,0
DA:282,0
DA:285,0
DA:286,0
DA:287,0
DA:288,0
DA:290,0
DA:293,6
DA:294,6
DA:295,6
DA:296,6
DA:297,6
DA:300,48
DA:301,48
DA:302,48
DA:303,48
DA:304,48
DA:305,48
DA:306,48
DA:307,48
DA:311,6
DA:312,72
DA:313,72
DA:314,72
DA:315,72
DA:317,72
DA:318,72
DA:319,72
DA:320,72
DA:323,72
DA:324,72
DA:325,72
DA:326,72
DA:327,72
DA:328,0
DA:331,6
DA:332,6
DA:333,6
DA:334,6
DA:335,6
DA:336,6
DA:337,6
DA:340,1
DA:341,1
DA:342,1
DA:349,4
DA:351,4
DA:352,4
DA:353,4
DA:354,4
DA:355,4
DA:356,4
DA:357,4
DA:358,4
DA:359,4
DA:362,32
DA:363,4
DA:365,4
DA:380,4
DA:381,4
DA:384,1
DA:385,1
DA:386,1
DA:387,1
DA:389,1
DA:391,1
DA:392,4
DA:393,3
DA:394,3
DA:396,1
DA:399,1
DA:400,1
DA:401,1
DA:402,1
DA:404,1
DA:407,1
DA:408,1
DA:409,1
DA:412,1
DA:413,1
DA:415,1
DA:416,1
DA:418,1
DA:419,1
DA:421,1
DA:422,1
DA:423,1
DA:426,1
DA:427,1
DA:428,1
DA:429,1
DA:430,1
DA:431,1
DA:432,1
DA:433,1
DA:435,1
DA:436,1
DA:438,1
DA:440,1
DA:441,1
DA:444,1
DA:445,1
DA:446,1
DA:447,1
DA:449,1
DA:452,37
DA:453,36
DA:457,1
DA:458,1
BRF:0
BRH:0
LF:274
LH:247
end_of_record
SF:C:\Users\pv2br\source\repos\AstraWeave-AI-Native-Gaming-Engine\astraweave-render\src\material.rs
FN:117,_RNvMs0_NtCs5u7LM5pVa0o_17astraweave_render8materialNtB5_17MaterialLoadStats15concise_summary
FN:570,_RNvNtCs5u7LM5pVa0o_17astraweave_render8material21validate_array_layout
FN:517,_RNvNtCs5u7LM5pVa0o_17astraweave_render8material22validate_material_pack
FN:60,_RNvXs_NtCs5u7LM5pVa0o_17astraweave_render8materialNtB4_17MaterialLayerDescNtNtCsixiwFwjEgS7_4core7default7Default7default
FN:726,_RNCNvNtNtCs5u7LM5pVa0o_17astraweave_render8material5testss_31test_stable_layer_index_mapping0B7_
FN:506,_RNCNvMs2_NtCs5u7LM5pVa0o_17astraweave_render8materialNtB7_15MaterialManager19load_pack_from_toml0B9_
FN:34,_RNvMNtCs5u7LM5pVa0o_17astraweave_render8materialNtB2_11MaterialGpu7neutral
FN:290,_RNvMs1_NtCs5u7LM5pVa0o_17astraweave_render8materialNtB5_15MaterialManager11mra_texture
FN:270,_RNvMs1_NtCs5u7LM5pVa0o_17astraweave_render8materialNtB5_15MaterialManager13current_stats
FN:280,_RNvMs1_NtCs5u7LM5pVa0o_17astraweave_render8materialNtB5_15MaterialManager14albedo_texture
FN:275,_RNvMs1_NtCs5u7LM5pVa0o_17astraweave_render8materialNtB5_15MaterialManager14current_layout
FN:285,_RNvMs1_NtCs5u7LM5pVa0o_17astraweave_render8materialNtB5_15MaterialManager14normal_texture
FN:231,_RNvMs1_NtCs5u7LM5pVa0o_17astraweave_render8materialNtB5_15MaterialManager17create_bind_group
FN:165,_RNvMs1_NtCs5u7LM5pVa0o_17astraweave_render8materialNtB5_15MaterialManager31get_or_create_bind_group_layout
FN:147,_RNvMs1_NtCs5u7LM5pVa0o_17astraweave_render8materialNtB5_15MaterialManager3new
FN:512,_RNvMs2_NtCs5u7LM5pVa0o_17astraweave_render8materialNtB5_15MaterialManager14unload_current
FN:499,_RNvMs2_NtCs5u7LM5pVa0o_17astraweave_render8materialNtB5_15MaterialManager19load_pack_from_toml
FN:601,_RNvXs3_NtCs5u7LM5pVa0o_17astraweave_render8materialNtNtCs5qSNZKCnxs7_3std4path7PathBufNtB5_13NormalizePath9normalize
FN:734,_RNvNtNtCs5u7LM5pVa0o_17astraweave_render8material5testss_22test_fallback_coverage
FN:625,_RNvNtNtCs5u7LM5pVa0o_17astraweave_render8material5testss_23test_toml_parsing_basic
FN:676,_RNvNtNtCs5u7LM5pVa0o_17astraweave_render8material5testss_24test_arrays_toml_parsing
FN:694,_RNvNtNtCs5u7LM5pVa0o_17astraweave_render8material5testss_31test_stable_layer_index_mapping
FN:616,_RNvNtNtCs5u7LM5pVa0o_17astraweave_render8material5testss_32test_material_layer_desc_default
FN:859,_RNvNtNtCs5u7LM5pVa0o_17astraweave_render8material5testss_32test_validate_array_layout_valid
FN:825,_RNvNtNtCs5u7LM5pVa0o_17astraweave_render8material5testss_33test_validate_material_pack_valid
FN:772,_RNvNtNtCs5u7LM5pVa0o_17astraweave_render8material5testss_39test_validate_material_pack_empty_biome
FN:751,_RNvNtNtCs5u7LM5pVa0o_17astraweave_render8material5testss_40test_material_load_stats_concise_summary
FN:781,_RNvNtNtCs5u7LM5pVa0o_17astraweave_render8material5testss_42test_validate_material_pack_duplicate_keys
FN:799,_RNvNtNtCs5u7LM5pVa0o_17astraweave_render8material5testss_42test_validate_material_pack_invalid_tiling
FN:847,_RNvNtNtCs5u7LM5pVa0o_17astraweave_render8material5testss_44test_validate_array_layout_duplicate_indices
FN:812,_RNvNtNtCs5u7LM5pVa0o_17astraweave_render8material5testss_45test_validate_material_pack_invalid_triplanar
FNDA:1,_RNvMs0_NtCs5u7LM5pVa0o_17astraweave_render8materialNtB5_17MaterialLoadStats15concise_summary
FNDA:2,_RNvNtCs5u7LM5pVa0o_17astraweave_render8material21validate_array_layout
FNDA:5,_RNvNtCs5u7LM5pVa0o_17astraweave_render8material22validate_material_pack
FNDA:11,_RNvXs_NtCs5u7LM5pVa0o_17astraweave_render8materialNtB4_17MaterialLayerDescNtNtCsixiwFwjEgS7_4core7default7Default7default
FNDA:6,_RNCNvNtNtCs5u7LM5pVa0o_17astraweave_render8material5testss_31test_stable_layer_index_mapping0B7_
FNDA:0,_RNCNvMs2_NtCs5u7LM5pVa0o_17astraweave_render8materialNtB7_15MaterialManager19load_pack_from_toml0B9_
FNDA:0,_RNvMNtCs5u7LM5pVa0o_17astraweave_render8materialNtB2_11MaterialGpu7neutral
FNDA:0,_RNvMs1_NtCs5u7LM5pVa0o_17astraweave_render8materialNtB5_15MaterialManager11mra_texture
FNDA:0,_RNvMs1_NtCs5u7LM5pVa0o_17astraweave_render8materialNtB5_15MaterialManager13current_stats
FNDA:0,_RNvMs1_NtCs5u7LM5pVa0o_17astraweave_render8materialNtB5_15MaterialManager14albedo_texture
FNDA:0,_RNvMs1_NtCs5u7LM5pVa0o_17astraweave_render8materialNtB5_15MaterialManager14current_layout
FNDA:0,_RNvMs1_NtCs5u7LM5pVa0o_17astraweave_render8materialNtB5_15MaterialManager14normal_texture
FNDA:0,_RNvMs1_NtCs5u7LM5pVa0o_17astraweave_render8materialNtB5_15MaterialManager17create_bind_group
FNDA:0,_RNvMs1_NtCs5u7LM5pVa0o_17astraweave_render8materialNtB5_15MaterialManager31get_or_create_bind_group_layout
FNDA:0,_RNvMs1_NtCs5u7LM5pVa0o_17astraweave_render8materialNtB5_15MaterialManager3new
FNDA:0,_RNvMs2_NtCs5u7LM5pVa0o_17astraweave_render8materialNtB5_15MaterialManager14unload_current
FNDA:0,_RNvMs2_NtCs5u7LM5pVa0o_17astraweave_render8materialNtB5_15MaterialManager19load_pack_from_toml
FNDA:0,_RNvXs3_NtCs5u7LM5pVa0o_17astraweave_render8materialNtNtCs5qSNZKCnxs7_3std4path7PathBufNtB5_13NormalizePath9normalize
FNDA:1,_RNvNtNtCs5u7LM5pVa0o_17astraweave_render8material5testss_22test_fallback_coverage
FNDA:1,_RNvNtNtCs5u7LM5pVa0o_17astraweave_render8material5testss_23test_toml_parsing_basic
FNDA:1,_RNvNtNtCs5u7LM5pVa0o_17astraweave_render8material5testss_24test_arrays_toml_parsing
FNDA:1,_RNvNtNtCs5u7LM5pVa0o_17astraweave_render8material5testss_31test_stable_layer_index_mapping
FNDA:1,_RNvNtNtCs5u7LM5pVa0o_17astraweave_render8material5testss_32test_material_layer_desc_default
FNDA:1,_RNvNtNtCs5u7LM5pVa0o_17astraweave_render8material5testss_32test_validate_array_layout_valid
FNDA:1,_RNvNtNtCs5u7LM5pVa0o_17astraweave_render8material5testss_33test_validate_material_pack_valid
FNDA:1,_RNvNtNtCs5u7LM5pVa0o_17astraweave_render8material5testss_39test_validate_material_pack_empty_biome
FNDA:1,_RNvNtNtCs5u7LM5pVa0o_17astraweave_render8material5testss_40test_material_load_stats_concise_summary
FNDA:1,_RNvNtNtCs5u7LM5pVa0o_17astraweave_render8material5testss_42test_validate_material_pack_duplicate_keys
FNDA:1,_RNvNtNtCs5u7LM5pVa0o_17astraweave_render8material5testss_42test_validate_material_pack_invalid_tiling
FNDA:1,_RNvNtNtCs5u7LM5pVa0o_17astraweave_render8material5testss_44test_validate_array_layout_duplicate_indices
FNDA:1,_RNvNtNtCs5u7LM5pVa0o_17astraweave_render8material5testss_45test_validate_material_pack_invalid_triplanar
FNF:31
FNH:18
DA:34,0
DA:35,0
DA:36,0
DA:37,0
DA:38,0
DA:39,0
DA:40,0
DA:41,0
DA:42,0
DA:60,11
DA:61,11
DA:62,11
DA:63,11
DA:64,11
DA:65,11
DA:66,11
DA:67,11
DA:68,11
DA:69,11
DA:70,11
DA:71,11
DA:72,11
DA:73,11
DA:117,1
DA:118,1
DA:119,1
DA:129,1
DA:131,1
DA:147,0
DA:148,0
DA:149,0
DA:150,0
DA:151,0
DA:152,0
DA:153,0
DA:154,0
DA:155,0
DA:156,0
DA:165,0
DA:166,0
DA:167,0
DA:168,0
DA:169,0
DA:170,0
DA:171,0
DA:172,0
DA:173,0
DA:174,0
DA:175,0
DA:176,0
DA:177,0
DA:178,0
DA:179,0
DA:180,0
DA:181,0
DA:182,0
DA:183,0
DA:184,0
DA:185,0
DA:186,0
DA:187,0
DA:188,0
DA:189,0
DA:190,0
DA:191,0
DA:192,0
DA:193,0
DA:194,0
DA:195,0
DA:196,0
DA:197,0
DA:198,0
DA:199,0
DA:200,0
DA:201,0
DA:202,0
DA:203,0
DA:204,0
DA:205,0
DA:206,0
DA:207,0
DA:208,0
DA:209,0
DA:210,0
DA:211,0
DA:212,0
DA:213,0
DA:214,0
DA:215,0
DA:216,0
DA:217,0
DA:218,0
DA:219,0
DA:220,0
DA:221,0
DA:222,0
DA:223,0
DA:224,0
DA:225,0
DA:226,0
DA:227,0
DA:228,0
DA:231,0
DA:232,0
DA:233,0
DA:234,0
DA:235,0
DA:236,0
DA:237,0
DA:238,0
DA:239,0
DA:241,0
DA:242,0
DA:243,0
DA:244,0
DA:245,0
DA:246,0
DA:247,0
DA:248,0
DA:249,0
DA:250,0
DA:251,0
DA:252,0
DA:253,0
DA:254,0
DA:255,0
DA:256,0
DA:257,0
DA:258,0
DA:259,0
DA:260,0
DA:261,0
DA:262,0
DA:263,0
DA:264,0
DA:265,0
DA:266,0
DA:267,0
DA:270,0
DA:271,0
DA:272,0
DA:275,0
DA:276,0
DA:277,0
DA:280,0
DA:281,0
DA:282,0
DA:285,0
DA:286,0
DA:287,0
DA:290,0
DA:291,0
DA:292,0
DA:499,0
DA:500,0
DA:501,0
DA:502,0
DA:503,0
DA:504,0
DA:505,0
DA:506,0
DA:507,0
DA:508,0
DA:509,0
DA:510,0
DA:512,0
DA:513,0
DA:517,5
DA:519,5
DA:520,1
DA:521,4
DA:524,4
DA:525,7
DA:526,6
DA:527,0
DA:528,6
DA:529,6
DA:530,1
DA:531,5
DA:534,5
DA:535,1
DA:536,1
DA:540,4
DA:543,4
DA:544,1
DA:545,1
DA:549,3
DA:552,3
DA:553,2
DA:554,1
DA:555,1
DA:556,1
DA:557,1
DA:558,1
DA:559,1
DA:560,1
DA:561,1
DA:562,1
DA:563,2
DA:566,1
DA:567,5
DA:570,2
DA:572,2
DA:573,2
DA:574,2
DA:575,0
DA:576,0
DA:577,0
DA:578,0
DA:579,2
DA:582,2
DA:583,5
DA:584,5
DA:585,5
DA:586,5
DA:587,4
DA:588,1
DA:589,3
DA:591,0
DA:593,1
DA:594,2
DA:601,0
DA:602,0
DA:603,0
DA:604,0
DA:605,0
DA:606,0
DA:607,0
DA:616,1
DA:617,1
DA:618,1
DA:619,1
DA:620,1
DA:621,1
DA:622,1
DA:625,1
DA:626,1
DA:627,1
DA:628,1
DA:629,1
DA:630,1
DA:631,1
DA:632,1
DA:633,1
DA:634,1
DA:635,1
DA:636,1
DA:637,1
DA:638,1
DA:639,1
DA:640,1
DA:641,1
DA:665,1
DA:666,1
DA:667,1
DA:668,1
DA:669,1
DA:670,1
DA:671,1
DA:672,1
DA:673,1
DA:676,1
DA:677,1
DA:678,1
DA:679,1
DA:680,1
DA:681,1
DA:682,1
DA:687,1
DA:688,1
DA:689,1
DA:690,1
DA:691,1
DA:694,1
DA:696,1
DA:697,1
DA:698,1
DA:699,1
DA:700,1
DA:701,1
DA:702,1
DA:703,1
DA:704,1
DA:705,1
DA:706,1
DA:707,1
DA:708,1
DA:709,1
DA:710,1
DA:711,1
DA:712,1
DA:713,1
DA:714,1
DA:715,1
DA:716,1
DA:717,1
DA:719,1
DA:720,1
DA:721,1
DA:722,1
DA:723,1
DA:726,6
DA:728,1
DA:729,1
DA:730,1
DA:731,1
DA:734,1
DA:736,1
DA:737,1
DA:738,1
DA:739,1
DA:740,1
DA:741,1
DA:742,1
DA:745,1
DA:746,1
DA:747,1
DA:748,1
DA:751,1
DA:752,1
DA:753,1
DA:754,1
DA:755,1
DA:756,1
DA:757,1
DA:758,1
DA:759,1
DA:760,1
DA:761,1
DA:762,1
DA:763,1
DA:764,1
DA:765,1
DA:766,1
DA:767,1
DA:768,1
DA:769,1
DA:772,1
DA:773,1
DA:774,1
DA:775,1
DA:776,1
DA:777,1
DA:778,1
DA:781,1
DA:782,1
DA:783,1
DA:784,1
DA:785,1
DA:786,1
DA:787,1
DA:788,1
DA:789,1
DA:790,1
DA:791,1
DA:792,1
DA:793,1
DA:794,1
DA:795,1
DA:796,1
DA:799,1
DA:800,1
DA:801,1
DA:802,1
DA:803,1
DA:804,1
DA:805,1
DA:806,1
DA:807,1
DA:808,1
DA:809,1
DA:812,1
DA:813,1
DA:814,1
DA:815,1
DA:816,1
DA:817,1
DA:818,1
DA:819,1
DA:820,1
DA:821,1
DA:822,1
DA:825,1
DA:826,1
DA:827,1
DA:828,1
DA:829,1
DA:830,1
DA:831,1
DA:832,1
DA:833,1
DA:834,1
DA:835,1
DA:836,1
DA:837,1
DA:838,1
DA:839,1
DA:840,1
DA:841,1
DA:842,1
DA:843,1
DA:844,1
DA:847,1
DA:848,1
DA:849,1
DA:850,1
DA:851,1
DA:852,1
DA:853,1
DA:855,1
DA:856,1
DA:859,1
DA:860,1
DA:861,1
DA:862,1
DA:863,1
DA:864,1
DA:865,1
DA:866,1
DA:868,1
DA:869,1
BRF:0
BRH:0
LF:423
LH:261
end_of_record
SF:C:\Users\pv2br\source\repos\AstraWeave-AI-Native-Gaming-Engine\astraweave-render\src\material_extended.rs
FN:415,_RNvNtNtCs5u7LM5pVa0o_17astraweave_render17material_extended5testss_18test_feature_flags
FN:363,_RNvNtNtCs5u7LM5pVa0o_17astraweave_render17material_extended5testss_18test_material_size
FN:386,_RNvNtNtCs5u7LM5pVa0o_17astraweave_render17material_extended5testss_18test_skin_material
FN:406,_RNvNtNtCs5u7LM5pVa0o_17astraweave_render17material_extended5testss_19test_glass_material
FN:427,_RNvNtNtCs5u7LM5pVa0o_17astraweave_render17material_extended5testss_20test_toml_conversion
FN:399,_RNvNtNtCs5u7LM5pVa0o_17astraweave_render17material_extended5testss_20test_velvet_material
FN:370,_RNvNtNtCs5u7LM5pVa0o_17astraweave_render17material_extended5testss_23test_car_paint_material
FN:378,_RNvNtNtCs5u7LM5pVa0o_17astraweave_render17material_extended5testss_27test_brushed_metal_material
FN:283,_RNvNtCs5u7LM5pVa0o_17astraweave_render17material_extended11default_ior
FN:268,_RNvNtCs5u7LM5pVa0o_17astraweave_render17material_extended11default_one
FN:271,_RNvNtCs5u7LM5pVa0o_17astraweave_render17material_extended12default_half
FN:274,_RNvNtCs5u7LM5pVa0o_17astraweave_render17material_extended16default_one_vec3
FN:277,_RNvNtCs5u7LM5pVa0o_17astraweave_render17material_extended16default_one_vec4
FN:280,_RNvNtCs5u7LM5pVa0o_17astraweave_render17material_extended27default_clearcoat_roughness
FN:346,_RNCNvMs0_NtCs5u7LM5pVa0o_17astraweave_render17material_extendedNtB7_26MaterialDefinitionExtended6to_gpu0B9_
FN:289,_RNvMs0_NtCs5u7LM5pVa0o_17astraweave_render17material_extendedNtB5_26MaterialDefinitionExtended6to_gpu
FN:193,_RNvMs_NtCs5u7LM5pVa0o_17astraweave_render17material_extendedNtB4_19MaterialGpuExtended11has_feature
FN:131,_RNvMs_NtCs5u7LM5pVa0o_17astraweave_render17material_extendedNtB4_19MaterialGpuExtended13brushed_metal
FN:198,_RNvMs_NtCs5u7LM5pVa0o_17astraweave_render17material_extendedNtB4_19MaterialGpuExtended14enable_feature
FN:203,_RNvMs_NtCs5u7LM5pVa0o_17astraweave_render17material_extendedNtB4_19MaterialGpuExtended15disable_feature
FN:143,_RNvMs_NtCs5u7LM5pVa0o_17astraweave_render17material_extendedNtB4_19MaterialGpuExtended4skin
FN:168,_RNvMs_NtCs5u7LM5pVa0o_17astraweave_render17material_extendedNtB4_19MaterialGpuExtended5glass
FN:156,_RNvMs_NtCs5u7LM5pVa0o_17astraweave_render17material_extendedNtB4_19MaterialGpuExtended6velvet
FN:119,_RNvMs_NtCs5u7LM5pVa0o_17astraweave_render17material_extendedNtB4_19MaterialGpuExtended9car_paint
FN:69,_RNvXNtCs5u7LM5pVa0o_17astraweave_render17material_extendedNtB2_19MaterialGpuExtendedNtNtCsixiwFwjEgS7_4core7default7Default7default
FNDA:1,_RNvNtNtCs5u7LM5pVa0o_17astraweave_render17material_extended5testss_18test_feature_flags
FNDA:1,_RNvNtNtCs5u7LM5pVa0o_17astraweave_render17material_extended5testss_18test_material_size
FNDA:1,_RNvNtNtCs5u7LM5pVa0o_17astraweave_render17material_extended5testss_18test_skin_material
FNDA:1,_RNvNtNtCs5u7LM5pVa0o_17astraweave_render17material_extended5testss_19test_glass_material
FNDA:1,_RNvNtNtCs5u7LM5pVa0o_17astraweave_render17material_extended5testss_20test_toml_conversion
FNDA:1,_RNvNtNtCs5u7LM5pVa0o_17astraweave_render17material_extended5testss_20test_velvet_material
FNDA:1,_RNvNtNtCs5u7LM5pVa0o_17astraweave_render17material_extended5testss_23test_car_paint_material
FNDA:1,_RNvNtNtCs5u7LM5pVa0o_17astraweave_render17material_extended5testss_27test_brushed_metal_material
FNDA:0,_RNvNtCs5u7LM5pVa0o_17astraweave_render17material_extended11default_ior
FNDA:0,_RNvNtCs5u7LM5pVa0o_17astraweave_render17material_extended11default_one
FNDA:0,_RNvNtCs5u7LM5pVa0o_17astraweave_render17material_extended12default_half
FNDA:0,_RNvNtCs5u7LM5pVa0o_17astraweave_render17material_extended16default_one_vec3
FNDA:0,_RNvNtCs5u7LM5pVa0o_17astraweave_render17material_extended16default_one_vec4
FNDA:0,_RNvNtCs5u7LM5pVa0o_17astraweave_render17material_extended27default_clearcoat_roughness
FNDA:3,_RNCNvMs0_NtCs5u7LM5pVa0o_17astraweave_render17material_extendedNtB7_26MaterialDefinitionExtended6to_gpu0B9_
FNDA:1,_RNvMs0_NtCs5u7LM5pVa0o_17astraweave_render17material_extendedNtB5_26MaterialDefinitionExtended6to_gpu
FNDA:10,_RNvMs_NtCs5u7LM5pVa0o_17astraweave_render17material_extendedNtB4_19MaterialGpuExtended11has_feature
FNDA:1,_RNvMs_NtCs5u7LM5pVa0o_17astraweave_render17material_extendedNtB4_19MaterialGpuExtended13brushed_metal
FNDA:1,_RNvMs_NtCs5u7LM5pVa0o_17astraweave_render17material_extendedNtB4_19MaterialGpuExtended14enable_feature
FNDA:1,_RNvMs_NtCs5u7LM5pVa0o_17astraweave_render17material_extendedNtB4_19MaterialGpuExtended15disable_feature
FNDA:1,_RNvMs_NtCs5u7LM5pVa0o_17astraweave_render17material_extendedNtB4_19MaterialGpuExtended4skin
FNDA:1,_RNvMs_NtCs5u7LM5pVa0o_17astraweave_render17material_extendedNtB4_19MaterialGpuExtended5glass
FNDA:1,_RNvMs_NtCs5u7LM5pVa0o_17astraweave_render17material_extendedNtB4_19MaterialGpuExtended6velvet
FNDA:1,_RNvMs_NtCs5u7LM5pVa0o_17astraweave_render17material_extendedNtB4_19MaterialGpuExtended9car_paint
FNDA:6,_RNvXNtCs5u7LM5pVa0o_17astraweave_render17material_extendedNtB2_19MaterialGpuExtendedNtNtCsixiwFwjEgS7_4core7default7Default7default
FNF:25
FNH:19
DA:69,6
DA:70,6
DA:71,6
DA:72,6
DA:73,6
DA:74,6
DA:75,6
DA:76,6
DA:77,6
DA:78,6
DA:79,6
DA:80,6
DA:81,6
DA:82,6
DA:83,6
DA:84,6
DA:85,6
DA:86,6
DA:87,6
DA:88,6
DA:89,6
DA:90,6
DA:91,6
DA:92,6
DA:93,6
DA:94,6
DA:95,6
DA:96,6
DA:97,6
DA:98,6
DA:99,6
DA:100,6
DA:101,6
DA:102,6
DA:103,6
DA:104,6
DA:105,6
DA:106,6
DA:107,6
DA:108,6
DA:109,6
DA:110,6
DA:111,6
DA:112,6
DA:113,6
DA:114,6
DA:119,1
DA:120,1
DA:121,1
DA:122,1
DA:123,1
DA:124,1
DA:125,1
DA:126,1
DA:127,1
DA:128,1
DA:131,1
DA:132,1
DA:133,1
DA:134,1
DA:135,1
DA:136,1
DA:137,1
DA:138,1
DA:139,1
DA:140,1
DA:143,1
DA:144,1
DA:145,1
DA:146,1
DA:147,1
DA:148,1
DA:149,1
DA:150,1
DA:151,1
DA:152,1
DA:153,1
DA:156,1
DA:157,1
DA:158,1
DA:159,1
DA:160,1
DA:161,1
DA:162,1
DA:163,1
DA:164,1
DA:165,1
DA:168,1
DA:169,1
DA:170,1
DA:171,1
DA:172,1
DA:173,1
DA:174,1
DA:175,1
DA:176,1
DA:177,1
DA:178,1
DA:179,1
DA:180,1
DA:181,1
DA:182,1
DA:183,1
DA:184,1
DA:185,1
DA:186,1
DA:187,1
DA:188,1
DA:189,1
DA:190,1
DA:193,10
DA:194,10
DA:195,10
DA:198,1
DA:199,1
DA:200,1
DA:203,1
DA:204,1
DA:205,1
DA:268,0
DA:269,0
DA:270,0
DA:271,0
DA:272,0
DA:273,0
DA:274,0
DA:275,0
DA:276,0
DA:277,0
DA:278,0
DA:279,0
DA:280,0
DA:281,0
DA:282,0
DA:283,0
DA:284,0
DA:285,0
DA:289,1
DA:290,1
DA:291,1
DA:292,1
DA:293,1
DA:294,1
DA:295,1
DA:296,1
DA:297,1
DA:298,1
DA:299,1
DA:300,1
DA:301,1
DA:302,1
DA:303,1
DA:304,1
DA:305,1
DA:306,1
DA:307,1
DA:308,1
DA:309,1
DA:310,1
DA:311,1
DA:312,1
DA:313,1
DA:314,1
DA:315,1
DA:316,1
DA:317,1
DA:318,1
DA:319,1
DA:320,1
DA:321,1
DA:322,1
DA:323,1
DA:324,1
DA:325,1
DA:326,1
DA:327,1
DA:328,1
DA:329,1
DA:330,1
DA:331,1
DA:332,1
DA:333,1
DA:334,1
DA:337,1
DA:338,1
DA:339,1
DA:340,1
DA:341,0
DA:342,1
DA:343,1
DA:344,0
DA:345,1
DA:346,3
DA:347,1
DA:348,0
DA:349,1
DA:350,1
DA:351,0
DA:352,1
DA:354,1
DA:355,1
DA:363,1
DA:365,1
DA:366,1
DA:367,1
DA:370,1
DA:371,1
DA:372,1
DA:373,1
DA:374,1
DA:375,1
DA:378,1
DA:379,1
DA:380,1
DA:381,1
DA:382,1
DA:383,1
DA:386,1
DA:387,1
DA:388,1
DA:389,1
DA:393,1
DA:394,1
DA:395,1
DA:396,1
DA:399,1
DA:400,1
DA:401,1
DA:402,1
DA:403,1
DA:406,1
DA:407,1
DA:408,1
DA:409,1
DA:410,1
DA:411,1
DA:412,1
DA:415,1
DA:416,1
DA:417,1
DA:419,1
DA:420,1
DA:422,1
DA:423,1
DA:424,1
DA:427,1
DA:428,1
DA:429,1
DA:430,1
DA:431,1
DA:432,1
DA:433,1
DA:434,1
DA:435,1
DA:436,1
DA:437,1
DA:438,1
DA:439,1
DA:440,1
DA:441,1
DA:442,1
DA:443,1
DA:444,1
DA:445,1
DA:446,1
DA:447,1
DA:448,1
DA:449,1
DA:450,1
DA:451,1
DA:452,1
DA:453,1
DA:455,1
DA:456,1
DA:457,1
DA:458,1
DA:459,1
DA:460,1
BRF:0
BRH:0
LF:279
LH:257
end_of_record
SF:C:\Users\pv2br\source\repos\AstraWeave-AI-Native-Gaming-Engine\astraweave-render\src\mesh.rs
FN:276,_RNvNtNtCs5u7LM5pVa0o_17astraweave_render4mesh5testss_19test_cpu_mesh_clone
FN:126,_RNvNtNtCs5u7LM5pVa0o_17astraweave_render4mesh5testss_20test_mesh_vertex_new
FN:177,_RNvNtNtCs5u7LM5pVa0o_17astraweave_render4mesh5testss_21test_cpu_mesh_default
FN:156,_RNvNtNtCs5u7LM5pVa0o_17astraweave_render4mesh5testss_23test_mesh_vertex_layout
FN:184,_RNvNtNtCs5u7LM5pVa0o_17astraweave_render4mesh5testss_24test_cpu_mesh_aabb_empty
FN:217,_RNvNtNtCs5u7LM5pVa0o_17astraweave_render4mesh5testss_27test_compute_tangents_empty
FN:269,_RNvNtNtCs5u7LM5pVa0o_17astraweave_render4mesh5testss_27test_mesh_vertex_pod_traits
FN:141,_RNvNtNtCs5u7LM5pVa0o_17astraweave_render4mesh5testss_28test_mesh_vertex_from_arrays
FN:190,_RNvNtNtCs5u7LM5pVa0o_17astraweave_render4mesh5testss_32test_cpu_mesh_aabb_single_vertex
FN:168,_RNvNtNtCs5u7LM5pVa0o_17astraweave_render4mesh5testss_34test_mesh_vertex_attribs_locations
FN:205,_RNvNtNtCs5u7LM5pVa0o_17astraweave_render4mesh5testss_36test_cpu_mesh_aabb_multiple_vertices
FN:235,_RNvNtNtCs5u7LM5pVa0o_17astraweave_render4mesh5testss_37test_compute_tangents_single_triangle
FN:224,_RNvNtNtCs5u7LM5pVa0o_17astraweave_render4mesh5testss_41test_compute_tangents_incomplete_triangle
FN:23,_RNvMNtCs5u7LM5pVa0o_17astraweave_render4meshNtB2_10MeshVertex11from_arrays
FN:15,_RNvMNtCs5u7LM5pVa0o_17astraweave_render4meshNtB2_10MeshVertex3new
FN:62,_RNvMs0_NtCs5u7LM5pVa0o_17astraweave_render4meshNtB5_7CpuMesh4aabb
FN:46,_RNvMs_NtCs5u7LM5pVa0o_17astraweave_render4meshNtB4_16MeshVertexLayout13buffer_layout
FN:78,_RNvNtCs5u7LM5pVa0o_17astraweave_render4mesh16compute_tangents
FNDA:1,_RNvNtNtCs5u7LM5pVa0o_17astraweave_render4mesh5testss_19test_cpu_mesh_clone
FNDA:1,_RNvNtNtCs5u7LM5pVa0o_17astraweave_render4mesh5testss_20test_mesh_vertex_new
FNDA:1,_RNvNtNtCs5u7LM5pVa0o_17astraweave_render4mesh5testss_21test_cpu_mesh_default
FNDA:1,_RNvNtNtCs5u7LM5pVa0o_17astraweave_render4mesh5testss_23test_mesh_vertex_layout
FNDA:1,_RNvNtNtCs5u7LM5pVa0o_17astraweave_render4mesh5testss_24test_cpu_mesh_aabb_empty
FNDA:1,_RNvNtNtCs5u7LM5pVa0o_17astraweave_render4mesh5testss_27test_compute_tangents_empty
FNDA:1,_RNvNtNtCs5u7LM5pVa0o_17astraweave_render4mesh5testss_27test_mesh_vertex_pod_traits
FNDA:1,_RNvNtNtCs5u7LM5pVa0o_17astraweave_render4mesh5testss_28test_mesh_vertex_from_arrays
FNDA:1,_RNvNtNtCs5u7LM5pVa0o_17astraweave_render4mesh5testss_32test_cpu_mesh_aabb_single_vertex
FNDA:1,_RNvNtNtCs5u7LM5pVa0o_17astraweave_render4mesh5testss_34test_mesh_vertex_attribs_locations
FNDA:1,_RNvNtNtCs5u7LM5pVa0o_17astraweave_render4mesh5testss_36test_cpu_mesh_aabb_multiple_vertices
FNDA:1,_RNvNtNtCs5u7LM5pVa0o_17astraweave_render4mesh5testss_37test_compute_tangents_single_triangle
FNDA:1,_RNvNtNtCs5u7LM5pVa0o_17astraweave_render4mesh5testss_41test_compute_tangents_incomplete_triangle
FNDA:11,_RNvMNtCs5u7LM5pVa0o_17astraweave_render4meshNtB2_10MeshVertex11from_arrays
FNDA:3,_RNvMNtCs5u7LM5pVa0o_17astraweave_render4meshNtB2_10MeshVertex3new
FNDA:4,_RNvMs0_NtCs5u7LM5pVa0o_17astraweave_render4meshNtB5_7CpuMesh4aabb
FNDA:1,_RNvMs_NtCs5u7LM5pVa0o_17astraweave_render4meshNtB4_16MeshVertexLayout13buffer_layout
FNDA:3,_RNvNtCs5u7LM5pVa0o_17astraweave_render4mesh16compute_tangents
FNF:18
FNH:18
DA:15,3
DA:16,3
DA:17,3
DA:18,3
DA:19,3
DA:20,3
DA:21,3
DA:22,3
DA:23,11
DA:24,11
DA:25,11
DA:26,11
DA:27,11
DA:28,11
DA:29,11
DA:30,11
DA:31,11
DA:32,11
DA:33,11
DA:34,11
DA:35,11
DA:46,1
DA:47,1
DA:48,1
DA:49,1
DA:50,1
DA:51,1
DA:52,1
DA:62,4
DA:63,4
DA:64,1
DA:65,3
DA:66,3
DA:67,3
DA:68,9
DA:69,6
DA:70,6
DA:71,6
DA:72,6
DA:73,3
DA:74,4
DA:78,3
DA:79,3
DA:80,1
DA:81,2
DA:82,2
DA:83,2
DA:84,2
DA:85,2
DA:86,2
DA:87,1
DA:88,1
DA:89,1
DA:90,1
DA:91,1
DA:92,1
DA:93,1
DA:94,1
DA:95,1
DA:96,1
DA:97,1
DA:98,1
DA:99,1
DA:100,1
DA:101,1
DA:102,1
DA:103,1
DA:104,1
DA:105,1
DA:106,1
DA:107,1
DA:108,3
DA:109,3
DA:110,3
DA:111,3
DA:112,3
DA:113,3
DA:115,0
DA:117,3
DA:119,3
DA:126,1
DA:127,1
DA:128,1
DA:129,1
DA:130,1
DA:132,1
DA:134,1
DA:135,1
DA:136,1
DA:137,1
DA:138,1
DA:141,1
DA:142,1
DA:143,1
DA:144,1
DA:145,1
DA:146,1
DA:149,1
DA:150,1
DA:151,1
DA:152,1
DA:153,1
DA:156,1
DA:157,1
DA:160,1
DA:161,1
DA:164,1
DA:165,1
DA:168,1
DA:170,1
DA:171,1
DA:172,1
DA:173,1
DA:174,1
DA:177,1
DA:178,1
DA:179,1
DA:180,1
DA:181,1
DA:184,1
DA:185,1
DA:186,1
DA:187,1
DA:190,1
DA:191,1
DA:192,1
DA:193,1
DA:194,1
DA:195,1
DA:196,1
DA:199,1
DA:200,1
DA:201,1
DA:202,1
DA:205,1
DA:206,1
DA:207,1
DA:208,1
DA:209,1
DA:211,1
DA:212,1
DA:213,1
DA:214,1
DA:217,1
DA:218,1
DA:219,1
DA:220,1
DA:221,1
DA:224,1
DA:225,1
DA:226,1
DA:227,1
DA:228,1
DA:230,1
DA:231,1
DA:232,1
DA:235,1
DA:236,1
DA:238,1
DA:239,1
DA:240,1
DA:241,1
DA:242,1
DA:244,1
DA:245,1
DA:246,1
DA:247,1
DA:248,1
DA:250,1
DA:251,1
DA:252,1
DA:253,1
DA:254,1
DA:256,1
DA:258,1
DA:261,4
DA:262,3
DA:263,3
DA:264,3
DA:266,1
DA:269,1
DA:271,1
DA:272,1
DA:273,1
DA:276,1
DA:277,1
DA:278,1
DA:279,1
DA:281,1
DA:282,1
DA:283,1
DA:284,1
BRF:0
BRH:0
LF:192
LH:191
end_of_record
SF:C:\Users\pv2br\source\repos\AstraWeave-AI-Native-Gaming-Engine\astraweave-render\src\mesh_registry.rs
FN:171,_RNvMNtCs5u7LM5pVa0o_17astraweave_render13mesh_registryNtB2_12MeshRegistry3get
FN:163,_RNvMNtCs5u7LM5pVa0o_17astraweave_render13mesh_registryNtB2_12MeshRegistry3new
FN:175,_RNvMNtCs5u7LM5pVa0o_17astraweave_render13mesh_registryNtB2_12MeshRegistry15fetch_or_upload
FN:216,_RNvMNtCs5u7LM5pVa0o_17astraweave_render13mesh_registryNtB2_12MeshRegistry7get_gpu
FN:28,_RNvNtNtCs5u7LM5pVa0o_17astraweave_render13mesh_registry5testss_13cpu_mesh_aabb
FN:88,_RNvNtNtCs5u7LM5pVa0o_17astraweave_render13mesh_registry5testss_19test_mesh_key_clone
FN:102,_RNvNtNtCs5u7LM5pVa0o_17astraweave_render13mesh_registry5testss_19test_mesh_key_debug
FN:95,_RNvNtNtCs5u7LM5pVa0o_17astraweave_render13mesh_registry5testss_22test_mesh_handle_debug
FN:60,_RNvNtNtCs5u7LM5pVa0o_17astraweave_render13mesh_registry5testss_22test_mesh_key_equality
FN:52,_RNvNtNtCs5u7LM5pVa0o_17astraweave_render13mesh_registry5testss_22test_mesh_registry_new
FN:122,_RNvNtNtCs5u7LM5pVa0o_17astraweave_render13mesh_registry5testss_23test_gpu_mesh_aabb_some
FN:70,_RNvNtNtCs5u7LM5pVa0o_17astraweave_render13mesh_registry5testss_25test_mesh_handle_equality
FN:80,_RNvNtNtCs5u7LM5pVa0o_17astraweave_render13mesh_registry5testss_28test_mesh_registry_get_empty
FN:130,_RNvNtNtCs5u7LM5pVa0o_17astraweave_render13mesh_registry5testss_30test_mesh_key_hash_consistency
FN:141,_RNvNtNtCs5u7LM5pVa0o_17astraweave_render13mesh_registry5testss_33test_mesh_handle_hash_consistency
FN:109,_RNvNtNtCs5u7LM5pVa0o_17astraweave_render13mesh_registry5testss_37test_mesh_registry_next_id_increments
FNDA:1,_RNvMNtCs5u7LM5pVa0o_17astraweave_render13mesh_registryNtB2_12MeshRegistry3get
FNDA:3,_RNvMNtCs5u7LM5pVa0o_17astraweave_render13mesh_registryNtB2_12MeshRegistry3new
FNDA:0,_RNvMNtCs5u7LM5pVa0o_17astraweave_render13mesh_registryNtB2_12MeshRegistry15fetch_or_upload
FNDA:0,_RNvMNtCs5u7LM5pVa0o_17astraweave_render13mesh_registryNtB2_12MeshRegistry7get_gpu
FNDA:1,_RNvNtNtCs5u7LM5pVa0o_17astraweave_render13mesh_registry5testss_13cpu_mesh_aabb
FNDA:1,_RNvNtNtCs5u7LM5pVa0o_17astraweave_render13mesh_registry5testss_19test_mesh_key_clone
FNDA:1,_RNvNtNtCs5u7LM5pVa0o_17astraweave_render13mesh_registry5testss_19test_mesh_key_debug
FNDA:1,_RNvNtNtCs5u7LM5pVa0o_17astraweave_render13mesh_registry5testss_22test_mesh_handle_debug
FNDA:1,_RNvNtNtCs5u7LM5pVa0o_17astraweave_render13mesh_registry5testss_22test_mesh_key_equality
FNDA:1,_RNvNtNtCs5u7LM5pVa0o_17astraweave_render13mesh_registry5testss_22test_mesh_registry_new
FNDA:1,_RNvNtNtCs5u7LM5pVa0o_17astraweave_render13mesh_registry5testss_23test_gpu_mesh_aabb_some
FNDA:1,_RNvNtNtCs5u7LM5pVa0o_17astraweave_render13mesh_registry5testss_25test_mesh_handle_equality
FNDA:1,_RNvNtNtCs5u7LM5pVa0o_17astraweave_render13mesh_registry5testss_28test_mesh_registry_get_empty
FNDA:1,_RNvNtNtCs5u7LM5pVa0o_17astraweave_render13mesh_registry5testss_30test_mesh_key_hash_consistency
FNDA:1,_RNvNtNtCs5u7LM5pVa0o_17astraweave_render13mesh_registry5testss_33test_mesh_handle_hash_consistency
FNDA:1,_RNvNtNtCs5u7LM5pVa0o_17astraweave_render13mesh_registry5testss_37test_mesh_registry_next_id_increments
FNF:16
FNH:14
DA:28,1
DA:29,1
DA:30,1
DA:31,1
DA:32,1
DA:33,1
DA:34,1
DA:35,1
DA:36,1
DA:37,1
DA:38,1
DA:39,1
DA:40,1
DA:41,1
DA:42,1
DA:43,1
DA:44,1
DA:45,1
DA:46,1
DA:47,1
DA:48,1
DA:49,1
DA:52,1
DA:53,1
DA:54,1
DA:55,1
DA:56,1
DA:57,1
DA:60,1
DA:61,1
DA:62,1
DA:63,1
DA:65,1
DA:66,1
DA:67,1
DA:70,1
DA:71,1
DA:72,1
DA:73,1
DA:75,1
DA:76,1
DA:77,1
DA:80,1
DA:81,1
DA:82,1
DA:84,1
DA:85,1
DA:88,1
DA:89,1
DA:90,1
DA:91,1
DA:92,1
DA:95,1
DA:96,1
DA:97,1
DA:98,1
DA:99,1
DA:102,1
DA:103,1
DA:104,1
DA:105,1
DA:106,1
DA:109,1
DA:110,1
DA:111,1
DA:114,1
DA:115,1
DA:117,1
DA:118,1
DA:119,1
DA:122,1
DA:124,1
DA:126,1
DA:127,1
DA:130,1
DA:133,1
DA:134,1
DA:135,1
DA:137,1
DA:138,1
DA:141,1
DA:144,1
DA:145,1
DA:146,1
DA:148,1
DA:149,1
DA:163,3
DA:164,3
DA:165,3
DA:166,3
DA:167,3
DA:168,3
DA:169,3
DA:171,1
DA:172,1
DA:173,1
DA:175,0
DA:176,0
DA:177,0
DA:178,0
DA:179,0
DA:180,0
DA:181,0
DA:182,0
DA:183,0
DA:184,0
DA:185,0
DA:186,0
DA:188,0
DA:189,0
DA:190,0
DA:191,0
DA:192,0
DA:193,0
DA:194,0
DA:195,0
DA:196,0
DA:197,0
DA:198,0
DA:199,0
DA:200,0
DA:201,0
DA:202,0
DA:203,0
DA:204,0
DA:205,0
DA:206,0
DA:207,0
DA:208,0
DA:209,0
DA:210,0
DA:211,0
DA:212,0
DA:213,0
DA:214,0
DA:216,0
DA:217,0
DA:218,0
BRF:0
BRH:0
LF:138
LH:96
end_of_record
SF:C:\Users\pv2br\source\repos\AstraWeave-AI-Native-Gaming-Engine\astraweave-render\src\overlay.rs
FN:128,_RNCNvNtNtCs5u7LM5pVa0o_17astraweave_render7overlay5tests18create_test_device0B7_
FN:182,_RNCNvNtNtCs5u7LM5pVa0o_17astraweave_render7overlay5testss_19test_overlay_fx_new0B7_
FN:193,_RNCNvNtNtCs5u7LM5pVa0o_17astraweave_render7overlay5testss_22test_overlay_fx_update0B7_
FN:211,_RNCNvNtNtCs5u7LM5pVa0o_17astraweave_render7overlay5testss_32test_overlay_fx_multiple_updates0B7_
FN:231,_RNCNvNtNtCs5u7LM5pVa0o_17astraweave_render7overlay5testss_33test_overlay_fx_different_formats0B7_
FN:128,_RNvNtNtCs5u7LM5pVa0o_17astraweave_render7overlay5tests18create_test_device
FN:181,_RNvNtNtCs5u7LM5pVa0o_17astraweave_render7overlay5testss_19test_overlay_fx_new
FN:192,_RNvNtNtCs5u7LM5pVa0o_17astraweave_render7overlay5testss_22test_overlay_fx_update
FN:158,_RNvNtNtCs5u7LM5pVa0o_17astraweave_render7overlay5testss_23test_overlay_params_pod
FN:170,_RNvNtNtCs5u7LM5pVa0o_17astraweave_render7overlay5testss_26test_overlay_params_values
FN:248,_RNvNtNtCs5u7LM5pVa0o_17astraweave_render7overlay5testss_26test_overlay_params_zeroed
FN:210,_RNvNtNtCs5u7LM5pVa0o_17astraweave_render7overlay5testss_32test_overlay_fx_multiple_updates
FN:230,_RNvNtNtCs5u7LM5pVa0o_17astraweave_render7overlay5testss_33test_overlay_fx_different_formats
FN:44,_RNvMNtCs5u7LM5pVa0o_17astraweave_render7overlayNtB2_9OverlayFx3new
FN:113,_RNvMNtCs5u7LM5pVa0o_17astraweave_render7overlayNtB2_9OverlayFx6update
FN:117,_RNvMNtCs5u7LM5pVa0o_17astraweave_render7overlayNtB2_9OverlayFx4draw
FNDA:4,_RNCNvNtNtCs5u7LM5pVa0o_17astraweave_render7overlay5tests18create_test_device0B7_
FNDA:1,_RNCNvNtNtCs5u7LM5pVa0o_17astraweave_render7overlay5testss_19test_overlay_fx_new0B7_
FNDA:1,_RNCNvNtNtCs5u7LM5pVa0o_17astraweave_render7overlay5testss_22test_overlay_fx_update0B7_
FNDA:1,_RNCNvNtNtCs5u7LM5pVa0o_17astraweave_render7overlay5testss_32test_overlay_fx_multiple_updates0B7_
FNDA:1,_RNCNvNtNtCs5u7LM5pVa0o_17astraweave_render7overlay5testss_33test_overlay_fx_different_formats0B7_
FNDA:4,_RNvNtNtCs5u7LM5pVa0o_17astraweave_render7overlay5tests18create_test_device
FNDA:1,_RNvNtNtCs5u7LM5pVa0o_17astraweave_render7overlay5testss_19test_overlay_fx_new
FNDA:1,_RNvNtNtCs5u7LM5pVa0o_17astraweave_render7overlay5testss_22test_overlay_fx_update
FNDA:1,_RNvNtNtCs5u7LM5pVa0o_17astraweave_render7overlay5testss_23test_overlay_params_pod
FNDA:1,_RNvNtNtCs5u7LM5pVa0o_17astraweave_render7overlay5testss_26test_overlay_params_values
FNDA:1,_RNvNtNtCs5u7LM5pVa0o_17astraweave_render7overlay5testss_26test_overlay_params_zeroed
FNDA:1,_RNvNtNtCs5u7LM5pVa0o_17astraweave_render7overlay5testss_32test_overlay_fx_multiple_updates
FNDA:1,_RNvNtNtCs5u7LM5pVa0o_17astraweave_render7overlay5testss_33test_overlay_fx_different_formats
FNDA:6,_RNvMNtCs5u7LM5pVa0o_17astraweave_render7overlayNtB2_9OverlayFx3new
FNDA:6,_RNvMNtCs5u7LM5pVa0o_17astraweave_render7overlayNtB2_9OverlayFx6update
FNDA:0,_RNvMNtCs5u7LM5pVa0o_17astraweave_render7overlayNtB2_9OverlayFx4draw
FNF:16
FNH:15
DA:44,6
DA:45,6
DA:46,6
DA:47,6
DA:48,6
DA:49,6
DA:50,6
DA:51,6
DA:52,6
DA:53,6
DA:54,6
DA:55,6
DA:56,6
DA:57,6
DA:58,6
DA:59,6
DA:60,6
DA:61,6
DA:62,6
DA:63,6
DA:64,6
DA:65,6
DA:66,6
DA:67,6
DA:68,6
DA:69,6
DA:70,6
DA:71,6
DA:72,6
DA:73,6
DA:74,6
DA:75,6
DA:76,6
DA:77,6
DA:78,6
DA:79,6
DA:80,6
DA:81,6
DA:82,6
DA:83,6
DA:84,6
DA:85,6
DA:86,6
DA:87,6
DA:88,6
DA:89,6
DA:90,6
DA:91,6
DA:92,6
DA:93,6
DA:94,6
DA:95,6
DA:96,6
DA:97,6
DA:98,6
DA:99,6
DA:100,6
DA:101,6
DA:102,6
DA:103,6
DA:104,6
DA:105,6
DA:106,6
DA:107,6
DA:108,6
DA:109,6
DA:110,6
DA:111,6
DA:113,6
DA:114,6
DA:115,6
DA:117,0
DA:118,0
DA:119,0
DA:120,0
DA:121,0
DA:128,4
DA:129,4
DA:130,4
DA:131,4
DA:132,4
DA:134,4
DA:135,4
DA:136,4
DA:137,4
DA:138,4
DA:139,4
DA:140,4
DA:141,4
DA:143,4
DA:144,4
DA:145,4
DA:146,4
DA:147,4
DA:148,4
DA:149,4
DA:150,4
DA:151,4
DA:152,4
DA:153,4
DA:154,4
DA:155,4
DA:158,1
DA:160,1
DA:161,1
DA:162,1
DA:163,1
DA:164,1
DA:165,1
DA:166,1
DA:167,1
DA:170,1
DA:171,1
DA:172,1
DA:173,1
DA:174,1
DA:175,1
DA:176,1
DA:177,1
DA:178,1
DA:181,1
DA:182,1
DA:183,1
DA:184,1
DA:187,1
DA:188,1
DA:189,1
DA:192,1
DA:193,1
DA:194,1
DA:195,1
DA:197,1
DA:198,1
DA:199,1
DA:200,1
DA:201,1
DA:202,1
DA:205,1
DA:206,1
DA:207,1
DA:210,1
DA:211,1
DA:212,1
DA:213,1
DA:215,1
DA:218,6
DA:219,5
DA:220,5
DA:221,5
DA:222,5
DA:223,5
DA:224,5
DA:225,5
DA:226,1
DA:227,1
DA:230,1
DA:231,1
DA:232,1
DA:234,1
DA:235,1
DA:236,1
DA:237,1
DA:240,4
DA:241,3
DA:242,3
DA:243,3
DA:244,1
DA:245,1
DA:248,1
DA:249,1
DA:250,1
DA:251,1
DA:252,1
BRF:0
BRH:0
LF:178
LH:173
end_of_record
SF:C:\Users\pv2br\source\repos\AstraWeave-AI-Native-Gaming-Engine\astraweave-render\src\post.rs
FN:36,_RNvMs_NtCs5u7LM5pVa0o_17astraweave_render4postNtB4_11BloomConfig8validate
FN:25,_RNvXNtCs5u7LM5pVa0o_17astraweave_render4postNtB2_11BloomConfigNtNtCsixiwFwjEgS7_4core7default7Default7default
FN:941,_RNCNvNtNtCs5u7LM5pVa0o_17astraweave_render4post5testss_10parse_ssao0B7_
FN:947,_RNCNvNtNtCs5u7LM5pVa0o_17astraweave_render4post5testss_10parse_ssgi0B7_
FN:917,_RNCNvNtNtCs5u7LM5pVa0o_17astraweave_render4post5testss_20parse_bloom_upsample0B7_
FN:924,_RNCNvNtNtCs5u7LM5pVa0o_17astraweave_render4post5testss_21parse_bloom_composite0B7_
FN:902,_RNCNvNtNtCs5u7LM5pVa0o_17astraweave_render4post5testss_21parse_bloom_threshold0B7_
FN:903,_RNCNvNtNtCs5u7LM5pVa0o_17astraweave_render4post5testss_21parse_bloom_thresholds_0B7_
FN:910,_RNCNvNtNtCs5u7LM5pVa0o_17astraweave_render4post5testss_22parse_bloom_downsample0B7_
FN:935,_RNCNvNtNtCs5u7LM5pVa0o_17astraweave_render4post5testss_9parse_ssr0B7_
FN:938,_RNvNtNtCs5u7LM5pVa0o_17astraweave_render4post5testss_10parse_ssao
FN:944,_RNvNtNtCs5u7LM5pVa0o_17astraweave_render4post5testss_10parse_ssgi
FN:851,_RNvNtNtCs5u7LM5pVa0o_17astraweave_render4post5testss_20bloom_config_default
FN:914,_RNvNtNtCs5u7LM5pVa0o_17astraweave_render4post5testss_20parse_bloom_upsample
FN:921,_RNvNtNtCs5u7LM5pVa0o_17astraweave_render4post5testss_21parse_bloom_composite
FN:899,_RNvNtNtCs5u7LM5pVa0o_17astraweave_render4post5testss_21parse_bloom_threshold
FN:951,_RNvNtNtCs5u7LM5pVa0o_17astraweave_render4post5testss_21ssr_bindings_declared
FN:907,_RNvNtNtCs5u7LM5pVa0o_17astraweave_render4post5testss_22parse_bloom_downsample
FN:958,_RNvNtNtCs5u7LM5pVa0o_17astraweave_render4post5testss_22ssgi_bindings_declared
FN:873,_RNvNtNtCs5u7LM5pVa0o_17astraweave_render4post5testss_31bloom_config_validate_intensity
FN:886,_RNvNtNtCs5u7LM5pVa0o_17astraweave_render4post5testss_31bloom_config_validate_mip_count
FN:860,_RNvNtNtCs5u7LM5pVa0o_17astraweave_render4post5testss_31bloom_config_validate_threshold
FN:932,_RNvNtNtCs5u7LM5pVa0o_17astraweave_render4post5testss_9parse_ssr
FNDA:10,_RNvMs_NtCs5u7LM5pVa0o_17astraweave_render4postNtB4_11BloomConfig8validate
FNDA:4,_RNvXNtCs5u7LM5pVa0o_17astraweave_render4postNtB2_11BloomConfigNtNtCsixiwFwjEgS7_4core7default7Default7default
FNDA:2,_RNCNvNtNtCs5u7LM5pVa0o_17astraweave_render4post5testss_10parse_ssao0B7_
FNDA:2,_RNCNvNtNtCs5u7LM5pVa0o_17astraweave_render4post5testss_10parse_ssgi0B7_
FNDA:2,_RNCNvNtNtCs5u7LM5pVa0o_17astraweave_render4post5testss_20parse_bloom_upsample0B7_
FNDA:2,_RNCNvNtNtCs5u7LM5pVa0o_17astraweave_render4post5testss_21parse_bloom_composite0B7_
FNDA:2,_RNCNvNtNtCs5u7LM5pVa0o_17astraweave_render4post5testss_21parse_bloom_threshold0B7_
FNDA:1,_RNCNvNtNtCs5u7LM5pVa0o_17astraweave_render4post5testss_21parse_bloom_thresholds_0B7_
FNDA:2,_RNCNvNtNtCs5u7LM5pVa0o_17astraweave_render4post5testss_22parse_bloom_downsample0B7_
FNDA:2,_RNCNvNtNtCs5u7LM5pVa0o_17astraweave_render4post5testss_9parse_ssr0B7_
FNDA:1,_RNvNtNtCs5u7LM5pVa0o_17astraweave_render4post5testss_10parse_ssao
FNDA:1,_RNvNtNtCs5u7LM5pVa0o_17astraweave_render4post5testss_10parse_ssgi
FNDA:1,_RNvNtNtCs5u7LM5pVa0o_17astraweave_render4post5testss_20bloom_config_default
FNDA:1,_RNvNtNtCs5u7LM5pVa0o_17astraweave_render4post5testss_20parse_bloom_upsample
FNDA:1,_RNvNtNtCs5u7LM5pVa0o_17astraweave_render4post5testss_21parse_bloom_composite
FNDA:1,_RNvNtNtCs5u7LM5pVa0o_17astraweave_render4post5testss_21parse_bloom_threshold
FNDA:1,_RNvNtNtCs5u7LM5pVa0o_17astraweave_render4post5testss_21ssr_bindings_declared
FNDA:1,_RNvNtNtCs5u7LM5pVa0o_17astraweave_render4post5testss_22parse_bloom_downsample
FNDA:1,_RNvNtNtCs5u7LM5pVa0o_17astraweave_render4post5testss_22ssgi_bindings_declared
FNDA:1,_RNvNtNtCs5u7LM5pVa0o_17astraweave_render4post5testss_31bloom_config_validate_intensity
FNDA:1,_RNvNtNtCs5u7LM5pVa0o_17astraweave_render4post5testss_31bloom_config_validate_mip_count
FNDA:1,_RNvNtNtCs5u7LM5pVa0o_17astraweave_render4post5testss_31bloom_config_validate_threshold
FNDA:1,_RNvNtNtCs5u7LM5pVa0o_17astraweave_render4post5testss_9parse_ssr
FNF:23
FNH:23
DA:25,4
DA:26,4
DA:27,4
DA:28,4
DA:29,4
DA:30,4
DA:31,4
DA:36,10
DA:37,10
DA:38,10
DA:39,2
DA:42,8
DA:43,8
DA:44,2
DA:47,6
DA:48,6
DA:49,2
DA:52,4
DA:53,10
DA:851,1
DA:852,1
DA:853,1
DA:854,1
DA:855,1
DA:856,1
DA:857,1
DA:860,1
DA:861,1
DA:862,1
DA:863,1
DA:865,1
DA:866,1
DA:868,1
DA:869,1
DA:870,1
DA:873,1
DA:874,1
DA:875,1
DA:876,1
DA:878,1
DA:879,1
DA:881,1
DA:882,1
DA:883,1
DA:886,1
DA:887,1
DA:888,1
DA:889,1
DA:891,1
DA:892,1
DA:894,1
DA:895,1
DA:896,1
DA:899,1
DA:900,1
DA:901,1
DA:902,2
DA:903,1
DA:904,1
DA:907,1
DA:908,1
DA:909,1
DA:910,2
DA:911,1
DA:914,1
DA:915,1
DA:916,1
DA:917,2
DA:918,1
DA:921,1
DA:922,1
DA:923,1
DA:924,2
DA:925,1
DA:932,1
DA:933,1
DA:934,1
DA:935,2
DA:936,1
DA:938,1
DA:939,1
DA:940,1
DA:941,2
DA:942,1
DA:944,1
DA:945,1
DA:946,1
DA:947,2
DA:948,1
DA:951,1
DA:952,1
DA:953,1
DA:954,1
DA:955,1
DA:958,1
DA:959,1
DA:960,1
DA:961,1
DA:962,1
BRF:0
BRH:0
LF:107
LH:107
end_of_record
SF:C:\Users\pv2br\source\repos\AstraWeave-AI-Native-Gaming-Engine\astraweave-render\src\primitives.rs
FN:4,_RNvNtCs5u7LM5pVa0o_17astraweave_render10primitives4cube
FN:66,_RNvNtCs5u7LM5pVa0o_17astraweave_render10primitives5plane
FN:100,_RNvNtCs5u7LM5pVa0o_17astraweave_render10primitives6sphere
FN:192,_RNvNtNtCs5u7LM5pVa0o_17astraweave_render10primitives5testss_13test_cube_uvs
FN:287,_RNvNtNtCs5u7LM5pVa0o_17astraweave_render10primitives5testss_15test_sphere_uvs
FN:171,_RNvNtNtCs5u7LM5pVa0o_17astraweave_render10primitives5testss_17test_cube_normals
FN:157,_RNvNtNtCs5u7LM5pVa0o_17astraweave_render10primitives5testss_18test_cube_geometry
FN:225,_RNvNtNtCs5u7LM5pVa0o_17astraweave_render10primitives5testss_18test_plane_normals
FN:261,_RNvNtNtCs5u7LM5pVa0o_17astraweave_render10primitives5testss_18test_sphere_radius
FN:213,_RNvNtNtCs5u7LM5pVa0o_17astraweave_render10primitives5testss_19test_plane_geometry
FN:271,_RNvNtNtCs5u7LM5pVa0o_17astraweave_render10primitives5testss_19test_sphere_normals
FN:234,_RNvNtNtCs5u7LM5pVa0o_17astraweave_render10primitives5testss_20test_plane_positions
FN:297,_RNvNtNtCs5u7LM5pVa0o_17astraweave_render10primitives5testss_25test_sphere_below_minimum
FN:305,_RNvNtNtCs5u7LM5pVa0o_17astraweave_render10primitives5testss_28test_sphere_indices_validity
FN:252,_RNvNtNtCs5u7LM5pVa0o_17astraweave_render10primitives5testss_30test_sphere_minimum_resolution
FN:203,_RNCNvNtNtCs5u7LM5pVa0o_17astraweave_render10primitives5testss_13test_cube_uvs0B7_
FNDA:3,_RNvNtCs5u7LM5pVa0o_17astraweave_render10primitives4cube
FNDA:3,_RNvNtCs5u7LM5pVa0o_17astraweave_render10primitives5plane
FNDA:7,_RNvNtCs5u7LM5pVa0o_17astraweave_render10primitives6sphere
FNDA:1,_RNvNtNtCs5u7LM5pVa0o_17astraweave_render10primitives5testss_13test_cube_uvs
FNDA:1,_RNvNtNtCs5u7LM5pVa0o_17astraweave_render10primitives5testss_15test_sphere_uvs
FNDA:1,_RNvNtNtCs5u7LM5pVa0o_17astraweave_render10primitives5testss_17test_cube_normals
FNDA:1,_RNvNtNtCs5u7LM5pVa0o_17astraweave_render10primitives5testss_18test_cube_geometry
FNDA:1,_RNvNtNtCs5u7LM5pVa0o_17astraweave_render10primitives5testss_18test_plane_normals
FNDA:1,_RNvNtNtCs5u7LM5pVa0o_17astraweave_render10primitives5testss_18test_sphere_radius
FNDA:1,_RNvNtNtCs5u7LM5pVa0o_17astraweave_render10primitives5testss_19test_plane_geometry
FNDA:1,_RNvNtNtCs5u7LM5pVa0o_17astraweave_render10primitives5testss_19test_sphere_normals
FNDA:1,_RNvNtNtCs5u7LM5pVa0o_17astraweave_render10primitives5testss_20test_plane_positions
FNDA:1,_RNvNtNtCs5u7LM5pVa0o_17astraweave_render10primitives5testss_25test_sphere_below_minimum
FNDA:1,_RNvNtNtCs5u7LM5pVa0o_17astraweave_render10primitives5testss_28test_sphere_indices_validity
FNDA:1,_RNvNtNtCs5u7LM5pVa0o_17astraweave_render10primitives5testss_30test_sphere_minimum_resolution
FNDA:24,_RNCNvNtNtCs5u7LM5pVa0o_17astraweave_render10primitives5testss_13test_cube_uvs0B7_
FNF:16
FNH:16
DA:4,3
DA:6,3
DA:7,3
DA:8,3
DA:9,3
DA:10,3
DA:11,3
DA:12,3
DA:13,3
DA:14,3
DA:15,3
DA:16,3
DA:17,3
DA:18,3
DA:19,3
DA:20,3
DA:21,3
DA:22,3
DA:23,3
DA:24,3
DA:25,3
DA:26,3
DA:27,3
DA:28,3
DA:29,3
DA:30,3
DA:31,3
DA:32,3
DA:33,3
DA:34,3
DA:35,3
DA:36,3
DA:37,3
DA:38,3
DA:39,3
DA:40,72
DA:42,72
DA:44,72
DA:45,72
DA:46,18
DA:47,18
DA:48,18
DA:49,18
DA:51,72
DA:52,72
DA:53,72
DA:54,72
DA:55,72
DA:56,72
DA:57,72
DA:58,18
DA:59,18
DA:60,54
DA:62,3
DA:63,3
DA:66,3
DA:67,3
DA:68,3
DA:69,3
DA:70,3
DA:71,3
DA:72,3
DA:73,3
DA:74,3
DA:75,3
DA:76,3
DA:77,3
DA:78,3
DA:79,3
DA:80,3
DA:81,3
DA:82,3
DA:83,3
DA:84,3
DA:85,3
DA:86,3
DA:87,3
DA:88,3
DA:89,3
DA:90,3
DA:91,3
DA:92,3
DA:93,3
DA:95,3
DA:96,3
DA:97,3
DA:100,7
DA:101,7
DA:102,7
DA:103,7
DA:104,7
DA:106,48
DA:107,48
DA:108,48
DA:109,48
DA:110,48
DA:111,372
DA:112,372
DA:113,372
DA:114,372
DA:115,372
DA:116,372
DA:117,372
DA:118,372
DA:119,372
DA:120,372
DA:121,372
DA:122,372
DA:123,372
DA:124,372
DA:125,372
DA:126,372
DA:127,372
DA:128,372
DA:129,372
DA:130,372
DA:131,372
DA:132,372
DA:133,372
DA:134,372
DA:135,372
DA:138,7
DA:139,41
DA:140,283
DA:141,283
DA:142,283
DA:143,283
DA:144,283
DA:145,283
DA:146,283
DA:149,7
DA:150,7
DA:157,1
DA:158,1
DA:160,1
DA:162,1
DA:165,37
DA:166,36
DA:168,1
DA:171,1
DA:172,1
DA:174,25
DA:175,24
DA:176,24
DA:180,7
DA:181,6
DA:182,6
DA:184,24
DA:185,18
DA:186,18
DA:189,1
DA:192,1
DA:193,1
DA:195,25
DA:196,24
DA:197,24
DA:201,7
DA:202,6
DA:203,24
DA:205,6
DA:206,6
DA:207,6
DA:208,6
DA:210,1
DA:213,1
DA:214,1
DA:216,1
DA:218,1
DA:221,1
DA:222,1
DA:225,1
DA:226,1
DA:228,5
DA:229,4
DA:231,1
DA:234,1
DA:235,1
DA:237,5
DA:238,4
DA:239,4
DA:240,4
DA:244,1
DA:245,1
DA:246,1
DA:247,1
DA:248,1
DA:249,1
DA:252,1
DA:253,1
DA:255,1
DA:257,1
DA:258,1
DA:261,1
DA:262,1
DA:264,82
DA:265,81
DA:266,81
DA:268,1
DA:271,1
DA:272,1
DA:274,82
DA:275,81
DA:276,81
DA:279,81
DA:280,81
DA:281,81
DA:282,81
DA:284,1
DA:287,1
DA:288,1
DA:290,82
DA:291,81
DA:292,81
DA:294,1
DA:297,1
DA:299,1
DA:300,1
DA:301,1
DA:302,1
DA:305,1
DA:306,1
DA:308,385
DA:309,384
DA:313,1
DA:314,1
BRF:0
BRH:0
LF:226
LH:226
end_of_record
SF:C:\Users\pv2br\source\repos\AstraWeave-AI-Native-Gaming-Engine\astraweave-render\src\renderer.rs
FN:4066,_RINvMNtCs5u7LM5pVa0o_17astraweave_render8rendererNtB3_8Renderer11render_withpEB5_
FN:528,_RNCNCNvMNtCs5u7LM5pVa0o_17astraweave_render8rendererNtB6_8Renderer3new00B8_
FN:3119,_RNCNvMNtCs5u7LM5pVa0o_17astraweave_render8rendererNtB4_8Renderer16update_instances0B6_
FN:2817,_RNCNvMNtCs5u7LM5pVa0o_17astraweave_render8rendererNtB4_8Renderer18save_timeline_json0B6_
FN:4194,_RNCNvMNtCs5u7LM5pVa0o_17astraweave_render8rendererNtB4_8Renderer23build_visible_instances0B6_
FN:3036,_RNCNvMNtCs5u7LM5pVa0o_17astraweave_render8rendererNtB4_8Renderer23create_mesh_from_arrays0B6_
FN:3085,_RNCNvMNtCs5u7LM5pVa0o_17astraweave_render8rendererNtB4_8Renderer28create_mesh_from_full_arrays0B6_
FN:490,_RNCNvMNtCs5u7LM5pVa0o_17astraweave_render8rendererNtB4_8Renderer3new0B6_
FN:3230,_RNCNvMNtCs5u7LM5pVa0o_17astraweave_render8rendererNtB4_8Renderer6render0B6_
FN:3764,_RNCNvMNtCs5u7LM5pVa0o_17astraweave_render8rendererNtB4_8Renderer9draw_into0B6_
FN:3151,_RNvMNtCs5u7LM5pVa0o_17astraweave_render8rendererNtB2_8Renderer10sky_config
FN:3134,_RNvMNtCs5u7LM5pVa0o_17astraweave_render8rendererNtB2_8Renderer11set_weather
FN:3598,_RNvMNtCs5u7LM5pVa0o_17astraweave_render8rendererNtB2_8Renderer12render_bloom
FN:4054,_RNvMNtCs5u7LM5pVa0o_17astraweave_render8rendererNtB2_8Renderer12surface_size
FN:3138,_RNvMNtCs5u7LM5pVa0o_17astraweave_render8rendererNtB2_8Renderer12tick_weather
FN:2820,_RNvMNtCs5u7LM5pVa0o_17astraweave_render8rendererNtB2_8Renderer13play_timeline
FN:2826,_RNvMNtCs5u7LM5pVa0o_17astraweave_render8rendererNtB2_8Renderer13seek_timeline
FN:2823,_RNvMNtCs5u7LM5pVa0o_17astraweave_render8rendererNtB2_8Renderer13stop_timeline
FN:2923,_RNvMNtCs5u7LM5pVa0o_17astraweave_render8rendererNtB2_8Renderer13update_camera
FN:3155,_RNvMNtCs5u7LM5pVa0o_17astraweave_render8rendererNtB2_8Renderer14set_sky_config
FN:4062,_RNvMNtCs5u7LM5pVa0o_17astraweave_render8rendererNtB2_8Renderer14surface_format
FN:2831,_RNvMNtCs5u7LM5pVa0o_17astraweave_render8rendererNtB2_8Renderer15tick_cinematics
FN:3147,_RNvMNtCs5u7LM5pVa0o_17astraweave_render8rendererNtB2_8Renderer15time_of_day_mut
FN:2795,_RNvMNtCs5u7LM5pVa0o_17astraweave_render8rendererNtB2_8Renderer16apply_camera_key
FN:4444,_RNvMNtCs5u7LM5pVa0o_17astraweave_render8rendererNtB2_8Renderer16set_skinned_mesh
FN:3142,_RNvMNtCs5u7LM5pVa0o_17astraweave_render8rendererNtB2_8Renderer16tick_environment
FN:3116,_RNvMNtCs5u7LM5pVa0o_17astraweave_render8rendererNtB2_8Renderer16update_instances
FN:3112,_RNvMNtCs5u7LM5pVa0o_17astraweave_render8rendererNtB2_8Renderer17set_external_mesh
FN:3003,_RNvMNtCs5u7LM5pVa0o_17astraweave_render8rendererNtB2_8Renderer17set_shadow_filter
FN:2807,_RNvMNtCs5u7LM5pVa0o_17astraweave_render8rendererNtB2_8Renderer18load_timeline_json
FN:2814,_RNvMNtCs5u7LM5pVa0o_17astraweave_render8rendererNtB2_8Renderer18save_timeline_json
FN:2998,_RNvMNtCs5u7LM5pVa0o_17astraweave_render8rendererNtB2_8Renderer18set_cascade_lambda
FN:2988,_RNvMNtCs5u7LM5pVa0o_17astraweave_render8rendererNtB2_8Renderer18set_cascade_splits
FN:2992,_RNvMNtCs5u7LM5pVa0o_17astraweave_render8rendererNtB2_8Renderer19set_cascade_extents
FN:3009,_RNvMNtCs5u7LM5pVa0o_17astraweave_render8rendererNtB2_8Renderer19set_material_params
FN:4462,_RNvMNtCs5u7LM5pVa0o_17astraweave_render8rendererNtB2_8Renderer19update_skin_palette
FN:4217,_RNvMNtCs5u7LM5pVa0o_17astraweave_render8rendererNtB2_8Renderer21set_albedo_from_rgba8
FN:4368,_RNvMNtCs5u7LM5pVa0o_17astraweave_render8rendererNtB2_8Renderer21set_normal_from_rgba8
FN:4177,_RNvMNtCs5u7LM5pVa0o_17astraweave_render8rendererNtB2_8Renderer23build_visible_instances
FN:3022,_RNvMNtCs5u7LM5pVa0o_17astraweave_render8rendererNtB2_8Renderer23create_mesh_from_arrays
FN:4104,_RNvMNtCs5u7LM5pVa0o_17astraweave_render8rendererNtB2_8Renderer25bgl_from_material_package
FN:3063,_RNvMNtCs5u7LM5pVa0o_17astraweave_render8rendererNtB2_8Renderer28create_mesh_from_full_arrays
FN:463,_RNvMNtCs5u7LM5pVa0o_17astraweave_render8rendererNtB2_8Renderer28shader_from_material_package
FN:4135,_RNvMNtCs5u7LM5pVa0o_17astraweave_render8rendererNtB2_8Renderer30pipeline_from_material_package
FN:4293,_RNvMNtCs5u7LM5pVa0o_17astraweave_render8rendererNtB2_8Renderer33set_metallic_roughness_from_rgba8
FN:490,_RNvMNtCs5u7LM5pVa0o_17astraweave_render8rendererNtB2_8Renderer3new
FN:4058,_RNvMNtCs5u7LM5pVa0o_17astraweave_render8rendererNtB2_8Renderer6device
FN:3159,_RNvMNtCs5u7LM5pVa0o_17astraweave_render8rendererNtB2_8Renderer6render
FN:2860,_RNvMNtCs5u7LM5pVa0o_17astraweave_render8rendererNtB2_8Renderer6resize
FN:3684,_RNvMNtCs5u7LM5pVa0o_17astraweave_render8rendererNtB2_8Renderer9draw_into
FN:4566,_RNvNtCs5u7LM5pVa0o_17astraweave_render8renderer14frustum_center
FN:4574,_RNvNtCs5u7LM5pVa0o_17astraweave_render8renderer18aabb_in_view_space
FN:4544,_RNvNtCs5u7LM5pVa0o_17astraweave_render8renderer18frustum_corners_ws
FN:4534,_RNvNtCs5u7LM5pVa0o_17astraweave_render8renderer21inside_frustum_sphere
FN:4479,_RNvNtNtCs5u7LM5pVa0o_17astraweave_render8renderer21mat_integration_testss_38material_package_composes_valid_shader
FNDA:0,_RINvMNtCs5u7LM5pVa0o_17astraweave_render8rendererNtB3_8Renderer11render_withpEB5_
FNDA:0,_RNCNCNvMNtCs5u7LM5pVa0o_17astraweave_render8rendererNtB6_8Renderer3new00B8_
FNDA:0,_RNCNvMNtCs5u7LM5pVa0o_17astraweave_render8rendererNtB4_8Renderer16update_instances0B6_
FNDA:0,_RNCNvMNtCs5u7LM5pVa0o_17astraweave_render8rendererNtB4_8Renderer18save_timeline_json0B6_
FNDA:0,_RNCNvMNtCs5u7LM5pVa0o_17astraweave_render8rendererNtB4_8Renderer23build_visible_instances0B6_
FNDA:0,_RNCNvMNtCs5u7LM5pVa0o_17astraweave_render8rendererNtB4_8Renderer23create_mesh_from_arrays0B6_
FNDA:0,_RNCNvMNtCs5u7LM5pVa0o_17astraweave_render8rendererNtB4_8Renderer28create_mesh_from_full_arrays0B6_
FNDA:0,_RNCNvMNtCs5u7LM5pVa0o_17astraweave_render8rendererNtB4_8Renderer3new0B6_
FNDA:0,_RNCNvMNtCs5u7LM5pVa0o_17astraweave_render8rendererNtB4_8Renderer6render0B6_
FNDA:0,_RNCNvMNtCs5u7LM5pVa0o_17astraweave_render8rendererNtB4_8Renderer9draw_into0B6_
FNDA:0,_RNvMNtCs5u7LM5pVa0o_17astraweave_render8rendererNtB2_8Renderer10sky_config
FNDA:0,_RNvMNtCs5u7LM5pVa0o_17astraweave_render8rendererNtB2_8Renderer11set_weather
FNDA:0,_RNvMNtCs5u7LM5pVa0o_17astraweave_render8rendererNtB2_8Renderer12render_bloom
FNDA:0,_RNvMNtCs5u7LM5pVa0o_17astraweave_render8rendererNtB2_8Renderer12surface_size
FNDA:0,_RNvMNtCs5u7LM5pVa0o_17astraweave_render8rendererNtB2_8Renderer12tick_weather
FNDA:0,_RNvMNtCs5u7LM5pVa0o_17astraweave_render8rendererNtB2_8Renderer13play_timeline
FNDA:0,_RNvMNtCs5u7LM5pVa0o_17astraweave_render8rendererNtB2_8Renderer13seek_timeline
FNDA:0,_RNvMNtCs5u7LM5pVa0o_17astraweave_render8rendererNtB2_8Renderer13stop_timeline
FNDA:0,_RNvMNtCs5u7LM5pVa0o_17astraweave_render8rendererNtB2_8Renderer13update_camera
FNDA:0,_RNvMNtCs5u7LM5pVa0o_17astraweave_render8rendererNtB2_8Renderer14set_sky_config
FNDA:0,_RNvMNtCs5u7LM5pVa0o_17astraweave_render8rendererNtB2_8Renderer14surface_format
FNDA:0,_RNvMNtCs5u7LM5pVa0o_17astraweave_render8rendererNtB2_8Renderer15tick_cinematics
FNDA:0,_RNvMNtCs5u7LM5pVa0o_17astraweave_render8rendererNtB2_8Renderer15time_of_day_mut
FNDA:0,_RNvMNtCs5u7LM5pVa0o_17astraweave_render8rendererNtB2_8Renderer16apply_camera_key
FNDA:0,_RNvMNtCs5u7LM5pVa0o_17astraweave_render8rendererNtB2_8Renderer16set_skinned_mesh
FNDA:0,_RNvMNtCs5u7LM5pVa0o_17astraweave_render8rendererNtB2_8Renderer16tick_environment
FNDA:0,_RNvMNtCs5u7LM5pVa0o_17astraweave_render8rendererNtB2_8Renderer16update_instances
FNDA:0,_RNvMNtCs5u7LM5pVa0o_17astraweave_render8rendererNtB2_8Renderer17set_external_mesh
FNDA:0,_RNvMNtCs5u7LM5pVa0o_17astraweave_render8rendererNtB2_8Renderer17set_shadow_filter
FNDA:0,_RNvMNtCs5u7LM5pVa0o_17astraweave_render8rendererNtB2_8Renderer18load_timeline_json
FNDA:0,_RNvMNtCs5u7LM5pVa0o_17astraweave_render8rendererNtB2_8Renderer18save_timeline_json
FNDA:0,_RNvMNtCs5u7LM5pVa0o_17astraweave_render8rendererNtB2_8Renderer18set_cascade_lambda
FNDA:0,_RNvMNtCs5u7LM5pVa0o_17astraweave_render8rendererNtB2_8Renderer18set_cascade_splits
FNDA:0,_RNvMNtCs5u7LM5pVa0o_17astraweave_render8rendererNtB2_8Renderer19set_cascade_extents
FNDA:0,_RNvMNtCs5u7LM5pVa0o_17astraweave_render8rendererNtB2_8Renderer19set_material_params
FNDA:0,_RNvMNtCs5u7LM5pVa0o_17astraweave_render8rendererNtB2_8Renderer19update_skin_palette
FNDA:0,_RNvMNtCs5u7LM5pVa0o_17astraweave_render8rendererNtB2_8Renderer21set_albedo_from_rgba8
FNDA:0,_RNvMNtCs5u7LM5pVa0o_17astraweave_render8rendererNtB2_8Renderer21set_normal_from_rgba8
FNDA:0,_RNvMNtCs5u7LM5pVa0o_17astraweave_render8rendererNtB2_8Renderer23build_visible_instances
FNDA:0,_RNvMNtCs5u7LM5pVa0o_17astraweave_render8rendererNtB2_8Renderer23create_mesh_from_arrays
FNDA:0,_RNvMNtCs5u7LM5pVa0o_17astraweave_render8rendererNtB2_8Renderer25bgl_from_material_package
FNDA:0,_RNvMNtCs5u7LM5pVa0o_17astraweave_render8rendererNtB2_8Renderer28create_mesh_from_full_arrays
FNDA:0,_RNvMNtCs5u7LM5pVa0o_17astraweave_render8rendererNtB2_8Renderer28shader_from_material_package
FNDA:0,_RNvMNtCs5u7LM5pVa0o_17astraweave_render8rendererNtB2_8Renderer30pipeline_from_material_package
FNDA:0,_RNvMNtCs5u7LM5pVa0o_17astraweave_render8rendererNtB2_8Renderer33set_metallic_roughness_from_rgba8
FNDA:0,_RNvMNtCs5u7LM5pVa0o_17astraweave_render8rendererNtB2_8Renderer3new
FNDA:0,_RNvMNtCs5u7LM5pVa0o_17astraweave_render8rendererNtB2_8Renderer6device
FNDA:0,_RNvMNtCs5u7LM5pVa0o_17astraweave_render8rendererNtB2_8Renderer6render
FNDA:0,_RNvMNtCs5u7LM5pVa0o_17astraweave_render8rendererNtB2_8Renderer6resize
FNDA:0,_RNvMNtCs5u7LM5pVa0o_17astraweave_render8rendererNtB2_8Renderer9draw_into
FNDA:0,_RNvNtCs5u7LM5pVa0o_17astraweave_render8renderer14frustum_center
FNDA:0,_RNvNtCs5u7LM5pVa0o_17astraweave_render8renderer18aabb_in_view_space
FNDA:0,_RNvNtCs5u7LM5pVa0o_17astraweave_render8renderer18frustum_corners_ws
FNDA:0,_RNvNtCs5u7LM5pVa0o_17astraweave_render8renderer21inside_frustum_sphere
FNDA:1,_RNvNtNtCs5u7LM5pVa0o_17astraweave_render8renderer21mat_integration_testss_38material_package_composes_valid_shader
FNF:55
FNH:1
DA:463,0
DA:465,0
DA:466,0
DA:467,0
DA:468,0
DA:469,0
DA:470,0
DA:471,0
DA:472,0
DA:473,0
DA:474,0
DA:475,0
DA:476,0
DA:477,0
DA:478,0
DA:480,0
DA:481,0
DA:484,0
DA:485,0
DA:486,0
DA:487,0
DA:488,0
DA:489,0
DA:490,0
DA:492,0
DA:493,0
DA:494,0
DA:495,0
DA:496,0
DA:497,0
DA:498,0
DA:499,0
DA:500,0
DA:502,0
DA:503,0
DA:504,0
DA:505,0
DA:506,0
DA:507,0
DA:508,0
DA:509,0
DA:510,0
DA:511,0
DA:512,0
DA:513,0
DA:514,0
DA:515,0
DA:516,0
DA:517,0
DA:518,0
DA:519,0
DA:520,0
DA:523,0
DA:524,0
DA:525,0
DA:526,0
DA:527,0
DA:528,0
DA:529,0
DA:530,0
DA:531,0
DA:532,0
DA:533,0
DA:534,0
DA:535,0
DA:536,0
DA:537,0
DA:538,0
DA:539,0
DA:540,0
DA:541,0
DA:558,0
DA:561,0
DA:562,0
DA:563,0
DA:564,0
DA:566,0
DA:567,0
DA:568,0
DA:569,0
DA:570,0
DA:571,0
DA:573,0
DA:574,0
DA:575,0
DA:576,0
DA:577,0
DA:578,0
DA:579,0
DA:580,0
DA:581,0
DA:582,0
DA:583,0
DA:584,0
DA:585,0
DA:587,0
DA:588,0
DA:589,0
DA:590,0
DA:591,0
DA:592,0
DA:593,0
DA:594,0
DA:597,0
DA:598,0
DA:599,0
DA:600,0
DA:601,0
DA:602,0
DA:603,0
DA:604,0
DA:605,0
DA:606,0
DA:607,0
DA:608,0
DA:609,0
DA:611,0
DA:612,0
DA:613,0
DA:614,0
DA:615,0
DA:616,0
DA:618,0
DA:619,0
DA:620,0
DA:621,0
DA:622,0
DA:623,0
DA:624,0
DA:625,0
DA:626,0
DA:627,0
DA:630,0
DA:631,0
DA:632,0
DA:633,0
DA:634,0
DA:635,0
DA:636,0
DA:637,0
DA:638,0
DA:639,0
DA:640,0
DA:641,0
DA:642,0
DA:643,0
DA:644,0
DA:645,0
DA:646,0
DA:647,0
DA:648,0
DA:649,0
DA:650,0
DA:651,0
DA:652,0
DA:653,0
DA:654,0
DA:657,0
DA:658,0
DA:659,0
DA:660,0
DA:661,0
DA:662,0
DA:663,0
DA:664,0
DA:665,0
DA:666,0
DA:667,0
DA:668,0
DA:669,0
DA:670,0
DA:672,0
DA:674,0
DA:675,0
DA:676,0
DA:677,0
DA:678,0
DA:679,0
DA:680,0
DA:681,0
DA:682,0
DA:683,0
DA:684,0
DA:685,0
DA:686,0
DA:687,0
DA:689,0
DA:691,0
DA:692,0
DA:693,0
DA:694,0
DA:695,0
DA:696,0
DA:697,0
DA:698,0
DA:699,0
DA:700,0
DA:701,0
DA:702,0
DA:703,0
DA:704,0
DA:706,0
DA:709,0
DA:710,0
DA:711,0
DA:712,0
DA:713,0
DA:714,0
DA:715,0
DA:716,0
DA:717,0
DA:718,0
DA:719,0
DA:720,0
DA:721,0
DA:722,0
DA:723,0
DA:724,0
DA:725,0
DA:726,0
DA:727,0
DA:728,0
DA:729,0
DA:730,0
DA:731,0
DA:732,0
DA:733,0
DA:734,0
DA:735,0
DA:736,0
DA:737,0
DA:738,0
DA:739,0
DA:740,0
DA:741,0
DA:742,0
DA:743,0
DA:744,0
DA:745,0
DA:746,0
DA:747,0
DA:748,0
DA:749,0
DA:750,0
DA:751,0
DA:752,0
DA:753,0
DA:757,0
DA:758,0
DA:759,0
DA:760,0
DA:762,0
DA:763,0
DA:764,0
DA:765,0
DA:766,0
DA:767,0
DA:768,0
DA:769,0
DA:770,0
DA:771,0
DA:772,0
DA:773,0
DA:774,0
DA:775,0
DA:776,0
DA:777,0
DA:778,0
DA:779,0
DA:780,0
DA:781,0
DA:782,0
DA:783,0
DA:784,0
DA:785,0
DA:786,0
DA:787,0
DA:788,0
DA:789,0
DA:790,0
DA:791,0
DA:792,0
DA:793,0
DA:794,0
DA:795,0
DA:797,0
DA:798,0
DA:799,0
DA:800,0
DA:801,0
DA:802,0
DA:803,0
DA:804,0
DA:805,0
DA:806,0
DA:807,0
DA:808,0
DA:809,0
DA:810,0
DA:811,0
DA:812,0
DA:813,0
DA:814,0
DA:816,0
DA:817,0
DA:818,0
DA:819,0
DA:820,0
DA:822,0
DA:823,0
DA:824,0
DA:825,0
DA:826,0
DA:827,0
DA:828,0
DA:829,0
DA:830,0
DA:831,0
DA:832,0
DA:833,0
DA:834,0
DA:835,0
DA:836,0
DA:837,0
DA:838,0
DA:839,0
DA:840,0
DA:841,0
DA:842,0
DA:843,0
DA:844,0
DA:845,0
DA:846,0
DA:850,0
DA:851,0
DA:852,0
DA:853,0
DA:855,0
DA:856,0
DA:857,0
DA:858,0
DA:859,0
DA:860,0
DA:861,0
DA:862,0
DA:863,0
DA:864,0
DA:865,0
DA:866,0
DA:867,0
DA:868,0
DA:869,0
DA:870,0
DA:871,0
DA:872,0
DA:873,0
DA:874,0
DA:875,0
DA:877,0
DA:878,0
DA:879,0
DA:880,0
DA:881,0
DA:882,0
DA:883,0
DA:884,0
DA:885,0
DA:886,0
DA:887,0
DA:888,0
DA:889,0
DA:890,0
DA:892,0
DA:893,0
DA:894,0
DA:895,0
DA:896,0
DA:898,0
DA:899,0
DA:900,0
DA:901,0
DA:902,0
DA:903,0
DA:904,0
DA:905,0
DA:906,0
DA:907,0
DA:908,0
DA:909,0
DA:910,0
DA:911,0
DA:912,0
DA:913,0
DA:914,0
DA:915,0
DA:916,0
DA:917,0
DA:918,0
DA:919,0
DA:920,0
DA:921,0
DA:922,0
DA:1019,0
DA:1020,0
DA:1021,0
DA:1022,0
DA:1024,0
DA:1025,0
DA:1026,0
DA:1027,0
DA:1028,0
DA:1029,0
DA:1030,0
DA:1031,0
DA:1032,0
DA:1033,0
DA:1034,0
DA:1035,0
DA:1036,0
DA:1037,0
DA:1038,0
DA:1039,0
DA:1040,0
DA:1041,0
DA:1042,0
DA:1043,0
DA:1044,0
DA:1045,0
DA:1046,0
DA:1047,0
DA:1048,0
DA:1049,0
DA:1050,0
DA:1051,0
DA:1052,0
DA:1053,0
DA:1054,0
DA:1055,0
DA:1056,0
DA:1057,0
DA:1058,0
DA:1059,0
DA:1060,0
DA:1061,0
DA:1062,0
DA:1063,0
DA:1064,0
DA:1066,0
DA:1067,0
DA:1068,0
DA:1069,0
DA:1070,0
DA:1071,0
DA:1072,0
DA:1073,0
DA:1074,0
DA:1075,0
DA:1076,0
DA:1077,0
DA:1078,0
DA:1079,0
DA:1080,0
DA:1081,0
DA:1082,0
DA:1083,0
DA:1084,0
DA:1085,0
DA:1086,0
DA:1087,0
DA:1089,0
DA:1090,0
DA:1091,0
DA:1092,0
DA:1093,0
DA:1095,0
DA:1096,0
DA:1097,0
DA:1098,0
DA:1099,0
DA:1100,0
DA:1101,0
DA:1102,0
DA:1103,0
DA:1104,0
DA:1105,0
DA:1106,0
DA:1107,0
DA:1108,0
DA:1109,0
DA:1110,0
DA:1111,0
DA:1112,0
DA:1113,0
DA:1114,0
DA:1115,0
DA:1116,0
DA:1117,0
DA:1118,0
DA:1119,0
DA:1126,0
DA:1127,0
DA:1128,0
DA:1129,0
DA:1130,0
DA:1131,0
DA:1132,0
DA:1133,0
DA:1134,0
DA:1135,0
DA:1136,0
DA:1137,0
DA:1138,0
DA:1142,0
DA:1143,0
DA:1146,0
DA:1147,0
DA:1148,0
DA:1149,0
DA:1150,0
DA:1152,0
DA:1153,0
DA:1154,0
DA:1155,0
DA:1156,0
DA:1159,0
DA:1160,0
DA:1162,0
DA:1163,0
DA:1164,0
DA:1165,0
DA:1166,0
DA:1167,0
DA:1168,0
DA:1169,0
DA:1170,0
DA:1171,0
DA:1172,0
DA:1173,0
DA:1174,0
DA:1175,0
DA:1176,0
DA:1177,0
DA:1178,0
DA:1179,0
DA:1180,0
DA:1181,0
DA:1182,0
DA:1183,0
DA:1184,0
DA:1185,0
DA:1188,0
DA:1189,0
DA:1190,0
DA:1191,0
DA:1192,0
DA:1193,0
DA:1194,0
DA:1195,0
DA:1196,0
DA:1197,0
DA:1198,0
DA:1199,0
DA:1200,0
DA:1201,0
DA:1202,0
DA:1203,0
DA:1204,0
DA:1205,0
DA:1206,0
DA:1207,0
DA:1208,0
DA:1211,0
DA:1212,0
DA:1213,0
DA:1214,0
DA:1215,0
DA:1216,0
DA:1217,0
DA:1218,0
DA:1219,0
DA:1220,0
DA:1221,0
DA:1222,0
DA:1223,0
DA:1224,0
DA:1225,0
DA:1226,0
DA:1227,0
DA:1228,0
DA:1229,0
DA:1230,0
DA:1231,0
DA:1232,0
DA:1233,0
DA:1234,0
DA:1235,0
DA:1236,0
DA:1237,0
DA:1238,0
DA:1239,0
DA:1240,0
DA:1241,0
DA:1244,0
DA:1245,0
DA:1246,0
DA:1247,0
DA:1248,0
DA:1249,0
DA:1250,0
DA:1251,0
DA:1252,0
DA:1253,0
DA:1254,0
DA:1255,0
DA:1256,0
DA:1257,0
DA:1258,0
DA:1259,0
DA:1260,0
DA:1261,0
DA:1262,0
DA:1263,0
DA:1264,0
DA:1265,0
DA:1266,0
DA:1267,0
DA:1268,0
DA:1269,0
DA:1270,0
DA:1271,0
DA:1272,0
DA:1273,0
DA:1274,0
DA:1275,0
DA:1276,0
DA:1277,0
DA:1278,0
DA:1279,0
DA:1280,0
DA:1281,0
DA:1282,0
DA:1283,0
DA:1284,0
DA:1287,0
DA:1288,0
DA:1289,0
DA:1290,0
DA:1292,0
DA:1293,0
DA:1294,0
DA:1295,0
DA:1297,0
DA:1298,0
DA:1299,0
DA:1300,0
DA:1302,0
DA:1303,0
DA:1304,0
DA:1305,0
DA:1308,0
DA:1309,0
DA:1310,0
DA:1311,0
DA:1312,0
DA:1314,0
DA:1315,0
DA:1316,0
DA:1317,0
DA:1318,0
DA:1319,0
DA:1320,0
DA:1321,0
DA:1322,0
DA:1323,0
DA:1324,0
DA:1325,0
DA:1326,0
DA:1327,0
DA:1328,0
DA:1329,0
DA:1330,0
DA:1331,0
DA:1332,0
DA:1333,0
DA:1334,0
DA:1335,0
DA:1336,0
DA:1337,0
DA:1338,0
DA:1340,0
DA:1341,0
DA:1342,0
DA:1343,0
DA:1344,0
DA:1346,0
DA:1347,0
DA:1348,0
DA:1349,0
DA:1350,0
DA:1351,0
DA:1352,0
DA:1353,0
DA:1354,0
DA:1355,0
DA:1356,0
DA:1357,0
DA:1358,0
DA:1359,0
DA:1360,0
DA:1361,0
DA:1362,0
DA:1363,0
DA:1364,0
DA:1365,0
DA:1366,0
DA:1367,0
DA:1368,0
DA:1369,0
DA:1370,0
DA:1372,0
DA:1373,0
DA:1374,0
DA:1375,0
DA:1376,0
DA:1378,0
DA:1379,0
DA:1380,0
DA:1381,0
DA:1382,0
DA:1383,0
DA:1384,0
DA:1385,0
DA:1386,0
DA:1387,0
DA:1388,0
DA:1389,0
DA:1390,0
DA:1391,0
DA:1392,0
DA:1393,0
DA:1394,0
DA:1395,0
DA:1396,0
DA:1397,0
DA:1398,0
DA:1399,0
DA:1400,0
DA:1401,0
DA:1402,0
DA:1404,0
DA:1405,0
DA:1406,0
DA:1407,0
DA:1408,0
DA:1410,0
DA:1411,0
DA:1412,0
DA:1413,0
DA:1414,0
DA:1415,0
DA:1416,0
DA:1417,0
DA:1418,0
DA:1419,0
DA:1420,0
DA:1421,0
DA:1422,0
DA:1423,0
DA:1424,0
DA:1425,0
DA:1426,0
DA:1427,0
DA:1428,0
DA:1429,0
DA:1430,0
DA:1431,0
DA:1432,0
DA:1433,0
DA:1434,0
DA:1438,0
DA:1439,0
DA:1440,0
DA:1441,0
DA:1442,0
DA:1443,0
DA:1444,0
DA:1445,0
DA:1446,0
DA:1447,0
DA:1448,0
DA:1449,0
DA:1450,0
DA:1451,0
DA:1452,0
DA:1453,0
DA:1454,0
DA:1455,0
DA:1458,0
DA:1459,0
DA:1460,0
DA:1461,0
DA:1463,0
DA:1466,0
DA:1467,0
DA:1468,0
DA:1469,0
DA:1470,0
DA:1471,0
DA:1472,0
DA:1473,0
DA:1474,0
DA:1475,0
DA:1476,0
DA:1477,0
DA:1478,0
DA:1479,0
DA:1480,0
DA:1484,0
DA:1485,0
DA:1486,0
DA:1487,0
DA:1488,0
DA:1489,0
DA:1490,0
DA:1491,0
DA:1492,0
DA:1493,0
DA:1494,0
DA:1495,0
DA:1496,0
DA:1497,0
DA:1498,0
DA:1499,0
DA:1500,0
DA:1501,0
DA:1502,0
DA:1503,0
DA:1506,0
DA:1507,0
DA:1508,0
DA:1509,0
DA:1510,0
DA:1511,0
DA:1512,0
DA:1513,0
DA:1514,0
DA:1515,0
DA:1516,0
DA:1517,0
DA:1518,0
DA:1519,0
DA:1520,0
DA:1521,0
DA:1522,0
DA:1523,0
DA:1524,0
DA:1525,0
DA:1526,0
DA:1527,0
DA:1529,0
DA:1530,0
DA:1531,0
DA:1532,0
DA:1533,0
DA:1534,0
DA:1535,0
DA:1536,0
DA:1537,0
DA:1538,0
DA:1539,0
DA:1540,0
DA:1541,0
DA:1542,0
DA:1543,0
DA:1547,0
DA:1548,0
DA:1549,0
DA:1550,0
DA:1551,0
DA:1552,0
DA:1553,0
DA:1554,0
DA:1555,0
DA:1556,0
DA:1557,0
DA:1558,0
DA:1559,0
DA:1560,0
DA:1561,0
DA:1562,0
DA:1563,0
DA:1564,0
DA:1565,0
DA:1566,0
DA:1567,0
DA:1568,0
DA:1569,0
DA:1570,0
DA:1571,0
DA:1572,0
DA:1573,0
DA:1574,0
DA:1575,0
DA:1576,0
DA:1577,0
DA:1581,0
DA:1582,0
DA:1583,0
DA:1584,0
DA:1585,0
DA:1586,0
DA:1587,0
DA:1588,0
DA:1589,0
DA:1590,0
DA:1591,0
DA:1592,0
DA:1593,0
DA:1594,0
DA:1595,0
DA:1596,0
DA:1597,0
DA:1598,0
DA:1599,0
DA:1600,0
DA:1601,0
DA:1602,0
DA:1603,0
DA:1604,0
DA:1605,0
DA:1606,0
DA:1607,0
DA:1608,0
DA:1609,0
DA:1610,0
DA:1611,0
DA:1612,0
DA:1613,0
DA:1614,0
DA:1615,0
DA:1616,0
DA:1617,0
DA:1618,0
DA:1619,0
DA:1620,0
DA:1621,0
DA:1622,0
DA:1623,0
DA:1624,0
DA:1625,0
DA:1626,0
DA:1627,0
DA:1628,0
DA:1629,0
DA:1630,0
DA:1631,0
DA:1632,0
DA:1633,0
DA:1634,0
DA:1635,0
DA:1636,0
DA:1637,0
DA:1638,0
DA:1639,0
DA:1640,0
DA:1641,0
DA:1642,0
DA:1643,0
DA:1644,0
DA:1645,0
DA:1646,0
DA:1647,0
DA:1652,0
DA:1653,0
DA:1654,0
DA:1655,0
DA:1656,0
DA:1657,0
DA:1658,0
DA:1659,0
DA:1660,0
DA:1661,0
DA:1662,0
DA:1663,0
DA:1664,0
DA:1666,0
DA:1667,0
DA:1668,0
DA:1669,0
DA:1670,0
DA:1671,0
DA:1673,0
DA:1674,0
DA:1675,0
DA:1676,0
DA:1677,0
DA:1678,0
DA:1679,0
DA:1680,0
DA:1681,0
DA:1682,0
DA:1683,0
DA:1684,0
DA:1685,0
DA:1686,0
DA:1687,0
DA:1688,0
DA:1689,0
DA:1690,0
DA:1691,0
DA:1692,0
DA:1693,0
DA:1694,0
DA:1695,0
DA:1696,0
DA:1697,0
DA:1698,0
DA:1699,0
DA:1700,0
DA:1701,0
DA:1702,0
DA:1703,0
DA:1704,0
DA:1705,0
DA:1706,0
DA:1707,0
DA:1708,0
DA:1709,0
DA:1710,0
DA:1711,0
DA:1713,0
DA:1716,0
DA:1717,0
DA:1720,0
DA:1721,0
DA:1722,0
DA:1723,0
DA:1724,0
DA:1725,0
DA:1726,0
DA:1727,0
DA:1728,0
DA:1729,0
DA:1730,0
DA:1731,0
DA:1732,0
DA:1733,0
DA:1734,0
DA:1735,0
DA:1736,0
DA:1737,0
DA:1738,0
DA:1739,0
DA:1740,0
DA:1741,0
DA:1742,0
DA:1743,0
DA:1744,0
DA:1745,0
DA:1746,0
DA:1747,0
DA:1748,0
DA:1749,0
DA:1752,0
DA:1753,0
DA:1754,0
DA:1755,0
DA:1756,0
DA:1757,0
DA:1758,0
DA:1759,0
DA:1760,0
DA:1761,0
DA:1762,0
DA:1763,0
DA:1764,0
DA:1765,0
DA:1766,0
DA:1768,0
DA:1769,0
DA:1770,0
DA:1771,0
DA:1772,0
DA:1773,0
DA:1774,0
DA:1775,0
DA:1776,0
DA:1777,0
DA:1778,0
DA:1780,0
DA:1781,0
DA:1782,0
DA:1783,0
DA:1784,0
DA:1785,0
DA:1786,0
DA:1787,0
DA:1788,0
DA:1789,0
DA:1790,0
DA:1791,0
DA:1792,0
DA:1793,0
DA:1794,0
DA:1795,0
DA:1796,0
DA:1797,0
DA:1798,0
DA:1799,0
DA:1800,0
DA:1801,0
DA:1802,0
DA:1803,0
DA:1804,0
DA:1805,0
DA:1806,0
DA:1807,0
DA:1808,0
DA:1811,0
DA:1812,0
DA:1813,0
DA:1814,0
DA:1815,0
DA:1816,0
DA:1817,0
DA:1818,0
DA:1819,0
DA:1820,0
DA:1821,0
DA:1822,0
DA:1823,0
DA:1824,0
DA:1825,0
DA:1826,0
DA:1827,0
DA:1828,0
DA:1829,0
DA:1830,0
DA:1831,0
DA:1832,0
DA:1833,0
DA:1834,0
DA:1835,0
DA:1838,0
DA:1839,0
DA:1840,0
DA:1841,0
DA:1842,0
DA:1843,0
DA:1844,0
DA:1845,0
DA:1846,0
DA:1847,0
DA:1848,0
DA:1849,0
DA:1850,0
DA:1851,0
DA:1852,0
DA:1853,0
DA:1854,0
DA:1855,0
DA:1856,0
DA:1857,0
DA:1858,0
DA:1861,0
DA:1862,0
DA:1863,0
DA:1864,0
DA:1865,0
DA:1866,0
DA:1867,0
DA:1868,0
DA:1869,0
DA:1870,0
DA:1871,0
DA:1872,0
DA:1873,0
DA:1874,0
DA:1875,0
DA:1876,0
DA:1877,0
DA:1878,0
DA:1879,0
DA:1880,0
DA:1881,0
DA:1882,0
DA:1883,0
DA:1884,0
DA:1885,0
DA:1886,0
DA:1887,0
DA:1888,0
DA:1891,0
DA:1892,0
DA:1893,0
DA:1894,0
DA:1895,0
DA:1896,0
DA:1897,0
DA:1898,0
DA:1899,0
DA:1900,0
DA:1901,0
DA:1902,0
DA:1903,0
DA:1904,0
DA:1905,0
DA:1906,0
DA:1907,0
DA:1908,0
DA:1909,0
DA:1910,0
DA:1911,0
DA:1912,0
DA:1913,0
DA:1914,0
DA:1915,0
DA:1916,0
DA:1917,0
DA:1918,0
DA:1919,0
DA:1920,0
DA:1921,0
DA:1922,0
DA:1923,0
DA:1924,0
DA:1925,0
DA:1926,0
DA:1927,0
DA:1928,0
DA:1931,0
DA:1932,0
DA:1933,0
DA:1934,0
DA:1935,0
DA:1936,0
DA:1937,0
DA:1938,0
DA:1939,0
DA:1940,0
DA:1941,0
DA:1942,0
DA:1943,0
DA:1944,0
DA:1945,0
DA:1946,0
DA:1947,0
DA:1948,0
DA:1949,0
DA:1950,0
DA:1951,0
DA:1952,0
DA:1953,0
DA:1954,0
DA:1955,0
DA:1957,0
DA:1958,0
DA:1959,0
DA:1960,0
DA:1961,0
DA:1962,0
DA:1963,0
DA:1964,0
DA:1965,0
DA:1966,0
DA:1967,0
DA:1968,0
DA:1969,0
DA:1970,0
DA:1971,0
DA:1972,0
DA:1973,0
DA:1974,0
DA:1977,0
DA:1978,0
DA:1979,0
DA:1980,0
DA:1981,0
DA:1982,0
DA:1985,0
DA:1986,0
DA:1987,0
DA:1988,0
DA:1989,0
DA:1990,0
DA:1991,0
DA:1992,0
DA:1993,0
DA:1994,0
DA:1995,0
DA:1996,0
DA:1997,0
DA:1998,0
DA:1999,0
DA:2000,0
DA:2001,0
DA:2002,0
DA:2003,0
DA:2004,0
DA:2005,0
DA:2006,0
DA:2007,0
DA:2008,0
DA:2009,0
DA:2010,0
DA:2011,0
DA:2012,0
DA:2013,0
DA:2014,0
DA:2015,0
DA:2016,0
DA:2017,0
DA:2018,0
DA:2019,0
DA:2020,0
DA:2021,0
DA:2022,0
DA:2023,0
DA:2024,0
DA:2025,0
DA:2026,0
DA:2027,0
DA:2029,0
DA:2030,0
DA:2031,0
DA:2032,0
DA:2033,0
DA:2034,0
DA:2035,0
DA:2036,0
DA:2037,0
DA:2038,0
DA:2039,0
DA:2040,0
DA:2041,0
DA:2042,0
DA:2043,0
DA:2044,0
DA:2045,0
DA:2046,0
DA:2047,0
DA:2048,0
DA:2049,0
DA:2050,0
DA:2051,0
DA:2052,0
DA:2053,0
DA:2054,0
DA:2055,0
DA:2056,0
DA:2057,0
DA:2058,0
DA:2059,0
DA:2060,0
DA:2061,0
DA:2062,0
DA:2063,0
DA:2064,0
DA:2065,0
DA:2066,0
DA:2067,0
DA:2068,0
DA:2069,0
DA:2070,0
DA:2071,0
DA:2075,0
DA:2076,0
DA:2077,0
DA:2078,0
DA:2079,0
DA:2080,0
DA:2081,0
DA:2082,0
DA:2083,0
DA:2084,0
DA:2085,0
DA:2086,0
DA:2087,0
DA:2088,0
DA:2089,0
DA:2090,0
DA:2091,0
DA:2092,0
DA:2093,0
DA:2094,0
DA:2095,0
DA:2096,0
DA:2097,0
DA:2098,0
DA:2099,0
DA:2100,0
DA:2101,0
DA:2102,0
DA:2103,0
DA:2104,0
DA:2105,0
DA:2106,0
DA:2107,0
DA:2108,0
DA:2111,0
DA:2112,0
DA:2113,0
DA:2114,0
DA:2115,0
DA:2116,0
DA:2117,0
DA:2118,0
DA:2119,0
DA:2120,0
DA:2121,0
DA:2122,0
DA:2123,0
DA:2124,0
DA:2125,0
DA:2126,0
DA:2127,0
DA:2128,0
DA:2129,0
DA:2130,0
DA:2131,0
DA:2132,0
DA:2133,0
DA:2134,0
DA:2135,0
DA:2136,0
DA:2137,0
DA:2140,0
DA:2141,0
DA:2142,0
DA:2143,0
DA:2144,0
DA:2145,0
DA:2146,0
DA:2147,0
DA:2148,0
DA:2149,0
DA:2150,0
DA:2151,0
DA:2152,0
DA:2153,0
DA:2154,0
DA:2155,0
DA:2156,0
DA:2157,0
DA:2158,0
DA:2159,0
DA:2160,0
DA:2161,0
DA:2162,0
DA:2163,0
DA:2164,0
DA:2165,0
DA:2166,0
DA:2167,0
DA:2168,0
DA:2169,0
DA:2170,0
DA:2171,0
DA:2172,0
DA:2173,0
DA:2174,0
DA:2175,0
DA:2176,0
DA:2177,0
DA:2178,0
DA:2179,0
DA:2180,0
DA:2181,0
DA:2182,0
DA:2183,0
DA:2184,0
DA:2185,0
DA:2186,0
DA:2187,0
DA:2188,0
DA:2189,0
DA:2190,0
DA:2191,0
DA:2192,0
DA:2193,0
DA:2194,0
DA:2195,0
DA:2196,0
DA:2197,0
DA:2198,0
DA:2199,0
DA:2200,0
DA:2201,0
DA:2202,0
DA:2203,0
DA:2204,0
DA:2205,0
DA:2206,0
DA:2207,0
DA:2208,0
DA:2209,0
DA:2210,0
DA:2211,0
DA:2212,0
DA:2213,0
DA:2214,0
DA:2215,0
DA:2216,0
DA:2217,0
DA:2218,0
DA:2219,0
DA:2220,0
DA:2221,0
DA:2222,0
DA:2223,0
DA:2224,0
DA:2225,0
DA:2226,0
DA:2227,0
DA:2228,0
DA:2229,0
DA:2230,0
DA:2231,0
DA:2232,0
DA:2233,0
DA:2234,0
DA:2235,0
DA:2236,0
DA:2237,0
DA:2238,0
DA:2239,0
DA:2240,0
DA:2241,0
DA:2242,0
DA:2243,0
DA:2244,0
DA:2245,0
DA:2246,0
DA:2247,0
DA:2248,0
DA:2249,0
DA:2250,0
DA:2251,0
DA:2252,0
DA:2253,0
DA:2254,0
DA:2255,0
DA:2256,0
DA:2257,0
DA:2258,0
DA:2259,0
DA:2260,0
DA:2261,0
DA:2262,0
DA:2263,0
DA:2264,0
DA:2265,0
DA:2266,0
DA:2267,0
DA:2268,0
DA:2269,0
DA:2270,0
DA:2271,0
DA:2272,0
DA:2273,0
DA:2274,0
DA:2275,0
DA:2276,0
DA:2277,0
DA:2278,0
DA:2279,0
DA:2280,0
DA:2281,0
DA:2282,0
DA:2283,0
DA:2284,0
DA:2285,0
DA:2286,0
DA:2287,0
DA:2288,0
DA:2289,0
DA:2290,0
DA:2291,0
DA:2292,0
DA:2293,0
DA:2294,0
DA:2295,0
DA:2296,0
DA:2297,0
DA:2298,0
DA:2299,0
DA:2300,0
DA:2301,0
DA:2302,0
DA:2303,0
DA:2304,0
DA:2305,0
DA:2306,0
DA:2307,0
DA:2308,0
DA:2309,0
DA:2310,0
DA:2311,0
DA:2312,0
DA:2313,0
DA:2314,0
DA:2315,0
DA:2316,0
DA:2317,0
DA:2318,0
DA:2319,0
DA:2320,0
DA:2321,0
DA:2322,0
DA:2323,0
DA:2324,0
DA:2325,0
DA:2326,0
DA:2327,0
DA:2328,0
DA:2329,0
DA:2330,0
DA:2331,0
DA:2332,0
DA:2333,0
DA:2334,0
DA:2335,0
DA:2336,0
DA:2337,0
DA:2338,0
DA:2339,0
DA:2342,0
DA:2343,0
DA:2344,0
DA:2345,0
DA:2346,0
DA:2347,0
DA:2348,0
DA:2349,0
DA:2350,0
DA:2351,0
DA:2352,0
DA:2353,0
DA:2354,0
DA:2355,0
DA:2356,0
DA:2357,0
DA:2358,0
DA:2359,0
DA:2360,0
DA:2361,0
DA:2362,0
DA:2363,0
DA:2364,0
DA:2365,0
DA:2366,0
DA:2367,0
DA:2368,0
DA:2369,0
DA:2370,0
DA:2371,0
DA:2372,0
DA:2373,0
DA:2374,0
DA:2375,0
DA:2376,0
DA:2377,0
DA:2378,0
DA:2379,0
DA:2380,0
DA:2381,0
DA:2382,0
DA:2383,0
DA:2384,0
DA:2386,0
DA:2387,0
DA:2388,0
DA:2389,0
DA:2390,0
DA:2391,0
DA:2392,0
DA:2393,0
DA:2394,0
DA:2395,0
DA:2396,0
DA:2397,0
DA:2398,0
DA:2399,0
DA:2400,0
DA:2401,0
DA:2402,0
DA:2403,0
DA:2404,0
DA:2405,0
DA:2406,0
DA:2407,0
DA:2408,0
DA:2409,0
DA:2410,0
DA:2411,0
DA:2412,0
DA:2413,0
DA:2414,0
DA:2415,0
DA:2416,0
DA:2417,0
DA:2418,0
DA:2419,0
DA:2420,0
DA:2421,0
DA:2422,0
DA:2423,0
DA:2424,0
DA:2425,0
DA:2426,0
DA:2427,0
DA:2428,0
DA:2434,0
DA:2435,0
DA:2436,0
DA:2437,0
DA:2438,0
DA:2439,0
DA:2440,0
DA:2441,0
DA:2442,0
DA:2443,0
DA:2444,0
DA:2445,0
DA:2446,0
DA:2447,0
DA:2448,0
DA:2449,0
DA:2450,0
DA:2451,0
DA:2452,0
DA:2453,0
DA:2454,0
DA:2455,0
DA:2456,0
DA:2457,0
DA:2458,0
DA:2459,0
DA:2460,0
DA:2461,0
DA:2462,0
DA:2463,0
DA:2464,0
DA:2465,0
DA:2467,0
DA:2468,0
DA:2469,0
DA:2470,0
DA:2471,0
DA:2472,0
DA:2473,0
DA:2474,0
DA:2475,0
DA:2476,0
DA:2477,0
DA:2478,0
DA:2479,0
DA:2480,0
DA:2481,0
DA:2482,0
DA:2484,0
DA:2485,0
DA:2486,0
DA:2487,0
DA:2488,0
DA:2489,0
DA:2490,0
DA:2499,0
DA:2500,0
DA:2501,0
DA:2502,0
DA:2503,0
DA:2504,0
DA:2505,0
DA:2506,0
DA:2507,0
DA:2508,0
DA:2509,0
DA:2510,0
DA:2511,0
DA:2512,0
DA:2513,0
DA:2514,0
DA:2515,0
DA:2516,0
DA:2517,0
DA:2518,0
DA:2519,0
DA:2520,0
DA:2521,0
DA:2522,0
DA:2523,0
DA:2524,0
DA:2525,0
DA:2526,0
DA:2527,0
DA:2529,0
DA:2530,0
DA:2531,0
DA:2532,0
DA:2533,0
DA:2534,0
DA:2536,0
DA:2537,0
DA:2538,0
DA:2539,0
DA:2540,0
DA:2541,0
DA:2542,0
DA:2543,0
DA:2546,0
DA:2547,0
DA:2548,0
DA:2549,0
DA:2550,0
DA:2551,0
DA:2552,0
DA:2553,0
DA:2554,0
DA:2555,0
DA:2556,0
DA:2557,0
DA:2558,0
DA:2559,0
DA:2560,0
DA:2561,0
DA:2562,0
DA:2563,0
DA:2564,0
DA:2565,0
DA:2566,0
DA:2567,0
DA:2568,0
DA:2569,0
DA:2570,0
DA:2571,0
DA:2572,0
DA:2573,0
DA:2574,0
DA:2575,0
DA:2576,0
DA:2577,0
DA:2578,0
DA:2579,0
DA:2580,0
DA:2581,0
DA:2582,0
DA:2583,0
DA:2584,0
DA:2585,0
DA:2586,0
DA:2587,0
DA:2588,0
DA:2589,0
DA:2590,0
DA:2591,0
DA:2592,0
DA:2593,0
DA:2594,0
DA:2595,0
DA:2596,0
DA:2597,0
DA:2598,0
DA:2599,0
DA:2600,0
DA:2601,0
DA:2602,0
DA:2603,0
DA:2604,0
DA:2605,0
DA:2606,0
DA:2607,0
DA:2608,0
DA:2609,0
DA:2610,0
DA:2611,0
DA:2612,0
DA:2613,0
DA:2614,0
DA:2615,0
DA:2616,0
DA:2617,0
DA:2618,0
DA:2619,0
DA:2620,0
DA:2621,0
DA:2622,0
DA:2623,0
DA:2624,0
DA:2625,0
DA:2626,0
DA:2627,0
DA:2628,0
DA:2629,0
DA:2630,0
DA:2631,0
DA:2632,0
DA:2633,0
DA:2634,0
DA:2635,0
DA:2636,0
DA:2637,0
DA:2638,0
DA:2639,0
DA:2640,0
DA:2641,0
DA:2642,0
DA:2643,0
DA:2644,0
DA:2645,0
DA:2648,0
DA:2649,0
DA:2650,0
DA:2651,0
DA:2652,0
DA:2653,0
DA:2655,0
DA:2656,0
DA:2657,0
DA:2658,0
DA:2659,0
DA:2660,0
DA:2661,0
DA:2662,0
DA:2663,0
DA:2664,0
DA:2665,0
DA:2666,0
DA:2667,0
DA:2668,0
DA:2669,0
DA:2670,0
DA:2671,0
DA:2672,0
DA:2673,0
DA:2674,0
DA:2675,0
DA:2676,0
DA:2677,0
DA:2678,0
DA:2679,0
DA:2680,0
DA:2681,0
DA:2682,0
DA:2683,0
DA:2684,0
DA:2685,0
DA:2686,0
DA:2687,0
DA:2688,0
DA:2689,0
DA:2690,0
DA:2691,0
DA:2692,0
DA:2693,0
DA:2694,0
DA:2695,0
DA:2696,0
DA:2697,0
DA:2698,0
DA:2699,0
DA:2700,0
DA:2701,0
DA:2702,0
DA:2703,0
DA:2704,0
DA:2705,0
DA:2706,0
DA:2707,0
DA:2708,0
DA:2709,0
DA:2710,0
DA:2711,0
DA:2712,0
DA:2713,0
DA:2714,0
DA:2715,0
DA:2716,0
DA:2717,0
DA:2718,0
DA:2719,0
DA:2720,0
DA:2721,0
DA:2722,0
DA:2723,0
DA:2724,0
DA:2725,0
DA:2726,0
DA:2727,0
DA:2728,0
DA:2729,0
DA:2730,0
DA:2731,0
DA:2732,0
DA:2733,0
DA:2734,0
DA:2735,0
DA:2736,0
DA:2737,0
DA:2738,0
DA:2739,0
DA:2740,0
DA:2741,0
DA:2742,0
DA:2743,0
DA:2744,0
DA:2745,0
DA:2746,0
DA:2747,0
DA:2748,0
DA:2749,0
DA:2750,0
DA:2751,0
DA:2752,0
DA:2753,0
DA:2754,0
DA:2755,0
DA:2756,0
DA:2757,0
DA:2758,0
DA:2759,0
DA:2760,0
DA:2761,0
DA:2762,0
DA:2763,0
DA:2764,0
DA:2765,0
DA:2766,0
DA:2767,0
DA:2768,0
DA:2769,0
DA:2770,0
DA:2771,0
DA:2772,0
DA:2773,0
DA:2774,0
DA:2775,0
DA:2776,0
DA:2777,0
DA:2778,0
DA:2779,0
DA:2780,0
DA:2781,0
DA:2782,0
DA:2783,0
DA:2784,0
DA:2785,0
DA:2786,0
DA:2787,0
DA:2788,0
DA:2789,0
DA:2790,0
DA:2791,0
DA:2792,0
DA:2795,0
DA:2796,0
DA:2797,0
DA:2798,0
DA:2799,0
DA:2800,0
DA:2801,0
DA:2802,0
DA:2803,0
DA:2804,0
DA:2805,0
DA:2807,0
DA:2808,0
DA:2809,0
DA:2810,0
DA:2811,0
DA:2812,0
DA:2814,0
DA:2815,0
DA:2816,0
DA:2817,0
DA:2818,0
DA:2820,0
DA:2821,0
DA:2822,0
DA:2823,0
DA:2824,0
DA:2825,0
DA:2826,0
DA:2827,0
DA:2828,0
DA:2831,0
DA:2832,0
DA:2833,0
DA:2834,0
DA:2835,0
DA:2836,0
DA:2837,0
DA:2838,0
DA:2839,0
DA:2840,0
DA:2842,0
DA:2843,0
DA:2846,0
DA:2847,0
DA:2848,0
DA:2849,0
DA:2851,0
DA:2854,0
DA:2855,0
DA:2856,0
DA:2857,0
DA:2858,0
DA:2860,0
DA:2861,0
DA:2862,0
DA:2863,0
DA:2864,0
DA:2865,0
DA:2866,0
DA:2867,0
DA:2870,0
DA:2871,0
DA:2872,0
DA:2873,0
DA:2874,0
DA:2875,0
DA:2876,0
DA:2877,0
DA:2878,0
DA:2879,0
DA:2880,0
DA:2881,0
DA:2882,0
DA:2883,0
DA:2884,0
DA:2885,0
DA:2886,0
DA:2887,0
DA:2888,0
DA:2889,0
DA:2890,0
DA:2891,0
DA:2892,0
DA:2893,0
DA:2894,0
DA:2895,0
DA:2896,0
DA:2897,0
DA:2898,0
DA:2899,0
DA:2900,0
DA:2909,0
DA:2910,0
DA:2911,0
DA:2912,0
DA:2913,0
DA:2914,0
DA:2915,0
DA:2916,0
DA:2917,0
DA:2918,0
DA:2919,0
DA:2920,0
DA:2921,0
DA:2923,0
DA:2924,0
DA:2926,0
DA:2927,0
DA:2928,0
DA:2929,0
DA:2931,0
DA:2932,0
DA:2933,0
DA:2934,0
DA:2935,0
DA:2936,0
DA:2937,0
DA:2938,0
DA:2939,0
DA:2940,0
DA:2943,0
DA:2944,0
DA:2946,0
DA:2947,0
DA:2948,0
DA:2949,0
DA:2950,0
DA:2951,0
DA:2953,0
DA:2954,0
DA:2955,0
DA:2956,0
DA:2957,0
DA:2958,0
DA:2959,0
DA:2960,0
DA:2961,0
DA:2962,0
DA:2964,0
DA:2965,0
DA:2966,0
DA:2967,0
DA:2968,0
DA:2969,0
DA:2970,0
DA:2972,0
DA:2973,0
DA:2975,0
DA:2976,0
DA:2977,0
DA:2978,0
DA:2979,0
DA:2981,0
DA:2982,0
DA:2983,0
DA:2984,0
DA:2985,0
DA:2988,0
DA:2989,0
DA:2990,0
DA:2991,0
DA:2992,0
DA:2993,0
DA:2994,0
DA:2995,0
DA:2998,0
DA:2999,0
DA:3000,0
DA:3003,0
DA:3004,0
DA:3005,0
DA:3006,0
DA:3007,0
DA:3009,0
DA:3011,0
DA:3012,0
DA:3013,0
DA:3014,0
DA:3015,0
DA:3016,0
DA:3017,0
DA:3018,0
DA:3019,0
DA:3020,0
DA:3022,0
DA:3023,0
DA:3024,0
DA:3025,0
DA:3026,0
DA:3027,0
DA:3032,0
DA:3033,0
DA:3034,0
DA:3035,0
DA:3036,0
DA:3037,0
DA:3038,0
DA:3039,0
DA:3040,0
DA:3041,0
DA:3042,0
DA:3043,0
DA:3044,0
DA:3045,0
DA:3046,0
DA:3047,0
DA:3048,0
DA:3049,0
DA:3050,0
DA:3051,0
DA:3052,0
DA:3053,0
DA:3054,0
DA:3055,0
DA:3056,0
DA:3057,0
DA:3058,0
DA:3059,0
DA:3060,0
DA:3061,0
DA:3063,0
DA:3064,0
DA:3065,0
DA:3066,0
DA:3067,0
DA:3068,0
DA:3069,0
DA:3070,0
DA:3074,0
DA:3075,0
DA:3076,0
DA:3077,0
DA:3079,0
DA:3080,0
DA:3081,0
DA:3082,0
DA:3083,0
DA:3084,0
DA:3085,0
DA:3086,0
DA:3087,0
DA:3088,0
DA:3089,0
DA:3090,0
DA:3091,0
DA:3092,0
DA:3093,0
DA:3094,0
DA:3095,0
DA:3096,0
DA:3097,0
DA:3098,0
DA:3099,0
DA:3100,0
DA:3101,0
DA:3102,0
DA:3103,0
DA:3104,0
DA:3105,0
DA:3106,0
DA:3107,0
DA:3108,0
DA:3109,0
DA:3110,0
DA:3112,0
DA:3113,0
DA:3114,0
DA:3116,0
DA:3117,0
DA:3118,0
DA:3119,0
DA:3120,0
DA:3122,0
DA:3123,0
DA:3124,0
DA:3125,0
DA:3126,0
DA:3127,0
DA:3128,0
DA:3129,0
DA:3130,0
DA:3131,0
DA:3132,0
DA:3134,0
DA:3135,0
DA:3136,0
DA:3138,0
DA:3139,0
DA:3140,0
DA:3142,0
DA:3144,0
DA:3145,0
DA:3147,0
DA:3148,0
DA:3149,0
DA:3151,0
DA:3152,0
DA:3153,0
DA:3155,0
DA:3156,0
DA:3157,0
DA:3159,0
DA:3163,0
DA:3164,0
DA:3165,0
DA:3166,0
DA:3168,0
DA:3169,0
DA:3170,0
DA:3171,0
DA:3172,0
DA:3176,0
DA:3177,0
DA:3178,0
DA:3179,0
DA:3180,0
DA:3181,0
DA:3182,0
DA:3183,0
DA:3184,0
DA:3185,0
DA:3186,0
DA:3187,0
DA:3188,0
DA:3189,0
DA:3190,0
DA:3201,0
DA:3202,0
DA:3203,0
DA:3204,0
DA:3205,0
DA:3206,0
DA:3207,0
DA:3208,0
DA:3209,0
DA:3210,0
DA:3212,0
DA:3213,0
DA:3214,0
DA:3215,0
DA:3216,0
DA:3217,0
DA:3218,0
DA:3219,0
DA:3226,0
DA:3227,0
DA:3228,0
DA:3229,0
DA:3230,0
DA:3231,0
DA:3232,0
DA:3233,0
DA:3234,0
DA:3235,0
DA:3236,0
DA:3237,0
DA:3238,0
DA:3239,0
DA:3240,0
DA:3241,0
DA:3243,0
DA:3246,0
DA:3247,0
DA:3248,0
DA:3249,0
DA:3250,0
DA:3252,0
DA:3259,0
DA:3260,0
DA:3261,0
DA:3262,0
DA:3263,0
DA:3264,0
DA:3265,0
DA:3266,0
DA:3274,0
DA:3275,0
DA:3276,0
DA:3277,0
DA:3278,0
DA:3279,0
DA:3280,0
DA:3281,0
DA:3282,0
DA:3283,0
DA:3284,0
DA:3285,0
DA:3286,0
DA:3287,0
DA:3288,0
DA:3290,0
DA:3293,0
DA:3294,0
DA:3295,0
DA:3296,0
DA:3297,0
DA:3298,0
DA:3299,0
DA:3300,0
DA:3301,0
DA:3302,0
DA:3308,0
DA:3309,0
DA:3310,0
DA:3312,0
DA:3313,0
DA:3315,0
DA:3317,0
DA:3318,0
DA:3319,0
DA:3320,0
DA:3321,0
DA:3322,0
DA:3323,0
DA:3324,0
DA:3325,0
DA:3326,0
DA:3327,0
DA:3328,0
DA:3329,0
DA:3330,0
DA:3331,0
DA:3332,0
DA:3333,0
DA:3334,0
DA:3337,0
DA:3339,0
DA:3340,0
DA:3341,0
DA:3342,0
DA:3344,0
DA:3345,0
DA:3347,0
DA:3348,0
DA:3349,0
DA:3350,0
DA:3352,0
DA:3353,0
DA:3354,0
DA:3355,0
DA:3356,0
DA:3358,0
DA:3359,0
DA:3360,0
DA:3361,0
DA:3362,0
DA:3363,0
DA:3366,0
DA:3367,0
DA:3368,0
DA:3369,0
DA:3370,0
DA:3371,0
DA:3372,0
DA:3373,0
DA:3374,0
DA:3375,0
DA:3376,0
DA:3382,0
DA:3383,0
DA:3384,0
DA:3385,0
DA:3386,0
DA:3387,0
DA:3388,0
DA:3394,0
DA:3395,0
DA:3396,0
DA:3397,0
DA:3398,0
DA:3399,0
DA:3400,0
DA:3401,0
DA:3402,0
DA:3403,0
DA:3404,0
DA:3405,0
DA:3406,0
DA:3407,0
DA:3408,0
DA:3409,0
DA:3410,0
DA:3411,0
DA:3412,0
DA:3413,0
DA:3414,0
DA:3415,0
DA:3416,0
DA:3418,0
DA:3419,0
DA:3420,0
DA:3421,0
DA:3422,0
DA:3428,0
DA:3429,0
DA:3430,0
DA:3431,0
DA:3433,0
DA:3434,0
DA:3441,0
DA:3442,0
DA:3443,0
DA:3444,0
DA:3446,0
DA:3447,0
DA:3448,0
DA:3449,0
DA:3450,0
DA:3451,0
DA:3452,0
DA:3453,0
DA:3454,0
DA:3457,0
DA:3458,0
DA:3459,0
DA:3460,0
DA:3461,0
DA:3462,0
DA:3463,0
DA:3464,0
DA:3465,0
DA:3466,0
DA:3538,0
DA:3539,0
DA:3540,0
DA:3541,0
DA:3542,0
DA:3543,0
DA:3546,0
DA:3547,0
DA:3548,0
DA:3549,0
DA:3550,0
DA:3551,0
DA:3552,0
DA:3553,0
DA:3554,0
DA:3555,0
DA:3556,0
DA:3557,0
DA:3558,0
DA:3559,0
DA:3560,0
DA:3561,0
DA:3562,0
DA:3563,0
DA:3564,0
DA:3565,0
DA:3566,0
DA:3567,0
DA:3568,0
DA:3569,0
DA:3570,0
DA:3571,0
DA:3572,0
DA:3573,0
DA:3574,0
DA:3575,0
DA:3583,0
DA:3591,0
DA:3593,0
DA:3594,0
DA:3598,0
DA:3600,0
DA:3601,0
DA:3602,0
DA:3603,0
DA:3604,0
DA:3605,0
DA:3606,0
DA:3607,0
DA:3608,0
DA:3609,0
DA:3610,0
DA:3611,0
DA:3612,0
DA:3613,0
DA:3614,0
DA:3615,0
DA:3616,0
DA:3617,0
DA:3618,0
DA:3621,0
DA:3622,0
DA:3623,0
DA:3624,0
DA:3625,0
DA:3626,0
DA:3627,0
DA:3628,0
DA:3629,0
DA:3630,0
DA:3631,0
DA:3632,0
DA:3633,0
DA:3634,0
DA:3635,0
DA:3636,0
DA:3637,0
DA:3638,0
DA:3639,0
DA:3642,0
DA:3643,0
DA:3644,0
DA:3645,0
DA:3646,0
DA:3647,0
DA:3648,0
DA:3649,0
DA:3650,0
DA:3651,0
DA:3652,0
DA:3653,0
DA:3654,0
DA:3655,0
DA:3656,0
DA:3657,0
DA:3658,0
DA:3659,0
DA:3660,0
DA:3663,0
DA:3664,0
DA:3665,0
DA:3666,0
DA:3667,0
DA:3668,0
DA:3669,0
DA:3670,0
DA:3671,0
DA:3672,0
DA:3673,0
DA:3674,0
DA:3675,0
DA:3676,0
DA:3677,0
DA:3678,0
DA:3679,0
DA:3680,0
DA:3681,0
DA:3682,0
DA:3684,0
DA:3685,0
DA:3686,0
DA:3687,0
DA:3688,0
DA:3690,0
DA:3691,0
DA:3692,0
DA:3693,0
DA:3694,0
DA:3695,0
DA:3696,0
DA:3699,0
DA:3700,0
DA:3701,0
DA:3702,0
DA:3703,0
DA:3704,0
DA:3705,0
DA:3706,0
DA:3707,0
DA:3708,0
DA:3709,0
DA:3710,0
DA:3711,0
DA:3712,0
DA:3713,0
DA:3717,0
DA:3718,0
DA:3719,0
DA:3720,0
DA:3721,0
DA:3722,0
DA:3723,0
DA:3724,0
DA:3725,0
DA:3726,0
DA:3727,0
DA:3728,0
DA:3729,0
DA:3730,0
DA:3731,0
DA:3733,0
DA:3737,0
DA:3738,0
DA:3739,0
DA:3740,0
DA:3741,0
DA:3742,0
DA:3743,0
DA:3744,0
DA:3745,0
DA:3746,0
DA:3747,0
DA:3748,0
DA:3749,0
DA:3750,0
DA:3751,0
DA:3752,0
DA:3753,0
DA:3754,0
DA:3760,0
DA:3761,0
DA:3762,0
DA:3763,0
DA:3764,0
DA:3765,0
DA:3766,0
DA:3767,0
DA:3768,0
DA:3769,0
DA:3770,0
DA:3771,0
DA:3772,0
DA:3773,0
DA:3774,0
DA:3775,0
DA:3777,0
DA:3779,0
DA:3780,0
DA:3781,0
DA:3782,0
DA:3783,0
DA:3785,0
DA:3787,0
DA:3788,0
DA:3789,0
DA:3790,0
DA:3791,0
DA:3792,0
DA:3793,0
DA:3794,0
DA:3795,0
DA:3798,0
DA:3799,0
DA:3800,0
DA:3801,0
DA:3802,0
DA:3805,0
DA:3806,0
DA:3807,0
DA:3809,0
DA:3810,0
DA:3812,0
DA:3814,0
DA:3815,0
DA:3816,0
DA:3817,0
DA:3818,0
DA:3819,0
DA:3820,0
DA:3821,0
DA:3822,0
DA:3823,0
DA:3824,0
DA:3825,0
DA:3826,0
DA:3827,0
DA:3828,0
DA:3829,0
DA:3830,0
DA:3831,0
DA:3833,0
DA:3834,0
DA:3835,0
DA:3836,0
DA:3837,0
DA:3839,0
DA:3840,0
DA:3841,0
DA:3842,0
DA:3843,0
DA:3844,0
DA:3846,0
DA:3847,0
DA:3848,0
DA:3849,0
DA:3850,0
DA:3851,0
DA:3852,0
DA:3853,0
DA:3854,0
DA:3855,0
DA:3856,0
DA:3859,0
DA:3860,0
DA:3861,0
DA:3862,0
DA:3863,0
DA:3864,0
DA:3865,0
DA:3866,0
DA:3867,0
DA:3868,0
DA:3869,0
DA:3872,0
DA:3873,0
DA:3874,0
DA:3875,0
DA:3876,0
DA:3877,0
DA:3878,0
DA:3879,0
DA:3880,0
DA:3881,0
DA:3882,0
DA:3883,0
DA:3884,0
DA:3885,0
DA:3886,0
DA:3888,0
DA:3891,0
DA:3892,0
DA:3893,0
DA:3894,0
DA:3895,0
DA:3896,0
DA:3897,0
DA:3898,0
DA:3899,0
DA:3900,0
DA:3901,0
DA:3902,0
DA:3903,0
DA:3904,0
DA:3905,0
DA:3906,0
DA:3907,0
DA:3908,0
DA:3909,0
DA:3910,0
DA:3911,0
DA:3913,0
DA:3914,0
DA:3915,0
DA:3916,0
DA:3917,0
DA:3919,0
DA:3920,0
DA:3921,0
DA:3922,0
DA:3924,0
DA:3925,0
DA:3927,0
DA:3928,0
DA:3929,0
DA:3930,0
DA:3932,0
DA:3933,0
DA:3934,0
DA:3935,0
DA:3936,0
DA:3939,0
DA:3940,0
DA:3941,0
DA:3942,0
DA:3943,0
DA:3944,0
DA:3946,0
DA:3947,0
DA:3948,0
DA:3949,0
DA:3950,0
DA:3951,0
DA:3952,0
DA:3953,0
DA:3954,0
DA:3955,0
DA:3956,0
DA:3957,0
DA:3958,0
DA:3959,0
DA:3960,0
DA:4025,0
DA:4026,0
DA:4027,0
DA:4028,0
DA:4029,0
DA:4030,0
DA:4031,0
DA:4032,0
DA:4033,0
DA:4034,0
DA:4035,0
DA:4036,0
DA:4037,0
DA:4038,0
DA:4040,0
DA:4041,0
DA:4042,0
DA:4043,0
DA:4049,0
DA:4051,0
DA:4052,0
DA:4054,0
DA:4055,0
DA:4056,0
DA:4058,0
DA:4059,0
DA:4060,0
DA:4062,0
DA:4063,0
DA:4064,0
DA:4066,0
DA:4067,0
DA:4068,0
DA:4069,0
DA:4070,0
DA:4071,0
DA:4072,0
DA:4073,0
DA:4074,0
DA:4076,0
DA:4077,0
DA:4078,0
DA:4079,0
DA:4080,0
DA:4081,0
DA:4082,0
DA:4083,0
DA:4084,0
DA:4087,0
DA:4090,0
DA:4091,0
DA:4092,0
DA:4093,0
DA:4094,0
DA:4095,0
DA:4096,0
DA:4098,0
DA:4099,0
DA:4100,0
DA:4101,0
DA:4104,0
DA:4105,0
DA:4106,0
DA:4107,0
DA:4108,0
DA:4109,0
DA:4110,0
DA:4111,0
DA:4112,0
DA:4113,0
DA:4114,0
DA:4115,0
DA:4116,0
DA:4117,0
DA:4118,0
DA:4119,0
DA:4120,0
DA:4121,0
DA:4122,0
DA:4123,0
DA:4124,0
DA:4125,0
DA:4126,0
DA:4127,0
DA:4128,0
DA:4129,0
DA:4130,0
DA:4131,0
DA:4132,0
DA:4135,0
DA:4136,0
DA:4137,0
DA:4138,0
DA:4139,0
DA:4140,0
DA:4141,0
DA:4142,0
DA:4143,0
DA:4144,0
DA:4145,0
DA:4146,0
DA:4147,0
DA:4148,0
DA:4149,0
DA:4150,0
DA:4151,0
DA:4152,0
DA:4153,0
DA:4154,0
DA:4155,0
DA:4156,0
DA:4157,0
DA:4158,0
DA:4159,0
DA:4160,0
DA:4161,0
DA:4162,0
DA:4163,0
DA:4164,0
DA:4165,0
DA:4166,0
DA:4167,0
DA:4168,0
DA:4169,0
DA:4170,0
DA:4171,0
DA:4172,0
DA:4173,0
DA:4174,0
DA:4175,0
DA:4177,0
DA:4178,0
DA:4179,0
DA:4180,0
DA:4181,0
DA:4182,0
DA:4183,0
DA:4184,0
DA:4185,0
DA:4186,0
DA:4187,0
DA:4188,0
DA:4189,0
DA:4190,0
DA:4191,0
DA:4192,0
DA:4193,0
DA:4194,0
DA:4195,0
DA:4196,0
DA:4197,0
DA:4198,0
DA:4199,0
DA:4201,0
DA:4202,0
DA:4203,0
DA:4205,0
DA:4206,0
DA:4207,0
DA:4208,0
DA:4209,0
DA:4210,0
DA:4211,0
DA:4213,0
DA:4214,0
DA:4215,0
DA:4217,0
DA:4218,0
DA:4220,0
DA:4221,0
DA:4222,0
DA:4223,0
DA:4224,0
DA:4225,0
DA:4226,0
DA:4227,0
DA:4228,0
DA:4229,0
DA:4230,0
DA:4231,0
DA:4232,0
DA:4233,0
DA:4234,0
DA:4235,0
DA:4236,0
DA:4237,0
DA:4238,0
DA:4239,0
DA:4240,0
DA:4241,0
DA:4242,0
DA:4243,0
DA:4244,0
DA:4245,0
DA:4246,0
DA:4247,0
DA:4248,0
DA:4249,0
DA:4250,0
DA:4251,0
DA:4252,0
DA:4253,0
DA:4254,0
DA:4257,0
DA:4258,0
DA:4259,0
DA:4260,0
DA:4261,0
DA:4262,0
DA:4263,0
DA:4264,0
DA:4265,0
DA:4266,0
DA:4267,0
DA:4268,0
DA:4269,0
DA:4270,0
DA:4271,0
DA:4272,0
DA:4273,0
DA:4274,0
DA:4275,0
DA:4276,0
DA:4277,0
DA:4278,0
DA:4279,0
DA:4280,0
DA:4281,0
DA:4282,0
DA:4283,0
DA:4284,0
DA:4285,0
DA:4286,0
DA:4287,0
DA:4288,0
DA:4289,0
DA:4290,0
DA:4291,0
DA:4293,0
DA:4294,0
DA:4295,0
DA:4296,0
DA:4297,0
DA:4298,0
DA:4299,0
DA:4300,0
DA:4301,0
DA:4302,0
DA:4303,0
DA:4304,0
DA:4305,0
DA:4306,0
DA:4307,0
DA:4308,0
DA:4309,0
DA:4310,0
DA:4311,0
DA:4312,0
DA:4313,0
DA:4314,0
DA:4315,0
DA:4316,0
DA:4317,0
DA:4318,0
DA:4319,0
DA:4320,0
DA:4321,0
DA:4322,0
DA:4323,0
DA:4324,0
DA:4325,0
DA:4326,0
DA:4327,0
DA:4328,0
DA:4329,0
DA:4332,0
DA:4333,0
DA:4334,0
DA:4335,0
DA:4336,0
DA:4337,0
DA:4338,0
DA:4339,0
DA:4340,0
DA:4341,0
DA:4342,0
DA:4343,0
DA:4344,0
DA:4345,0
DA:4346,0
DA:4347,0
DA:4348,0
DA:4349,0
DA:4350,0
DA:4351,0
DA:4352,0
DA:4353,0
DA:4354,0
DA:4355,0
DA:4356,0
DA:4357,0
DA:4358,0
DA:4359,0
DA:4360,0
DA:4361,0
DA:4362,0
DA:4363,0
DA:4364,0
DA:4365,0
DA:4366,0
DA:4368,0
DA:4369,0
DA:4370,0
DA:4371,0
DA:4372,0
DA:4373,0
DA:4374,0
DA:4375,0
DA:4376,0
DA:4377,0
DA:4378,0
DA:4379,0
DA:4380,0
DA:4381,0
DA:4382,0
DA:4383,0
DA:4384,0
DA:4385,0
DA:4386,0
DA:4387,0
DA:4388,0
DA:4389,0
DA:4390,0
DA:4391,0
DA:4392,0
DA:4393,0
DA:4394,0
DA:4395,0
DA:4396,0
DA:4397,0
DA:4398,0
DA:4399,0
DA:4400,0
DA:4401,0
DA:4402,0
DA:4403,0
DA:4404,0
DA:4407,0
DA:4408,0
DA:4409,0
DA:4410,0
DA:4411,0
DA:4412,0
DA:4413,0
DA:4414,0
DA:4415,0
DA:4416,0
DA:4417,0
DA:4418,0
DA:4419,0
DA:4420,0
DA:4421,0
DA:4422,0
DA:4423,0
DA:4424,0
DA:4425,0
DA:4426,0
DA:4427,0
DA:4428,0
DA:4429,0
DA:4430,0
DA:4431,0
DA:4432,0
DA:4433,0
DA:4434,0
DA:4435,0
DA:4436,0
DA:4437,0
DA:4438,0
DA:4439,0
DA:4440,0
DA:4441,0
DA:4444,0
DA:4445,0
DA:4446,0
DA:4447,0
DA:4448,0
DA:4449,0
DA:4450,0
DA:4451,0
DA:4452,0
DA:4453,0
DA:4454,0
DA:4455,0
DA:4456,0
DA:4457,0
DA:4458,0
DA:4459,0
DA:4460,0
DA:4462,0
DA:4465,0
DA:4466,0
DA:4467,0
DA:4468,0
DA:4469,0
DA:4470,0
DA:4471,0
DA:4479,1
DA:4480,1
DA:4481,1
DA:4482,1
DA:4483,1
DA:4484,1
DA:4485,1
DA:4487,1
DA:4488,1
DA:4489,1
DA:4490,1
DA:4491,1
DA:4492,1
DA:4494,1
DA:4495,1
DA:4496,1
DA:4497,1
DA:4498,1
DA:4499,1
DA:4500,1
DA:4501,1
DA:4502,1
DA:4503,1
DA:4505,1
DA:4506,1
DA:4507,1
DA:4508,1
DA:4509,1
DA:4510,1
DA:4511,1
DA:4512,1
DA:4513,1
DA:4514,1
DA:4515,1
DA:4516,1
DA:4517,1
DA:4518,1
DA:4519,1
DA:4520,1
DA:4523,1
DA:4524,1
DA:4525,1
DA:4526,0
DA:4527,0
DA:4529,1
DA:4534,0
DA:4535,0
DA:4536,0
DA:4537,0
DA:4538,0
DA:4540,0
DA:4541,0
DA:4544,0
DA:4545,0
DA:4546,0
DA:4547,0
DA:4548,0
DA:4549,0
DA:4550,0
DA:4551,0
DA:4552,0
DA:4553,0
DA:4554,0
DA:4555,0
DA:4556,0
DA:4557,0
DA:4558,0
DA:4559,0
DA:4560,0
DA:4561,0
DA:4562,0
DA:4563,0
DA:4564,0
DA:4566,0
DA:4567,0
DA:4568,0
DA:4569,0
DA:4570,0
DA:4571,0
DA:4572,0
DA:4574,0
DA:4575,0
DA:4576,0
DA:4577,0
DA:4578,0
DA:4579,0
DA:4580,0
DA:4581,0
DA:4582,0
DA:4583,0
DA:4584,0
BRF:0
BRH:0
LF:3431
LH:43
end_of_record
SF:C:\Users\pv2br\source\repos\AstraWeave-AI-Native-Gaming-Engine\astraweave-render\src\renderer_tests.rs
FN:608,_RNCNvNtNtCs5u7LM5pVa0o_17astraweave_render14renderer_tests5testss_30test_cascade_split_calculation0B7_
FN:609,_RNCNvNtNtCs5u7LM5pVa0o_17astraweave_render14renderer_tests5testss_30test_cascade_split_calculations_0B7_
FN:1769,_RNvMNtNtCs5u7LM5pVa0o_17astraweave_render14renderer_tests5testsNtB2_19TestRendererContext3new
FN:45,_RNvNtNtCs5u7LM5pVa0o_17astraweave_render14renderer_tests5tests18create_test_config
FN:17,_RNvNtNtCs5u7LM5pVa0o_17astraweave_render14renderer_tests5tests18create_test_device
FN:1434,_RNvNtNtCs5u7LM5pVa0o_17astraweave_render14renderer_tests5testss_17test_queue_submit
FN:1542,_RNvNtNtCs5u7LM5pVa0o_17astraweave_render14renderer_tests5testss_18test_camera_update
FN:1523,_RNvNtNtCs5u7LM5pVa0o_17astraweave_render14renderer_tests5testss_20test_camera_creation
FN:1707,_RNvNtNtCs5u7LM5pVa0o_17astraweave_render14renderer_tests5testss_20test_light_color_day
FN:1615,_RNvNtNtCs5u7LM5pVa0o_17astraweave_render14renderer_tests5testss_20test_time_of_day_new
FN:720,_RNvNtNtCs5u7LM5pVa0o_17astraweave_render14renderer_tests5testss_22test_instance_raw_size
FN:1624,_RNvNtNtCs5u7LM5pVa0o_17astraweave_render14renderer_tests5testss_22test_sun_position_noon
FN:2022,_RNvNtNtCs5u7LM5pVa0o_17astraweave_render14renderer_tests5testss_23test_camera_ubo_packing
FN:2067,_RNvNtNtCs5u7LM5pVa0o_17astraweave_render14renderer_tests5testss_23test_depth_texture_view
FN:1486,_RNvNtNtCs5u7LM5pVa0o_17astraweave_render14renderer_tests5testss_23test_gpu_light_bytemuck
FN:1464,_RNvNtNtCs5u7LM5pVa0o_17astraweave_render14renderer_tests5testss_23test_gpu_light_creation
FN:1373,_RNvNtNtCs5u7LM5pVa0o_17astraweave_render14renderer_tests5testss_23test_queue_write_buffer
FN:586,_RNvNtNtCs5u7LM5pVa0o_17astraweave_render14renderer_tests5testss_23test_shadow_view_matrix
FN:1719,_RNvNtNtCs5u7LM5pVa0o_17astraweave_render14renderer_tests5testss_23test_sky_config_default
FN:550,_RNvNtNtCs5u7LM5pVa0o_17astraweave_render14renderer_tests5testss_23test_viewport_transform
FN:807,_RNvNtNtCs5u7LM5pVa0o_17astraweave_render14renderer_tests5testss_24test_cpu_light_structure
FN:1684,_RNvNtNtCs5u7LM5pVa0o_17astraweave_render14renderer_tests5testss_24test_light_direction_day
FN:1390,_RNvNtNtCs5u7LM5pVa0o_17astraweave_render14renderer_tests5testss_24test_queue_write_texture
FN:123,_RNvNtNtCs5u7LM5pVa0o_17astraweave_render14renderer_tests5testss_24test_shadow_light_buffer
FN:570,_RNvNtNtCs5u7LM5pVa0o_17astraweave_render14renderer_tests5testss_24test_shadow_ortho_matrix
FN:1648,_RNvNtNtCs5u7LM5pVa0o_17astraweave_render14renderer_tests5testss_24test_sun_position_sunset
FN:1605,_RNvNtNtCs5u7LM5pVa0o_17astraweave_render14renderer_tests5testss_24test_time_of_day_default
FN:1563,_RNvNtNtCs5u7LM5pVa0o_17astraweave_render14renderer_tests5testss_25test_depth_texture_format
FN:310,_RNvNtNtCs5u7LM5pVa0o_17astraweave_render14renderer_tests5testss_25test_hdr_texture_creation
FN:1846,_RNvNtNtCs5u7LM5pVa0o_17astraweave_render14renderer_tests5testss_25test_mesh_buffer_creation
FN:1271,_RNvNtNtCs5u7LM5pVa0o_17astraweave_render14renderer_tests5testss_25test_multiple_bind_groups
FN:1636,_RNvNtNtCs5u7LM5pVa0o_17astraweave_render14renderer_tests5testss_25test_sun_position_sunrise
FN:1695,_RNvNtNtCs5u7LM5pVa0o_17astraweave_render14renderer_tests5testss_26test_light_direction_night
FN:657,_RNvNtNtCs5u7LM5pVa0o_17astraweave_render14renderer_tests5testss_26test_material_data_packing
FN:1660,_RNvNtNtCs5u7LM5pVa0o_17astraweave_render14renderer_tests5testss_26test_sun_position_midnight
FN:63,_RNvNtNtCs5u7LM5pVa0o_17astraweave_render14renderer_tests5testss_27test_camera_buffer_creation
FN:1452,_RNvNtNtCs5u7LM5pVa0o_17astraweave_render14renderer_tests5testss_27test_cluster_config_default
FN:2053,_RNvNtNtCs5u7LM5pVa0o_17astraweave_render14renderer_tests5testss_27test_depth_texture_creation
FN:1589,_RNvNtNtCs5u7LM5pVa0o_17astraweave_render14renderer_tests5testss_27test_instance_aabb_creation
FN:1991,_RNvNtNtCs5u7LM5pVa0o_17astraweave_render14renderer_tests5testss_27test_instance_buffer_upload
FN:964,_RNvNtNtCs5u7LM5pVa0o_17astraweave_render14renderer_tests5testss_27test_pipeline_with_blending
FN:1032,_RNvNtNtCs5u7LM5pVa0o_17astraweave_render14renderer_tests5testss_27test_render_pass_descriptor
FN:1086,_RNvNtNtCs5u7LM5pVa0o_17astraweave_render14renderer_tests5testss_27test_render_pass_with_depth
FN:824,_RNvNtNtCs5u7LM5pVa0o_17astraweave_render14renderer_tests5testss_27test_shader_module_creation
FN:624,_RNvNtNtCs5u7LM5pVa0o_17astraweave_render14renderer_tests5testss_27test_shadow_frustum_corners
FN:1499,_RNvNtNtCs5u7LM5pVa0o_17astraweave_render14renderer_tests5testss_28test_animation_clip_creation
FN:1936,_RNvNtNtCs5u7LM5pVa0o_17astraweave_render14renderer_tests5testss_28test_instance_raw_conversion
FN:433,_RNvNtNtCs5u7LM5pVa0o_17astraweave_render14renderer_tests5testss_28test_linear_sampler_creation
FN:474,_RNvNtNtCs5u7LM5pVa0o_17astraweave_render14renderer_tests5testss_28test_repeat_sampler_creation
FN:338,_RNvNtNtCs5u7LM5pVa0o_17astraweave_render14renderer_tests5testss_28test_shadow_texture_creation
FN:1728,_RNvNtNtCs5u7LM5pVa0o_17astraweave_render14renderer_tests5testss_28test_weather_system_creation
FN:146,_RNvNtNtCs5u7LM5pVa0o_17astraweave_render14renderer_tests5testss_29test_camera_bind_group_layout
FN:512,_RNvNtNtCs5u7LM5pVa0o_17astraweave_render14renderer_tests5testss_29test_camera_projection_matrix
FN:771,_RNvNtNtCs5u7LM5pVa0o_17astraweave_render14renderer_tests5testss_29test_cluster_dims_calculation
FN:1019,_RNvNtNtCs5u7LM5pVa0o_17astraweave_render14renderer_tests5testss_29test_command_encoder_creation
FN:103,_RNvNtNtCs5u7LM5pVa0o_17astraweave_render14renderer_tests5testss_29test_instance_buffer_creation
FN:83,_RNvNtNtCs5u7LM5pVa0o_17astraweave_render14renderer_tests5testss_29test_material_buffer_creation
FN:684,_RNvNtNtCs5u7LM5pVa0o_17astraweave_render14renderer_tests5testss_29test_material_byte_conversion
FN:856,_RNvNtNtCs5u7LM5pVa0o_17astraweave_render14renderer_tests5testss_29test_render_pipeline_creation
FN:262,_RNvNtNtCs5u7LM5pVa0o_17astraweave_render14renderer_tests5testss_29test_shadow_bind_group_layout
FN:529,_RNvNtNtCs5u7LM5pVa0o_17astraweave_render14renderer_tests5testss_30test_camera_view_proj_combined
FN:602,_RNvNtNtCs5u7LM5pVa0o_17astraweave_render14renderer_tests5testss_30test_cascade_split_calculation
FN:1570,_RNvNtNtCs5u7LM5pVa0o_17astraweave_render14renderer_tests5testss_30test_frustum_planes_extraction
FN:1967,_RNvNtNtCs5u7LM5pVa0o_17astraweave_render14renderer_tests5testss_30test_instance_batch_conversion
FN:697,_RNvNtNtCs5u7LM5pVa0o_17astraweave_render14renderer_tests5testss_30test_instance_transform_to_raw
FN:453,_RNvNtNtCs5u7LM5pVa0o_17astraweave_render14renderer_tests5testss_30test_shadow_comparison_sampler
FN:193,_RNvNtNtCs5u7LM5pVa0o_17astraweave_render14renderer_tests5testss_30test_texture_bind_group_layout
FN:1739,_RNvNtNtCs5u7LM5pVa0o_17astraweave_render14renderer_tests5testss_30test_weather_particle_creation
FN:1908,_RNvNtNtCs5u7LM5pVa0o_17astraweave_render14renderer_tests5testss_31test_large_mesh_buffer_capacity
FN:170,_RNvNtNtCs5u7LM5pVa0o_17astraweave_render14renderer_tests5testss_31test_material_bind_group_layout
FN:1888,_RNvNtNtCs5u7LM5pVa0o_17astraweave_render14renderer_tests5testss_31test_mesh_index_buffer_creation
FN:1672,_RNvNtNtCs5u7LM5pVa0o_17astraweave_render14renderer_tests5testss_31test_moon_position_opposite_sun
FN:731,_RNvNtNtCs5u7LM5pVa0o_17astraweave_render14renderer_tests5testss_31test_multiple_instances_packing
FN:368,_RNvNtNtCs5u7LM5pVa0o_17astraweave_render14renderer_tests5testss_31test_shadow_texture_array_views
FN:907,_RNvNtNtCs5u7LM5pVa0o_17astraweave_render14renderer_tests5testss_32test_pipeline_with_depth_stencil
FN:1162,_RNvNtNtCs5u7LM5pVa0o_17astraweave_render14renderer_tests5testss_35test_bind_group_with_uniform_buffer
FN:498,_RNvNtNtCs5u7LM5pVa0o_17astraweave_render14renderer_tests5testss_35test_camera_view_matrix_calculation
FN:786,_RNvNtNtCs5u7LM5pVa0o_17astraweave_render14renderer_tests5testss_39test_cluster_dims_different_resolutions
FN:1201,_RNvNtNtCs5u7LM5pVa0o_17astraweave_render14renderer_tests5testss_40test_bind_group_with_texture_and_sampler
FN:1813,_RNvNtNtCs5u7LM5pVa0o_17astraweave_render14renderer_tests5testss_40test_material_package_shader_compilation
FN:1769,_RNCNvMNtNtCs5u7LM5pVa0o_17astraweave_render14renderer_tests5testsNtB4_19TestRendererContext3new0B8_
FN:17,_RNCNvNtNtCs5u7LM5pVa0o_17astraweave_render14renderer_tests5tests18create_test_device0B7_
FN:1435,_RNCNvNtNtCs5u7LM5pVa0o_17astraweave_render14renderer_tests5testss_17test_queue_submit0B7_
FN:2068,_RNCNvNtNtCs5u7LM5pVa0o_17astraweave_render14renderer_tests5testss_23test_depth_texture_view0B7_
FN:1374,_RNCNvNtNtCs5u7LM5pVa0o_17astraweave_render14renderer_tests5testss_23test_queue_write_buffer0B7_
FN:1391,_RNCNvNtNtCs5u7LM5pVa0o_17astraweave_render14renderer_tests5testss_24test_queue_write_texture0B7_
FN:124,_RNCNvNtNtCs5u7LM5pVa0o_17astraweave_render14renderer_tests5testss_24test_shadow_light_buffer0B7_
FN:311,_RNCNvNtNtCs5u7LM5pVa0o_17astraweave_render14renderer_tests5testss_25test_hdr_texture_creation0B7_
FN:1849,_RNCNvNtNtCs5u7LM5pVa0o_17astraweave_render14renderer_tests5testss_25test_mesh_buffer_creation0B7_
FN:1272,_RNCNvNtNtCs5u7LM5pVa0o_17astraweave_render14renderer_tests5testss_25test_multiple_bind_groups0B7_
FN:64,_RNCNvNtNtCs5u7LM5pVa0o_17astraweave_render14renderer_tests5testss_27test_camera_buffer_creation0B7_
FN:2054,_RNCNvNtNtCs5u7LM5pVa0o_17astraweave_render14renderer_tests5testss_27test_depth_texture_creation0B7_
FN:1995,_RNCNvNtNtCs5u7LM5pVa0o_17astraweave_render14renderer_tests5testss_27test_instance_buffer_upload0B7_
FN:965,_RNCNvNtNtCs5u7LM5pVa0o_17astraweave_render14renderer_tests5testss_27test_pipeline_with_blending0B7_
FN:1033,_RNCNvNtNtCs5u7LM5pVa0o_17astraweave_render14renderer_tests5testss_27test_render_pass_descriptor0B7_
FN:1087,_RNCNvNtNtCs5u7LM5pVa0o_17astraweave_render14renderer_tests5testss_27test_render_pass_with_depth0B7_
FN:825,_RNCNvNtNtCs5u7LM5pVa0o_17astraweave_render14renderer_tests5testss_27test_shader_module_creation0B7_
FN:434,_RNCNvNtNtCs5u7LM5pVa0o_17astraweave_render14renderer_tests5testss_28test_linear_sampler_creation0B7_
FN:475,_RNCNvNtNtCs5u7LM5pVa0o_17astraweave_render14renderer_tests5testss_28test_repeat_sampler_creation0B7_
FN:339,_RNCNvNtNtCs5u7LM5pVa0o_17astraweave_render14renderer_tests5testss_28test_shadow_texture_creation0B7_
FN:147,_RNCNvNtNtCs5u7LM5pVa0o_17astraweave_render14renderer_tests5testss_29test_camera_bind_group_layout0B7_
FN:1020,_RNCNvNtNtCs5u7LM5pVa0o_17astraweave_render14renderer_tests5testss_29test_command_encoder_creation0B7_
FN:104,_RNCNvNtNtCs5u7LM5pVa0o_17astraweave_render14renderer_tests5testss_29test_instance_buffer_creation0B7_
FN:84,_RNCNvNtNtCs5u7LM5pVa0o_17astraweave_render14renderer_tests5testss_29test_material_buffer_creation0B7_
FN:857,_RNCNvNtNtCs5u7LM5pVa0o_17astraweave_render14renderer_tests5testss_29test_render_pipeline_creation0B7_
FN:263,_RNCNvNtNtCs5u7LM5pVa0o_17astraweave_render14renderer_tests5testss_29test_shadow_bind_group_layout0B7_
FN:454,_RNCNvNtNtCs5u7LM5pVa0o_17astraweave_render14renderer_tests5testss_30test_shadow_comparison_sampler0B7_
FN:194,_RNCNvNtNtCs5u7LM5pVa0o_17astraweave_render14renderer_tests5testss_30test_texture_bind_group_layout0B7_
FN:1911,_RNCNvNtNtCs5u7LM5pVa0o_17astraweave_render14renderer_tests5testss_31test_large_mesh_buffer_capacity0B7_
FN:171,_RNCNvNtNtCs5u7LM5pVa0o_17astraweave_render14renderer_tests5testss_31test_material_bind_group_layout0B7_
FN:1889,_RNCNvNtNtCs5u7LM5pVa0o_17astraweave_render14renderer_tests5testss_31test_mesh_index_buffer_creation0B7_
FN:369,_RNCNvNtNtCs5u7LM5pVa0o_17astraweave_render14renderer_tests5testss_31test_shadow_texture_array_views0B7_
FN:908,_RNCNvNtNtCs5u7LM5pVa0o_17astraweave_render14renderer_tests5testss_32test_pipeline_with_depth_stencil0B7_
FN:1163,_RNCNvNtNtCs5u7LM5pVa0o_17astraweave_render14renderer_tests5testss_35test_bind_group_with_uniform_buffer0B7_
FN:1202,_RNCNvNtNtCs5u7LM5pVa0o_17astraweave_render14renderer_tests5testss_40test_bind_group_with_texture_and_sampler0B7_
FN:1814,_RNCNvNtNtCs5u7LM5pVa0o_17astraweave_render14renderer_tests5testss_40test_material_package_shader_compilation0B7_
FN:2000,_RNCNCNvNtNtCs5u7LM5pVa0o_17astraweave_render14renderer_tests5testss_27test_instance_buffer_upload00B9_
FN:2006,_RNCNCNvNtNtCs5u7LM5pVa0o_17astraweave_render14renderer_tests5testss_27test_instance_buffer_upload0s_0B9_
FN:1917,_RNCNCNvNtNtCs5u7LM5pVa0o_17astraweave_render14renderer_tests5testss_31test_large_mesh_buffer_capacity00B9_
FN:1973,_RNCNvNtNtCs5u7LM5pVa0o_17astraweave_render14renderer_tests5testss_30test_instance_batch_conversion0B7_
FN:1979,_RNCNvNtNtCs5u7LM5pVa0o_17astraweave_render14renderer_tests5testss_30test_instance_batch_conversions_0B7_
FN:752,_RNCNvNtNtCs5u7LM5pVa0o_17astraweave_render14renderer_tests5testss_31test_multiple_instances_packing0B7_
FNDA:1,_RNCNvNtNtCs5u7LM5pVa0o_17astraweave_render14renderer_tests5testss_30test_cascade_split_calculation0B7_
FNDA:1,_RNCNvNtNtCs5u7LM5pVa0o_17astraweave_render14renderer_tests5testss_30test_cascade_split_calculations_0B7_
FNDA:7,_RNvMNtNtCs5u7LM5pVa0o_17astraweave_render14renderer_tests5testsNtB2_19TestRendererContext3new
FNDA:3,_RNvNtNtCs5u7LM5pVa0o_17astraweave_render14renderer_tests5tests18create_test_config
FNDA:27,_RNvNtNtCs5u7LM5pVa0o_17astraweave_render14renderer_tests5tests18create_test_device
FNDA:1,_RNvNtNtCs5u7LM5pVa0o_17astraweave_render14renderer_tests5testss_17test_queue_submit
FNDA:1,_RNvNtNtCs5u7LM5pVa0o_17astraweave_render14renderer_tests5testss_18test_camera_update
FNDA:1,_RNvNtNtCs5u7LM5pVa0o_17astraweave_render14renderer_tests5testss_20test_camera_creation
FNDA:1,_RNvNtNtCs5u7LM5pVa0o_17astraweave_render14renderer_tests5testss_20test_light_color_day
FNDA:1,_RNvNtNtCs5u7LM5pVa0o_17astraweave_render14renderer_tests5testss_20test_time_of_day_new
FNDA:1,_RNvNtNtCs5u7LM5pVa0o_17astraweave_render14renderer_tests5testss_22test_instance_raw_size
FNDA:1,_RNvNtNtCs5u7LM5pVa0o_17astraweave_render14renderer_tests5testss_22test_sun_position_noon
FNDA:1,_RNvNtNtCs5u7LM5pVa0o_17astraweave_render14renderer_tests5testss_23test_camera_ubo_packing
FNDA:1,_RNvNtNtCs5u7LM5pVa0o_17astraweave_render14renderer_tests5testss_23test_depth_texture_view
FNDA:1,_RNvNtNtCs5u7LM5pVa0o_17astraweave_render14renderer_tests5testss_23test_gpu_light_bytemuck
FNDA:1,_RNvNtNtCs5u7LM5pVa0o_17astraweave_render14renderer_tests5testss_23test_gpu_light_creation
FNDA:1,_RNvNtNtCs5u7LM5pVa0o_17astraweave_render14renderer_tests5testss_23test_queue_write_buffer
FNDA:1,_RNvNtNtCs5u7LM5pVa0o_17astraweave_render14renderer_tests5testss_23test_shadow_view_matrix
FNDA:1,_RNvNtNtCs5u7LM5pVa0o_17astraweave_render14renderer_tests5testss_23test_sky_config_default
FNDA:1,_RNvNtNtCs5u7LM5pVa0o_17astraweave_render14renderer_tests5testss_23test_viewport_transform
FNDA:1,_RNvNtNtCs5u7LM5pVa0o_17astraweave_render14renderer_tests5testss_24test_cpu_light_structure
FNDA:1,_RNvNtNtCs5u7LM5pVa0o_17astraweave_render14renderer_tests5testss_24test_light_direction_day
FNDA:1,_RNvNtNtCs5u7LM5pVa0o_17astraweave_render14renderer_tests5testss_24test_queue_write_texture
FNDA:1,_RNvNtNtCs5u7LM5pVa0o_17astraweave_render14renderer_tests5testss_24test_shadow_light_buffer
FNDA:1,_RNvNtNtCs5u7LM5pVa0o_17astraweave_render14renderer_tests5testss_24test_shadow_ortho_matrix
FNDA:1,_RNvNtNtCs5u7LM5pVa0o_17astraweave_render14renderer_tests5testss_24test_sun_position_sunset
FNDA:1,_RNvNtNtCs5u7LM5pVa0o_17astraweave_render14renderer_tests5testss_24test_time_of_day_default
FNDA:1,_RNvNtNtCs5u7LM5pVa0o_17astraweave_render14renderer_tests5testss_25test_depth_texture_format
FNDA:1,_RNvNtNtCs5u7LM5pVa0o_17astraweave_render14renderer_tests5testss_25test_hdr_texture_creation
FNDA:1,_RNvNtNtCs5u7LM5pVa0o_17astraweave_render14renderer_tests5testss_25test_mesh_buffer_creation
FNDA:1,_RNvNtNtCs5u7LM5pVa0o_17astraweave_render14renderer_tests5testss_25test_multiple_bind_groups
FNDA:1,_RNvNtNtCs5u7LM5pVa0o_17astraweave_render14renderer_tests5testss_25test_sun_position_sunrise
FNDA:1,_RNvNtNtCs5u7LM5pVa0o_17astraweave_render14renderer_tests5testss_26test_light_direction_night
FNDA:1,_RNvNtNtCs5u7LM5pVa0o_17astraweave_render14renderer_tests5testss_26test_material_data_packing
FNDA:1,_RNvNtNtCs5u7LM5pVa0o_17astraweave_render14renderer_tests5testss_26test_sun_position_midnight
FNDA:1,_RNvNtNtCs5u7LM5pVa0o_17astraweave_render14renderer_tests5testss_27test_camera_buffer_creation
FNDA:1,_RNvNtNtCs5u7LM5pVa0o_17astraweave_render14renderer_tests5testss_27test_cluster_config_default
FNDA:1,_RNvNtNtCs5u7LM5pVa0o_17astraweave_render14renderer_tests5testss_27test_depth_texture_creation
FNDA:1,_RNvNtNtCs5u7LM5pVa0o_17astraweave_render14renderer_tests5testss_27test_instance_aabb_creation
FNDA:1,_RNvNtNtCs5u7LM5pVa0o_17astraweave_render14renderer_tests5testss_27test_instance_buffer_upload
FNDA:1,_RNvNtNtCs5u7LM5pVa0o_17astraweave_render14renderer_tests5testss_27test_pipeline_with_blending
FNDA:1,_RNvNtNtCs5u7LM5pVa0o_17astraweave_render14renderer_tests5testss_27test_render_pass_descriptor
FNDA:1,_RNvNtNtCs5u7LM5pVa0o_17astraweave_render14renderer_tests5testss_27test_render_pass_with_depth
FNDA:1,_RNvNtNtCs5u7LM5pVa0o_17astraweave_render14renderer_tests5testss_27test_shader_module_creation
FNDA:1,_RNvNtNtCs5u7LM5pVa0o_17astraweave_render14renderer_tests5testss_27test_shadow_frustum_corners
FNDA:1,_RNvNtNtCs5u7LM5pVa0o_17astraweave_render14renderer_tests5testss_28test_animation_clip_creation
FNDA:1,_RNvNtNtCs5u7LM5pVa0o_17astraweave_render14renderer_tests5testss_28test_instance_raw_conversion
FNDA:1,_RNvNtNtCs5u7LM5pVa0o_17astraweave_render14renderer_tests5testss_28test_linear_sampler_creation
FNDA:1,_RNvNtNtCs5u7LM5pVa0o_17astraweave_render14renderer_tests5testss_28test_repeat_sampler_creation
FNDA:1,_RNvNtNtCs5u7LM5pVa0o_17astraweave_render14renderer_tests5testss_28test_shadow_texture_creation
FNDA:1,_RNvNtNtCs5u7LM5pVa0o_17astraweave_render14renderer_tests5testss_28test_weather_system_creation
FNDA:1,_RNvNtNtCs5u7LM5pVa0o_17astraweave_render14renderer_tests5testss_29test_camera_bind_group_layout
FNDA:1,_RNvNtNtCs5u7LM5pVa0o_17astraweave_render14renderer_tests5testss_29test_camera_projection_matrix
FNDA:1,_RNvNtNtCs5u7LM5pVa0o_17astraweave_render14renderer_tests5testss_29test_cluster_dims_calculation
FNDA:1,_RNvNtNtCs5u7LM5pVa0o_17astraweave_render14renderer_tests5testss_29test_command_encoder_creation
FNDA:1,_RNvNtNtCs5u7LM5pVa0o_17astraweave_render14renderer_tests5testss_29test_instance_buffer_creation
FNDA:1,_RNvNtNtCs5u7LM5pVa0o_17astraweave_render14renderer_tests5testss_29test_material_buffer_creation
FNDA:1,_RNvNtNtCs5u7LM5pVa0o_17astraweave_render14renderer_tests5testss_29test_material_byte_conversion
FNDA:1,_RNvNtNtCs5u7LM5pVa0o_17astraweave_render14renderer_tests5testss_29test_render_pipeline_creation
FNDA:1,_RNvNtNtCs5u7LM5pVa0o_17astraweave_render14renderer_tests5testss_29test_shadow_bind_group_layout
FNDA:1,_RNvNtNtCs5u7LM5pVa0o_17astraweave_render14renderer_tests5testss_30test_camera_view_proj_combined
FNDA:1,_RNvNtNtCs5u7LM5pVa0o_17astraweave_render14renderer_tests5testss_30test_cascade_split_calculation
FNDA:1,_RNvNtNtCs5u7LM5pVa0o_17astraweave_render14renderer_tests5testss_30test_frustum_planes_extraction
FNDA:1,_RNvNtNtCs5u7LM5pVa0o_17astraweave_render14renderer_tests5testss_30test_instance_batch_conversion
FNDA:1,_RNvNtNtCs5u7LM5pVa0o_17astraweave_render14renderer_tests5testss_30test_instance_transform_to_raw
FNDA:1,_RNvNtNtCs5u7LM5pVa0o_17astraweave_render14renderer_tests5testss_30test_shadow_comparison_sampler
FNDA:1,_RNvNtNtCs5u7LM5pVa0o_17astraweave_render14renderer_tests5testss_30test_texture_bind_group_layout
FNDA:1,_RNvNtNtCs5u7LM5pVa0o_17astraweave_render14renderer_tests5testss_30test_weather_particle_creation
FNDA:1,_RNvNtNtCs5u7LM5pVa0o_17astraweave_render14renderer_tests5testss_31test_large_mesh_buffer_capacity
FNDA:1,_RNvNtNtCs5u7LM5pVa0o_17astraweave_render14renderer_tests5testss_31test_material_bind_group_layout
FNDA:1,_RNvNtNtCs5u7LM5pVa0o_17astraweave_render14renderer_tests5testss_31test_mesh_index_buffer_creation
FNDA:1,_RNvNtNtCs5u7LM5pVa0o_17astraweave_render14renderer_tests5testss_31test_moon_position_opposite_sun
FNDA:1,_RNvNtNtCs5u7LM5pVa0o_17astraweave_render14renderer_tests5testss_31test_multiple_instances_packing
FNDA:1,_RNvNtNtCs5u7LM5pVa0o_17astraweave_render14renderer_tests5testss_31test_shadow_texture_array_views
FNDA:1,_RNvNtNtCs5u7LM5pVa0o_17astraweave_render14renderer_tests5testss_32test_pipeline_with_depth_stencil
FNDA:1,_RNvNtNtCs5u7LM5pVa0o_17astraweave_render14renderer_tests5testss_35test_bind_group_with_uniform_buffer
FNDA:1,_RNvNtNtCs5u7LM5pVa0o_17astraweave_render14renderer_tests5testss_35test_camera_view_matrix_calculation
FNDA:1,_RNvNtNtCs5u7LM5pVa0o_17astraweave_render14renderer_tests5testss_39test_cluster_dims_different_resolutions
FNDA:1,_RNvNtNtCs5u7LM5pVa0o_17astraweave_render14renderer_tests5testss_40test_bind_group_with_texture_and_sampler
FNDA:1,_RNvNtNtCs5u7LM5pVa0o_17astraweave_render14renderer_tests5testss_40test_material_package_shader_compilation
FNDA:7,_RNCNvMNtNtCs5u7LM5pVa0o_17astraweave_render14renderer_tests5testsNtB4_19TestRendererContext3new0B8_
FNDA:27,_RNCNvNtNtCs5u7LM5pVa0o_17astraweave_render14renderer_tests5tests18create_test_device0B7_
FNDA:1,_RNCNvNtNtCs5u7LM5pVa0o_17astraweave_render14renderer_tests5testss_17test_queue_submit0B7_
FNDA:1,_RNCNvNtNtCs5u7LM5pVa0o_17astraweave_render14renderer_tests5testss_23test_depth_texture_view0B7_
FNDA:1,_RNCNvNtNtCs5u7LM5pVa0o_17astraweave_render14renderer_tests5testss_23test_queue_write_buffer0B7_
FNDA:1,_RNCNvNtNtCs5u7LM5pVa0o_17astraweave_render14renderer_tests5testss_24test_queue_write_texture0B7_
FNDA:1,_RNCNvNtNtCs5u7LM5pVa0o_17astraweave_render14renderer_tests5testss_24test_shadow_light_buffer0B7_
FNDA:1,_RNCNvNtNtCs5u7LM5pVa0o_17astraweave_render14renderer_tests5testss_25test_hdr_texture_creation0B7_
FNDA:1,_RNCNvNtNtCs5u7LM5pVa0o_17astraweave_render14renderer_tests5testss_25test_mesh_buffer_creation0B7_
FNDA:1,_RNCNvNtNtCs5u7LM5pVa0o_17astraweave_render14renderer_tests5testss_25test_multiple_bind_groups0B7_
FNDA:1,_RNCNvNtNtCs5u7LM5pVa0o_17astraweave_render14renderer_tests5testss_27test_camera_buffer_creation0B7_
FNDA:1,_RNCNvNtNtCs5u7LM5pVa0o_17astraweave_render14renderer_tests5testss_27test_depth_texture_creation0B7_
FNDA:1,_RNCNvNtNtCs5u7LM5pVa0o_17astraweave_render14renderer_tests5testss_27test_instance_buffer_upload0B7_
FNDA:1,_RNCNvNtNtCs5u7LM5pVa0o_17astraweave_render14renderer_tests5testss_27test_pipeline_with_blending0B7_
FNDA:1,_RNCNvNtNtCs5u7LM5pVa0o_17astraweave_render14renderer_tests5testss_27test_render_pass_descriptor0B7_
FNDA:1,_RNCNvNtNtCs5u7LM5pVa0o_17astraweave_render14renderer_tests5testss_27test_render_pass_with_depth0B7_
FNDA:1,_RNCNvNtNtCs5u7LM5pVa0o_17astraweave_render14renderer_tests5testss_27test_shader_module_creation0B7_
FNDA:1,_RNCNvNtNtCs5u7LM5pVa0o_17astraweave_render14renderer_tests5testss_28test_linear_sampler_creation0B7_
FNDA:1,_RNCNvNtNtCs5u7LM5pVa0o_17astraweave_render14renderer_tests5testss_28test_repeat_sampler_creation0B7_
FNDA:1,_RNCNvNtNtCs5u7LM5pVa0o_17astraweave_render14renderer_tests5testss_28test_shadow_texture_creation0B7_
FNDA:1,_RNCNvNtNtCs5u7LM5pVa0o_17astraweave_render14renderer_tests5testss_29test_camera_bind_group_layout0B7_
FNDA:1,_RNCNvNtNtCs5u7LM5pVa0o_17astraweave_render14renderer_tests5testss_29test_command_encoder_creation0B7_
FNDA:1,_RNCNvNtNtCs5u7LM5pVa0o_17astraweave_render14renderer_tests5testss_29test_instance_buffer_creation0B7_
FNDA:1,_RNCNvNtNtCs5u7LM5pVa0o_17astraweave_render14renderer_tests5testss_29test_material_buffer_creation0B7_
FNDA:1,_RNCNvNtNtCs5u7LM5pVa0o_17astraweave_render14renderer_tests5testss_29test_render_pipeline_creation0B7_
FNDA:1,_RNCNvNtNtCs5u7LM5pVa0o_17astraweave_render14renderer_tests5testss_29test_shadow_bind_group_layout0B7_
FNDA:1,_RNCNvNtNtCs5u7LM5pVa0o_17astraweave_render14renderer_tests5testss_30test_shadow_comparison_sampler0B7_
FNDA:1,_RNCNvNtNtCs5u7LM5pVa0o_17astraweave_render14renderer_tests5testss_30test_texture_bind_group_layout0B7_
FNDA:1,_RNCNvNtNtCs5u7LM5pVa0o_17astraweave_render14renderer_tests5testss_31test_large_mesh_buffer_capacity0B7_
FNDA:1,_RNCNvNtNtCs5u7LM5pVa0o_17astraweave_render14renderer_tests5testss_31test_material_bind_group_layout0B7_
FNDA:1,_RNCNvNtNtCs5u7LM5pVa0o_17astraweave_render14renderer_tests5testss_31test_mesh_index_buffer_creation0B7_
FNDA:1,_RNCNvNtNtCs5u7LM5pVa0o_17astraweave_render14renderer_tests5testss_31test_shadow_texture_array_views0B7_
FNDA:1,_RNCNvNtNtCs5u7LM5pVa0o_17astraweave_render14renderer_tests5testss_32test_pipeline_with_depth_stencil0B7_
FNDA:1,_RNCNvNtNtCs5u7LM5pVa0o_17astraweave_render14renderer_tests5testss_35test_bind_group_with_uniform_buffer0B7_
FNDA:1,_RNCNvNtNtCs5u7LM5pVa0o_17astraweave_render14renderer_tests5testss_40test_bind_group_with_texture_and_sampler0B7_
FNDA:1,_RNCNvNtNtCs5u7LM5pVa0o_17astraweave_render14renderer_tests5testss_40test_material_package_shader_compilation0B7_
FNDA:100,_RNCNCNvNtNtCs5u7LM5pVa0o_17astraweave_render14renderer_tests5testss_27test_instance_buffer_upload00B9_
FNDA:100,_RNCNCNvNtNtCs5u7LM5pVa0o_17astraweave_render14renderer_tests5testss_27test_instance_buffer_upload0s_0B9_
FNDA:1000,_RNCNCNvNtNtCs5u7LM5pVa0o_17astraweave_render14renderer_tests5testss_31test_large_mesh_buffer_capacity00B9_
FNDA:10,_RNCNvNtNtCs5u7LM5pVa0o_17astraweave_render14renderer_tests5testss_30test_instance_batch_conversion0B7_
FNDA:10,_RNCNvNtNtCs5u7LM5pVa0o_17astraweave_render14renderer_tests5testss_30test_instance_batch_conversions_0B7_
FNDA:3,_RNCNvNtNtCs5u7LM5pVa0o_17astraweave_render14renderer_tests5testss_31test_multiple_instances_packing0B7_
FNF:122
FNH:122
DA:17,27
DA:18,27
DA:19,27
DA:20,27
DA:21,27
DA:23,27
DA:24,27
DA:25,27
DA:26,27
DA:27,27
DA:28,27
DA:29,27
DA:30,27
DA:32,27
DA:33,27
DA:34,27
DA:35,27
DA:36,27
DA:37,27
DA:38,27
DA:39,27
DA:40,27
DA:41,27
DA:42,27
DA:45,3
DA:46,3
DA:47,3
DA:48,3
DA:49,3
DA:50,3
DA:51,3
DA:52,3
DA:53,3
DA:54,3
DA:55,3
DA:56,3
DA:63,1
DA:64,1
DA:65,1
DA:68,1
DA:70,1
DA:71,1
DA:72,1
DA:73,1
DA:74,1
DA:75,1
DA:77,1
DA:78,1
DA:79,1
DA:80,1
DA:83,1
DA:84,1
DA:85,1
DA:87,1
DA:88,1
DA:89,1
DA:90,1
DA:91,1
DA:92,1
DA:95,1
DA:96,1
DA:98,1
DA:99,1
DA:100,1
DA:103,1
DA:104,1
DA:105,1
DA:107,1
DA:108,1
DA:110,1
DA:111,1
DA:112,1
DA:113,1
DA:114,1
DA:115,1
DA:117,1
DA:118,1
DA:119,1
DA:120,1
DA:123,1
DA:124,1
DA:125,1
DA:128,1
DA:130,1
DA:131,1
DA:132,1
DA:133,1
DA:134,1
DA:135,1
DA:137,1
DA:138,1
DA:139,1
DA:146,1
DA:147,1
DA:148,1
DA:150,1
DA:151,1
DA:152,1
DA:153,1
DA:154,1
DA:155,1
DA:156,1
DA:157,1
DA:158,1
DA:159,1
DA:160,1
DA:161,1
DA:162,1
DA:165,1
DA:166,1
DA:167,1
DA:170,1
DA:171,1
DA:172,1
DA:174,1
DA:175,1
DA:176,1
DA:177,1
DA:178,1
DA:179,1
DA:180,1
DA:181,1
DA:182,1
DA:183,1
DA:184,1
DA:185,1
DA:186,1
DA:188,1
DA:189,1
DA:190,1
DA:193,1
DA:194,1
DA:195,1
DA:197,1
DA:198,1
DA:199,1
DA:200,1
DA:201,1
DA:202,1
DA:203,1
DA:204,1
DA:205,1
DA:206,1
DA:207,1
DA:208,1
DA:209,1
DA:210,1
DA:211,1
DA:212,1
DA:213,1
DA:214,1
DA:215,1
DA:216,1
DA:217,1
DA:218,1
DA:219,1
DA:220,1
DA:221,1
DA:222,1
DA:223,1
DA:224,1
DA:225,1
DA:226,1
DA:227,1
DA:228,1
DA:229,1
DA:230,1
DA:231,1
DA:232,1
DA:233,1
DA:234,1
DA:235,1
DA:236,1
DA:237,1
DA:238,1
DA:239,1
DA:240,1
DA:241,1
DA:242,1
DA:243,1
DA:244,1
DA:245,1
DA:246,1
DA:247,1
DA:248,1
DA:249,1
DA:250,1
DA:251,1
DA:252,1
DA:253,1
DA:254,1
DA:255,1
DA:257,1
DA:258,1
DA:259,1
DA:262,1
DA:263,1
DA:264,1
DA:266,1
DA:267,1
DA:268,1
DA:269,1
DA:270,1
DA:271,1
DA:272,1
DA:273,1
DA:274,1
DA:275,1
DA:276,1
DA:277,1
DA:278,1
DA:279,1
DA:280,1
DA:281,1
DA:282,1
DA:283,1
DA:284,1
DA:285,1
DA:286,1
DA:287,1
DA:288,1
DA:289,1
DA:290,1
DA:291,1
DA:292,1
DA:293,1
DA:294,1
DA:295,1
DA:296,1
DA:297,1
DA:298,1
DA:299,1
DA:301,1
DA:302,1
DA:303,1
DA:310,1
DA:311,1
DA:312,1
DA:313,1
DA:315,1
DA:316,1
DA:317,1
DA:318,1
DA:319,1
DA:320,1
DA:321,1
DA:322,1
DA:323,1
DA:324,1
DA:325,1
DA:326,1
DA:327,1
DA:328,1
DA:329,1
DA:331,1
DA:332,1
DA:333,1
DA:334,1
DA:335,1
DA:338,1
DA:339,1
DA:340,1
DA:342,1
DA:343,1
DA:345,1
DA:346,1
DA:347,1
DA:348,1
DA:349,1
DA:350,1
DA:351,1
DA:352,1
DA:353,1
DA:354,1
DA:355,1
DA:356,1
DA:357,1
DA:358,1
DA:359,1
DA:361,1
DA:362,1
DA:363,1
DA:364,1
DA:365,1
DA:368,1
DA:369,1
DA:370,1
DA:372,1
DA:373,1
DA:374,1
DA:375,1
DA:376,1
DA:377,1
DA:378,1
DA:379,1
DA:380,1
DA:381,1
DA:382,1
DA:383,1
DA:384,1
DA:385,1
DA:386,1
DA:389,1
DA:390,1
DA:391,1
DA:392,1
DA:393,1
DA:394,1
DA:395,1
DA:396,1
DA:397,1
DA:398,1
DA:399,1
DA:402,1
DA:403,1
DA:404,1
DA:405,1
DA:406,1
DA:407,1
DA:408,1
DA:409,1
DA:410,1
DA:411,1
DA:412,1
DA:414,1
DA:415,1
DA:416,1
DA:417,1
DA:418,1
DA:419,1
DA:420,1
DA:421,1
DA:422,1
DA:423,1
DA:424,1
DA:425,1
DA:426,1
DA:433,1
DA:434,1
DA:435,1
DA:437,1
DA:438,1
DA:439,1
DA:440,1
DA:441,1
DA:442,1
DA:443,1
DA:444,1
DA:445,1
DA:446,1
DA:448,1
DA:449,1
DA:450,1
DA:453,1
DA:454,1
DA:455,1
DA:457,1
DA:458,1
DA:459,1
DA:460,1
DA:461,1
DA:462,1
DA:463,1
DA:464,1
DA:465,1
DA:466,1
DA:467,1
DA:469,1
DA:470,1
DA:471,1
DA:474,1
DA:475,1
DA:476,1
DA:478,1
DA:479,1
DA:480,1
DA:481,1
DA:482,1
DA:483,1
DA:484,1
DA:485,1
DA:486,1
DA:487,1
DA:489,1
DA:490,1
DA:491,1
DA:498,1
DA:499,1
DA:500,1
DA:501,1
DA:503,1
DA:507,1
DA:508,1
DA:509,1
DA:512,1
DA:513,1
DA:514,1
DA:515,1
DA:516,1
DA:518,1
DA:521,1
DA:522,1
DA:525,1
DA:526,1
DA:529,1
DA:530,1
DA:531,1
DA:532,1
DA:533,1
DA:535,1
DA:536,1
DA:537,1
DA:539,1
DA:542,1
DA:543,1
DA:546,1
DA:547,1
DA:550,1
DA:551,1
DA:552,1
DA:555,1
DA:556,1
DA:558,1
DA:559,1
DA:561,1
DA:562,1
DA:563,1
DA:570,1
DA:571,1
DA:572,1
DA:573,1
DA:575,1
DA:578,1
DA:579,1
DA:582,1
DA:583,1
DA:586,1
DA:587,1
DA:588,1
DA:589,1
DA:590,1
DA:592,1
DA:595,1
DA:598,1
DA:599,1
DA:602,1
DA:603,1
DA:604,1
DA:605,1
DA:608,1
DA:609,1
DA:611,1
DA:612,1
DA:614,1
DA:615,1
DA:616,1
DA:618,1
DA:619,1
DA:620,1
DA:621,1
DA:624,1
DA:626,1
DA:627,1
DA:628,1
DA:629,1
DA:631,1
DA:632,1
DA:635,1
DA:636,1
DA:637,1
DA:638,1
DA:639,1
DA:640,1
DA:643,5
DA:644,4
DA:645,4
DA:648,4
DA:650,1
DA:657,1
DA:658,1
DA:659,1
DA:660,1
DA:661,1
DA:663,1
DA:664,1
DA:665,1
DA:666,1
DA:667,1
DA:668,1
DA:669,1
DA:670,1
DA:671,1
DA:672,1
DA:675,1
DA:678,1
DA:679,1
DA:680,1
DA:681,1
DA:684,1
DA:685,1
DA:687,1
DA:689,1
DA:690,1
DA:697,1
DA:700,1
DA:701,1
DA:702,1
DA:703,1
DA:704,1
DA:706,1
DA:709,1
DA:710,1
DA:713,1
DA:716,1
DA:717,1
DA:720,1
DA:724,1
DA:726,1
DA:727,1
DA:728,1
DA:731,1
DA:734,1
DA:735,1
DA:736,1
DA:737,1
DA:738,1
DA:739,1
DA:740,1
DA:741,1
DA:742,1
DA:743,1
DA:744,1
DA:745,1
DA:746,1
DA:747,1
DA:748,1
DA:749,1
DA:752,3
DA:754,1
DA:757,1
DA:758,1
DA:759,1
DA:761,1
DA:762,1
DA:763,1
DA:764,1
DA:771,1
DA:774,1
DA:775,1
DA:776,1
DA:777,1
DA:778,1
DA:780,1
DA:781,1
DA:782,1
DA:783,1
DA:786,1
DA:789,1
DA:790,1
DA:791,1
DA:792,1
DA:793,1
DA:796,5
DA:797,4
DA:798,4
DA:799,4
DA:801,4
DA:802,4
DA:804,1
DA:807,1
DA:810,1
DA:811,1
DA:812,1
DA:813,1
DA:815,1
DA:816,1
DA:817,1
DA:824,1
DA:825,1
DA:826,1
DA:828,1
DA:829,1
DA:830,1
DA:831,1
DA:832,1
DA:833,1
DA:834,1
DA:835,1
DA:836,1
DA:837,1
DA:838,1
DA:839,1
DA:840,1
DA:841,1
DA:842,1
DA:843,1
DA:845,1
DA:846,1
DA:847,1
DA:848,1
DA:851,1
DA:852,1
DA:853,1
DA:856,1
DA:857,1
DA:858,1
DA:860,1
DA:861,1
DA:862,1
DA:863,1
DA:864,1
DA:865,1
DA:866,1
DA:867,1
DA:868,1
DA:869,1
DA:870,1
DA:871,1
DA:872,1
DA:873,1
DA:874,1
DA:876,1
DA:877,1
DA:878,1
DA:879,1
DA:880,1
DA:881,1
DA:882,1
DA:883,1
DA:884,1
DA:885,1
DA:886,1
DA:887,1
DA:888,1
DA:889,1
DA:890,1
DA:891,1
DA:892,1
DA:893,1
DA:894,1
DA:895,1
DA:896,1
DA:897,1
DA:898,1
DA:899,1
DA:900,1
DA:902,1
DA:903,1
DA:904,1
DA:907,1
DA:908,1
DA:909,1
DA:911,1
DA:912,1
DA:913,1
DA:914,1
DA:915,1
DA:916,1
DA:917,1
DA:918,1
DA:919,1
DA:920,1
DA:921,1
DA:922,1
DA:923,1
DA:924,1
DA:925,1
DA:927,1
DA:928,1
DA:929,1
DA:930,1
DA:931,1
DA:932,1
DA:933,1
DA:934,1
DA:935,1
DA:936,1
DA:937,1
DA:938,1
DA:939,1
DA:940,1
DA:941,1
DA:942,1
DA:943,1
DA:944,1
DA:945,1
DA:946,1
DA:947,1
DA:948,1
DA:949,1
DA:950,1
DA:951,1
DA:952,1
DA:953,1
DA:954,1
DA:955,1
DA:956,1
DA:957,1
DA:959,1
DA:960,1
DA:961,1
DA:964,1
DA:965,1
DA:966,1
DA:968,1
DA:969,1
DA:970,1
DA:971,1
DA:972,1
DA:973,1
DA:974,1
DA:975,1
DA:976,1
DA:977,1
DA:978,1
DA:979,1
DA:980,1
DA:981,1
DA:982,1
DA:984,1
DA:985,1
DA:986,1
DA:987,1
DA:988,1
DA:989,1
DA:990,1
DA:991,1
DA:992,1
DA:993,1
DA:994,1
DA:995,1
DA:996,1
DA:997,1
DA:998,1
DA:999,1
DA:1000,1
DA:1001,1
DA:1002,1
DA:1003,1
DA:1004,1
DA:1005,1
DA:1006,1
DA:1007,1
DA:1008,1
DA:1010,1
DA:1011,1
DA:1012,1
DA:1019,1
DA:1020,1
DA:1021,1
DA:1023,1
DA:1024,1
DA:1025,1
DA:1027,1
DA:1028,1
DA:1029,1
DA:1032,1
DA:1033,1
DA:1034,1
DA:1035,1
DA:1038,1
DA:1039,1
DA:1040,1
DA:1041,1
DA:1042,1
DA:1043,1
DA:1044,1
DA:1045,1
DA:1046,1
DA:1047,1
DA:1048,1
DA:1049,1
DA:1050,1
DA:1051,1
DA:1053,1
DA:1055,1
DA:1056,1
DA:1057,1
DA:1059,1
DA:1060,1
DA:1061,1
DA:1062,1
DA:1063,1
DA:1064,1
DA:1065,1
DA:1066,1
DA:1067,1
DA:1068,1
DA:1069,1
DA:1070,1
DA:1071,1
DA:1072,1
DA:1073,1
DA:1074,1
DA:1075,1
DA:1076,1
DA:1077,1
DA:1078,1
DA:1079,1
DA:1081,1
DA:1082,1
DA:1083,1
DA:1086,1
DA:1087,1
DA:1088,1
DA:1089,1
DA:1092,1
DA:1093,1
DA:1094,1
DA:1095,1
DA:1096,1
DA:1097,1
DA:1098,1
DA:1099,1
DA:1100,1
DA:1101,1
DA:1102,1
DA:1103,1
DA:1104,1
DA:1105,1
DA:1107,1
DA:1108,1
DA:1109,1
DA:1110,1
DA:1111,1
DA:1112,1
DA:1113,1
DA:1114,1
DA:1115,1
DA:1116,1
DA:1117,1
DA:1118,1
DA:1119,1
DA:1120,1
DA:1122,1
DA:1123,1
DA:1125,1
DA:1126,1
DA:1127,1
DA:1129,1
DA:1130,1
DA:1131,1
DA:1132,1
DA:1133,1
DA:1134,1
DA:1135,1
DA:1136,1
DA:1137,1
DA:1138,1
DA:1139,1
DA:1140,1
DA:1141,1
DA:1142,1
DA:1143,1
DA:1144,1
DA:1145,1
DA:1146,1
DA:1147,1
DA:1148,1
DA:1149,1
DA:1150,1
DA:1151,1
DA:1153,1
DA:1154,1
DA:1155,1
DA:1162,1
DA:1163,1
DA:1164,1
DA:1166,1
DA:1167,1
DA:1168,1
DA:1169,1
DA:1170,1
DA:1171,1
DA:1173,1
DA:1174,1
DA:1175,1
DA:1176,1
DA:1177,1
DA:1178,1
DA:1179,1
DA:1180,1
DA:1181,1
DA:1182,1
DA:1183,1
DA:1184,1
DA:1185,1
DA:1187,1
DA:1188,1
DA:1189,1
DA:1190,1
DA:1191,1
DA:1192,1
DA:1193,1
DA:1194,1
DA:1196,1
DA:1197,1
DA:1198,1
DA:1201,1
DA:1202,1
DA:1203,1
DA:1205,1
DA:1206,1
DA:1207,1
DA:1208,1
DA:1209,1
DA:1210,1
DA:1211,1
DA:1212,1
DA:1213,1
DA:1214,1
DA:1215,1
DA:1216,1
DA:1217,1
DA:1218,1
DA:1220,1
DA:1221,1
DA:1222,1
DA:1223,1
DA:1224,1
DA:1225,1
DA:1227,1
DA:1229,1
DA:1230,1
DA:1231,1
DA:1232,1
DA:1233,1
DA:1234,1
DA:1235,1
DA:1236,1
DA:1237,1
DA:1238,1
DA:1239,1
DA:1240,1
DA:1241,1
DA:1242,1
DA:1243,1
DA:1244,1
DA:1245,1
DA:1246,1
DA:1247,1
DA:1248,1
DA:1249,1
DA:1251,1
DA:1252,1
DA:1253,1
DA:1254,1
DA:1255,1
DA:1256,1
DA:1257,1
DA:1258,1
DA:1259,1
DA:1260,1
DA:1261,1
DA:1262,1
DA:1263,1
DA:1264,1
DA:1266,1
DA:1267,1
DA:1268,1
DA:1271,1
DA:1272,1
DA:1273,1
DA:1276,1
DA:1277,1
DA:1278,1
DA:1279,1
DA:1280,1
DA:1281,1
DA:1283,1
DA:1284,1
DA:1285,1
DA:1286,1
DA:1287,1
DA:1288,1
DA:1290,1
DA:1291,1
DA:1292,1
DA:1293,1
DA:1294,1
DA:1295,1
DA:1297,1
DA:1298,1
DA:1299,1
DA:1300,1
DA:1301,1
DA:1302,1
DA:1303,1
DA:1304,1
DA:1305,1
DA:1306,1
DA:1307,1
DA:1308,1
DA:1309,1
DA:1311,1
DA:1312,1
DA:1313,1
DA:1314,1
DA:1315,1
DA:1316,1
DA:1317,1
DA:1318,1
DA:1319,1
DA:1320,1
DA:1321,1
DA:1322,1
DA:1323,1
DA:1325,1
DA:1326,1
DA:1327,1
DA:1328,1
DA:1329,1
DA:1330,1
DA:1331,1
DA:1332,1
DA:1333,1
DA:1334,1
DA:1335,1
DA:1336,1
DA:1337,1
DA:1339,1
DA:1340,1
DA:1341,1
DA:1342,1
DA:1343,1
DA:1344,1
DA:1345,1
DA:1346,1
DA:1348,1
DA:1349,1
DA:1350,1
DA:1351,1
DA:1352,1
DA:1353,1
DA:1354,1
DA:1355,1
DA:1357,1
DA:1358,1
DA:1359,1
DA:1360,1
DA:1361,1
DA:1362,1
DA:1363,1
DA:1364,1
DA:1365,1
DA:1366,1
DA:1373,1
DA:1374,1
DA:1375,1
DA:1377,1
DA:1378,1
DA:1379,1
DA:1380,1
DA:1381,1
DA:1382,1
DA:1384,1
DA:1385,1
DA:1386,1
DA:1387,1
DA:1390,1
DA:1391,1
DA:1392,1
DA:1394,1
DA:1395,1
DA:1396,1
DA:1397,1
DA:1398,1
DA:1399,1
DA:1400,1
DA:1401,1
DA:1402,1
DA:1403,1
DA:1404,1
DA:1405,1
DA:1406,1
DA:1407,1
DA:1409,1
DA:1411,1
DA:1412,1
DA:1413,1
DA:1414,1
DA:1415,1
DA:1416,1
DA:1417,1
DA:1418,1
DA:1419,1
DA:1420,1
DA:1421,1
DA:1422,1
DA:1423,1
DA:1424,1
DA:1425,1
DA:1426,1
DA:1427,1
DA:1428,1
DA:1430,1
DA:1431,1
DA:1434,1
DA:1435,1
DA:1436,1
DA:1438,1
DA:1439,1
DA:1440,1
DA:1442,1
DA:1443,1
DA:1444,1
DA:1445,1
DA:1452,1
DA:1455,1
DA:1456,1
DA:1457,1
DA:1458,1
DA:1459,1
DA:1460,1
DA:1461,1
DA:1464,1
DA:1468,1
DA:1469,1
DA:1470,1
DA:1471,1
DA:1473,1
DA:1475,1
DA:1476,1
DA:1477,1
DA:1478,1
DA:1479,1
DA:1480,1
DA:1481,1
DA:1482,1
DA:1483,1
DA:1486,1
DA:1490,1
DA:1493,1
DA:1494,1
DA:1495,1
DA:1496,1
DA:1499,1
DA:1503,1
DA:1504,1
DA:1505,1
DA:1506,1
DA:1507,1
DA:1508,1
DA:1509,1
DA:1510,1
DA:1511,1
DA:1512,1
DA:1513,1
DA:1514,1
DA:1516,1
DA:1517,1
DA:1518,1
DA:1519,1
DA:1520,1
DA:1523,1
DA:1527,1
DA:1528,1
DA:1529,1
DA:1530,1
DA:1531,1
DA:1532,1
DA:1533,1
DA:1534,1
DA:1535,1
DA:1537,1
DA:1538,1
DA:1539,1
DA:1542,1
DA:1546,1
DA:1547,1
DA:1548,1
DA:1549,1
DA:1550,1
DA:1551,1
DA:1552,1
DA:1553,1
DA:1554,1
DA:1556,1
DA:1558,1
DA:1559,1
DA:1560,1
DA:1563,1
DA:1565,1
DA:1566,1
DA:1567,1
DA:1570,1
DA:1574,1
DA:1575,1
DA:1576,1
DA:1578,1
DA:1581,1
DA:1582,7
DA:1583,6
DA:1584,6
DA:1586,1
DA:1589,1
DA:1593,1
DA:1595,1
DA:1596,1
DA:1597,1
DA:1598,1
DA:1605,1
DA:1608,1
DA:1609,1
DA:1610,1
DA:1611,1
DA:1612,1
DA:1615,1
DA:1618,1
DA:1619,1
DA:1620,1
DA:1621,1
DA:1624,1
DA:1627,1
DA:1628,1
DA:1631,1
DA:1632,1
DA:1633,1
DA:1636,1
DA:1639,1
DA:1640,1
DA:1643,1
DA:1644,1
DA:1645,1
DA:1648,1
DA:1651,1
DA:1652,1
DA:1655,1
DA:1656,1
DA:1657,1
DA:1660,1
DA:1663,1
DA:1664,1
DA:1667,1
DA:1668,1
DA:1669,1
DA:1672,1
DA:1675,1
DA:1676,1
DA:1677,1
DA:1680,1
DA:1681,1
DA:1684,1
DA:1687,1
DA:1688,1
DA:1691,1
DA:1692,1
DA:1695,1
DA:1698,1
DA:1699,1
DA:1703,1
DA:1704,1
DA:1707,1
DA:1710,1
DA:1711,1
DA:1714,1
DA:1715,0
DA:1716,1
DA:1719,1
DA:1722,1
DA:1723,1
DA:1724,1
DA:1725,1
DA:1728,1
DA:1731,1
DA:1734,1
DA:1735,1
DA:1736,1
DA:1739,1
DA:1743,1
DA:1744,1
DA:1745,1
DA:1746,1
DA:1747,1
DA:1748,1
DA:1749,1
DA:1751,1
DA:1752,1
DA:1753,1
DA:1769,7
DA:1770,7
DA:1771,7
DA:1772,7
DA:1773,7
DA:1774,7
DA:1775,7
DA:1776,7
DA:1777,7
DA:1778,7
DA:1780,7
DA:1781,7
DA:1782,7
DA:1783,7
DA:1784,7
DA:1785,7
DA:1786,7
DA:1787,7
DA:1788,7
DA:1789,7
DA:1791,7
DA:1792,7
DA:1793,7
DA:1794,7
DA:1795,7
DA:1796,7
DA:1797,7
DA:1798,7
DA:1799,7
DA:1800,7
DA:1801,7
DA:1803,7
DA:1804,7
DA:1805,7
DA:1806,7
DA:1807,7
DA:1808,7
DA:1809,7
DA:1813,1
DA:1814,1
DA:1815,1
DA:1818,1
DA:1819,1
DA:1820,1
DA:1821,1
DA:1822,1
DA:1823,1
DA:1824,1
DA:1825,1
DA:1826,1
DA:1827,1
DA:1828,1
DA:1829,1
DA:1830,1
DA:1831,1
DA:1832,1
DA:1833,1
DA:1836,1
DA:1837,1
DA:1838,1
DA:1839,1
DA:1841,1
DA:1842,1
DA:1843,1
DA:1846,1
DA:1849,1
DA:1850,1
DA:1853,1
DA:1854,1
DA:1855,1
DA:1856,1
DA:1857,1
DA:1858,1
DA:1859,1
DA:1860,1
DA:1861,1
DA:1862,1
DA:1863,1
DA:1864,1
DA:1865,1
DA:1866,1
DA:1867,1
DA:1868,1
DA:1869,1
DA:1870,1
DA:1871,1
DA:1875,1
DA:1876,1
DA:1877,1
DA:1878,1
DA:1879,1
DA:1882,1
DA:1883,1
DA:1884,1
DA:1885,1
DA:1888,1
DA:1889,1
DA:1890,1
DA:1892,1
DA:1895,1
DA:1896,1
DA:1897,1
DA:1898,1
DA:1899,1
DA:1902,1
DA:1903,1
DA:1904,1
DA:1905,1
DA:1908,1
DA:1911,1
DA:1912,1
DA:1915,1
DA:1916,1
DA:1917,1000
DA:1918,1000
DA:1919,1000
DA:1920,1000
DA:1921,1000
DA:1922,1
DA:1924,1
DA:1925,1
DA:1926,1
DA:1927,1
DA:1928,1
DA:1931,1
DA:1932,1
DA:1933,1
DA:1936,1
DA:1941,1
DA:1942,1
DA:1944,1
DA:1947,1
DA:1948,1
DA:1949,1
DA:1950,1
DA:1951,1
DA:1953,1
DA:1956,1
DA:1957,1
DA:1958,1
DA:1959,1
DA:1962,1
DA:1963,1
DA:1964,1
DA:1967,1
DA:1971,1
DA:1972,1
DA:1973,10
DA:1974,10
DA:1975,10
DA:1976,10
DA:1977,1
DA:1979,10
DA:1981,1
DA:1982,10
DA:1983,10
DA:1984,10
DA:1985,10
DA:1986,10
DA:1988,1
DA:1991,1
DA:1995,1
DA:1996,1
DA:1998,1
DA:1999,1
DA:2000,100
DA:2001,100
DA:2003,100
DA:2004,1
DA:2006,100
DA:2009,1
DA:2010,1
DA:2011,1
DA:2012,1
DA:2013,1
DA:2016,1
DA:2017,1
DA:2018,1
DA:2019,1
DA:2022,1
DA:2026,1
DA:2027,1
DA:2028,1
DA:2032,1
DA:2042,1
DA:2043,1
DA:2044,1
DA:2045,1
DA:2046,1
DA:2048,1
DA:2049,1
DA:2050,1
DA:2053,1
DA:2054,1
DA:2055,1
DA:2057,1
DA:2060,1
DA:2061,1
DA:2062,1
DA:2063,1
DA:2064,1
DA:2067,1
DA:2068,1
DA:2069,1
DA:2071,1
DA:2074,1
DA:2077,1
DA:2078,1
DA:2079,1
DA:2080,1
DA:2081,1
DA:2082,1
DA:2083,1
DA:2084,1
DA:2085,1
DA:2086,1
DA:2087,1
DA:2088,1
DA:2089,1
DA:2090,1
DA:2092,1
DA:2093,1
DA:2094,1
DA:2095,1
DA:2097,1
DA:2098,1
DA:2099,1
DA:2100,1
DA:2101,1
DA:2102,1
DA:2103,1
DA:2104,1
DA:2105,1
DA:2106,1
DA:2107,1
DA:2108,1
DA:2109,1
DA:2110,1
DA:2111,1
DA:2112,1
DA:2113,1
DA:2114,1
DA:2115,1
DA:2116,1
DA:2117,1
DA:2118,1
DA:2119,1
DA:2121,1
DA:2122,1
DA:2123,1
BRF:0
BRH:0
LF:1570
LH:1569
end_of_record
SF:C:\Users\pv2br\source\repos\AstraWeave-AI-Native-Gaming-Engine\astraweave-render\src\residency.rs
FN:54,_RNvMNtCs5u7LM5pVa0o_17astraweave_render9residencyNtB2_16ResidencyManager10load_asset
FN:96,_RNvMNtCs5u7LM5pVa0o_17astraweave_render9residencyNtB2_16ResidencyManager11touch_asset
FN:26,_RNvMNtCs5u7LM5pVa0o_17astraweave_render9residencyNtB2_16ResidencyManager3new
FN:108,_RNvMNtCs5u7LM5pVa0o_17astraweave_render9residencyNtB2_16ResidencyManager9evict_lru
FN:38,_RNvMNtCs5u7LM5pVa0o_17astraweave_render9residencyNtB2_16ResidencyManager15with_hot_reload
FN:125,_RNvMNtCs5u7LM5pVa0o_17astraweave_render9residencyNtB2_16ResidencyManager16check_hot_reload
FN:120,_RNvMNtCs5u7LM5pVa0o_17astraweave_render9residencyNtB2_16ResidencyManager17get_loaded_assets
FN:143,_RNvNtNtCs5u7LM5pVa0o_17astraweave_render9residency5testss_29test_residency_load_and_evict
FN:100,_RNCNvMNtCs5u7LM5pVa0o_17astraweave_render9residencyNtB4_16ResidencyManager11touch_asset0B6_
FNDA:2,_RNvMNtCs5u7LM5pVa0o_17astraweave_render9residencyNtB2_16ResidencyManager10load_asset
FNDA:1,_RNvMNtCs5u7LM5pVa0o_17astraweave_render9residencyNtB2_16ResidencyManager11touch_asset
FNDA:1,_RNvMNtCs5u7LM5pVa0o_17astraweave_render9residencyNtB2_16ResidencyManager3new
FNDA:1,_RNvMNtCs5u7LM5pVa0o_17astraweave_render9residencyNtB2_16ResidencyManager9evict_lru
FNDA:0,_RNvMNtCs5u7LM5pVa0o_17astraweave_render9residencyNtB2_16ResidencyManager15with_hot_reload
FNDA:0,_RNvMNtCs5u7LM5pVa0o_17astraweave_render9residencyNtB2_16ResidencyManager16check_hot_reload
FNDA:0,_RNvMNtCs5u7LM5pVa0o_17astraweave_render9residencyNtB2_16ResidencyManager17get_loaded_assets
FNDA:1,_RNvNtNtCs5u7LM5pVa0o_17astraweave_render9residency5testss_29test_residency_load_and_evict
FNDA:1,_RNCNvMNtCs5u7LM5pVa0o_17astraweave_render9residencyNtB4_16ResidencyManager11touch_asset0B6_
FNF:9
FNH:6
DA:26,1
DA:27,1
DA:28,1
DA:29,1
DA:30,1
DA:31,1
DA:32,1
DA:33,1
DA:34,1
DA:35,1
DA:36,1
DA:38,0
DA:39,0
DA:40,0
DA:41,0
DA:42,0
DA:43,0
DA:44,0
DA:45,0
DA:46,0
DA:47,0
DA:48,0
DA:49,0
DA:50,0
DA:51,0
DA:54,2
DA:55,2
DA:57,0
DA:58,0
DA:59,2
DA:62,2
DA:63,2
DA:64,2
DA:65,2
DA:66,2
DA:67,2
DA:68,2
DA:69,2
DA:71,0
DA:76,3
DA:77,1
DA:81,2
DA:82,2
DA:83,2
DA:84,2
DA:85,2
DA:86,2
DA:88,2
DA:89,2
DA:90,2
DA:92,2
DA:93,2
DA:96,1
DA:97,1
DA:98,1
DA:100,1
DA:101,1
DA:102,1
DA:103,1
DA:104,0
DA:105,1
DA:108,1
DA:109,1
DA:110,1
DA:111,1
DA:112,1
DA:113,1
DA:114,1
DA:115,0
DA:116,1
DA:117,1
DA:120,0
DA:121,0
DA:122,0
DA:125,0
DA:126,0
DA:127,0
DA:128,0
DA:129,0
DA:130,0
DA:131,0
DA:132,0
DA:133,0
DA:134,0
DA:143,1
DA:144,1
DA:145,1
DA:148,1
DA:149,1
DA:150,1
DA:151,1
DA:152,1
DA:153,1
DA:154,1
DA:155,1
DA:156,1
DA:157,1
DA:158,1
DA:159,1
DA:160,1
DA:161,1
DA:162,1
DA:163,1
DA:166,1
DA:167,1
DA:168,1
DA:171,1
DA:174,1
DA:175,1
DA:176,1
DA:177,1
DA:178,1
DA:179,1
DA:180,1
DA:181,1
DA:182,1
DA:183,1
DA:184,1
DA:185,1
DA:186,1
DA:187,1
DA:188,1
DA:189,1
DA:191,1
DA:193,1
DA:194,1
DA:195,1
DA:196,1
BRF:0
BRH:0
LF:129
LH:97
end_of_record
SF:C:\Users\pv2br\source\repos\AstraWeave-AI-Native-Gaming-Engine\astraweave-render\src\terrain.rs
FN:192,_RNCNvMNtCs5u7LM5pVa0o_17astraweave_render7terrainNtB4_15TerrainRenderer27create_vegetation_instances0B6_
FN:226,_RNvMNtCs5u7LM5pVa0o_17astraweave_render7terrainNtB2_15TerrainRenderer15world_generator
FN:166,_RNvMNtCs5u7LM5pVa0o_17astraweave_render7terrainNtB2_15TerrainRenderer18create_gpu_buffers
FN:231,_RNvMNtCs5u7LM5pVa0o_17astraweave_render7terrainNtB2_15TerrainRenderer19world_generator_mut
FN:63,_RNvMNtCs5u7LM5pVa0o_17astraweave_render7terrainNtB2_15TerrainRenderer23generate_chunk_complete
FN:186,_RNvMNtCs5u7LM5pVa0o_17astraweave_render7terrainNtB2_15TerrainRenderer27create_vegetation_instances
FN:283,_RNvNtNtCs5u7LM5pVa0o_17astraweave_render7terrain5testss_20test_mesh_generation
FN:316,_RNvNtNtCs5u7LM5pVa0o_17astraweave_render7terrain5testss_20test_terrain_preview
FN:327,_RNvNtNtCs5u7LM5pVa0o_17astraweave_render7terrain5testss_24test_biome_id_conversion
FN:298,_RNvNtNtCs5u7LM5pVa0o_17astraweave_render7terrain5testss_25test_chunk_radius_loading
FN:276,_RNvNtNtCs5u7LM5pVa0o_17astraweave_render7terrain5testss_30test_terrain_renderer_creation
FN:343,_RNvNtNtCs5u7LM5pVa0o_17astraweave_render7terrain5testss_31test_vegetation_type_conversion
FN:128,_RNvMNtCs5u7LM5pVa0o_17astraweave_render7terrainNtB2_15TerrainRenderer11biome_to_id
FN:161,_RNvMNtCs5u7LM5pVa0o_17astraweave_render7terrainNtB2_15TerrainRenderer15get_loaded_mesh
FN:73,_RNvMNtCs5u7LM5pVa0o_17astraweave_render7terrainNtB2_15TerrainRenderer19create_terrain_mesh
FN:142,_RNvMNtCs5u7LM5pVa0o_17astraweave_render7terrainNtB2_15TerrainRenderer20get_chunks_in_radius
FN:207,_RNvMNtCs5u7LM5pVa0o_17astraweave_render7terrainNtB2_15TerrainRenderer21vegetation_type_to_id
FN:46,_RNvMNtCs5u7LM5pVa0o_17astraweave_render7terrainNtB2_15TerrainRenderer26get_or_generate_chunk_mesh
FN:34,_RNvMNtCs5u7LM5pVa0o_17astraweave_render7terrainNtB2_15TerrainRenderer3new
FN:245,_RNvNtCs5u7LM5pVa0o_17astraweave_render7terrain24generate_terrain_preview
FNDA:0,_RNCNvMNtCs5u7LM5pVa0o_17astraweave_render7terrainNtB4_15TerrainRenderer27create_vegetation_instances0B6_
FNDA:0,_RNvMNtCs5u7LM5pVa0o_17astraweave_render7terrainNtB2_15TerrainRenderer15world_generator
FNDA:0,_RNvMNtCs5u7LM5pVa0o_17astraweave_render7terrainNtB2_15TerrainRenderer18create_gpu_buffers
FNDA:0,_RNvMNtCs5u7LM5pVa0o_17astraweave_render7terrainNtB2_15TerrainRenderer19world_generator_mut
FNDA:0,_RNvMNtCs5u7LM5pVa0o_17astraweave_render7terrainNtB2_15TerrainRenderer23generate_chunk_complete
FNDA:0,_RNvMNtCs5u7LM5pVa0o_17astraweave_render7terrainNtB2_15TerrainRenderer27create_vegetation_instances
FNDA:1,_RNvNtNtCs5u7LM5pVa0o_17astraweave_render7terrain5testss_20test_mesh_generation
FNDA:1,_RNvNtNtCs5u7LM5pVa0o_17astraweave_render7terrain5testss_20test_terrain_preview
FNDA:1,_RNvNtNtCs5u7LM5pVa0o_17astraweave_render7terrain5testss_24test_biome_id_conversion
FNDA:1,_RNvNtNtCs5u7LM5pVa0o_17astraweave_render7terrain5testss_25test_chunk_radius_loading
FNDA:1,_RNvNtNtCs5u7LM5pVa0o_17astraweave_render7terrain5testss_30test_terrain_renderer_creation
FNDA:1,_RNvNtNtCs5u7LM5pVa0o_17astraweave_render7terrain5testss_31test_vegetation_type_conversion
FNDA:163843,_RNvMNtCs5u7LM5pVa0o_17astraweave_render7terrainNtB2_15TerrainRenderer11biome_to_id
FNDA:9,_RNvMNtCs5u7LM5pVa0o_17astraweave_render7terrainNtB2_15TerrainRenderer15get_loaded_mesh
FNDA:10,_RNvMNtCs5u7LM5pVa0o_17astraweave_render7terrainNtB2_15TerrainRenderer19create_terrain_mesh
FNDA:1,_RNvMNtCs5u7LM5pVa0o_17astraweave_render7terrainNtB2_15TerrainRenderer20get_chunks_in_radius
FNDA:3,_RNvMNtCs5u7LM5pVa0o_17astraweave_render7terrainNtB2_15TerrainRenderer21vegetation_type_to_id
FNDA:10,_RNvMNtCs5u7LM5pVa0o_17astraweave_render7terrainNtB2_15TerrainRenderer26get_or_generate_chunk_mesh
FNDA:3,_RNvMNtCs5u7LM5pVa0o_17astraweave_render7terrainNtB2_15TerrainRenderer3new
FNDA:1,_RNvNtCs5u7LM5pVa0o_17astraweave_render7terrain24generate_terrain_preview
FNF:20
FNH:14
DA:34,3
DA:35,3
DA:36,3
DA:38,3
DA:39,3
DA:40,3
DA:41,3
DA:42,3
DA:43,3
DA:46,10
DA:47,10
DA:48,10
DA:49,10
DA:50,10
DA:51,10
DA:52,10
DA:53,10
DA:54,0
DA:56,10
DA:57,10
DA:58,10
DA:59,10
DA:60,10
DA:63,0
DA:64,0
DA:65,0
DA:66,0
DA:67,0
DA:68,0
DA:69,0
DA:70,0
DA:73,10
DA:74,10
DA:75,10
DA:76,10
DA:78,10
DA:79,10
DA:82,1280
DA:83,163840
DA:84,163840
DA:85,163840
DA:86,163840
DA:87,163840
DA:88,163840
DA:89,163840
DA:90,163840
DA:91,163840
DA:92,163840
DA:93,163840
DA:94,163840
DA:95,163840
DA:96,163840
DA:97,163840
DA:98,163840
DA:99,163840
DA:100,163840
DA:101,163840
DA:102,163840
DA:103,163840
DA:104,163840
DA:105,163840
DA:106,163840
DA:107,163840
DA:108,163840
DA:109,163840
DA:110,163840
DA:111,163840
DA:112,163840
DA:113,163840
DA:114,163840
DA:118,10
DA:120,10
DA:121,10
DA:122,10
DA:123,10
DA:124,10
DA:125,10
DA:128,163843
DA:129,163843
DA:130,75560
DA:131,11916
DA:132,52089
DA:133,24278
DA:134,0
DA:135,0
DA:136,0
DA:137,0
DA:139,163843
DA:142,1
DA:143,1
DA:144,1
DA:145,1
DA:146,1
DA:147,1
DA:148,1
DA:151,10
DA:152,9
DA:153,9
DA:154,0
DA:157,1
DA:158,1
DA:161,9
DA:162,9
DA:163,9
DA:166,0
DA:167,0
DA:168,0
DA:169,0
DA:170,0
DA:171,0
DA:172,0
DA:173,0
DA:174,0
DA:176,0
DA:177,0
DA:178,0
DA:179,0
DA:180,0
DA:182,0
DA:183,0
DA:186,0
DA:187,0
DA:188,0
DA:189,0
DA:190,0
DA:191,0
DA:192,0
DA:193,0
DA:194,0
DA:195,0
DA:196,0
DA:198,0
DA:199,0
DA:200,0
DA:201,0
DA:202,0
DA:203,0
DA:204,0
DA:207,3
DA:208,3
DA:209,3
DA:210,2
DA:211,1
DA:212,1
DA:213,1
DA:214,1
DA:215,1
DA:216,1
DA:217,1
DA:218,1
DA:219,1
DA:220,1
DA:221,1
DA:223,3
DA:226,0
DA:227,0
DA:228,0
DA:231,0
DA:232,0
DA:233,0
DA:245,1
DA:246,1
DA:247,1
DA:248,1
DA:249,1
DA:250,1
DA:251,1
DA:252,1
DA:254,1
DA:255,1
DA:257,1
DA:258,32
DA:259,1024
DA:260,1024
DA:261,1024
DA:262,1024
DA:263,1024
DA:264,1024
DA:267,1
DA:268,1
DA:276,1
DA:277,1
DA:278,1
DA:279,1
DA:280,1
DA:283,1
DA:284,1
DA:285,1
DA:287,1
DA:288,1
DA:290,1
DA:291,1
DA:292,1
DA:294,1
DA:295,1
DA:298,1
DA:299,1
DA:300,1
DA:302,1
DA:303,1
DA:305,1
DA:308,10
DA:309,9
DA:312,1
DA:313,1
DA:316,1
DA:317,1
DA:318,1
DA:320,1
DA:321,1
DA:323,1
DA:324,1
DA:327,1
DA:328,1
DA:329,1
DA:332,1
DA:333,1
DA:336,1
DA:337,1
DA:340,1
DA:343,1
DA:344,1
DA:345,1
DA:346,1
DA:347,1
BRF:0
BRH:0
LF:226
LH:171
end_of_record
SF:C:\Users\pv2br\source\repos\AstraWeave-AI-Native-Gaming-Engine\astraweave-render\src\terrain_material.rs
FN:590,_RNCNvNtNtCs5u7LM5pVa0o_17astraweave_render16terrain_material5testss_22test_to_gpu_conversion0B7_
FN:549,_RNvNtNtCs5u7LM5pVa0o_17astraweave_render16terrain_material5testss_19test_desert_factory
FN:558,_RNvNtNtCs5u7LM5pVa0o_17astraweave_render16terrain_material5testss_19test_forest_factory
FN:538,_RNvNtNtCs5u7LM5pVa0o_17astraweave_render16terrain_material5testss_22test_grassland_factory
FN:584,_RNvNtNtCs5u7LM5pVa0o_17astraweave_render16terrain_material5testss_22test_to_gpu_conversion
FN:507,_RNvNtNtCs5u7LM5pVa0o_17astraweave_render16terrain_material5testss_23test_terrain_layer_size
FN:567,_RNvNtNtCs5u7LM5pVa0o_17astraweave_render16terrain_material5testss_25test_normal_blend_parsing
FN:521,_RNvNtNtCs5u7LM5pVa0o_17astraweave_render16terrain_material5testss_26test_default_terrain_layer
FN:514,_RNvNtNtCs5u7LM5pVa0o_17astraweave_render16terrain_material5testss_26test_terrain_material_size
FN:529,_RNvNtNtCs5u7LM5pVa0o_17astraweave_render16terrain_material5testss_29test_default_terrain_material
FN:611,_RNvNtNtCs5u7LM5pVa0o_17astraweave_render16terrain_material5testss_31test_pod_zeroable_terrain_layer
FN:619,_RNvNtNtCs5u7LM5pVa0o_17astraweave_render16terrain_material5testss_34test_pod_zeroable_terrain_material
FN:134,_RNvNtCs5u7LM5pVa0o_17astraweave_render16terrain_material16default_uv_scale
FN:146,_RNvNtCs5u7LM5pVa0o_17astraweave_render16terrain_material17default_roughness
FN:138,_RNvNtCs5u7LM5pVa0o_17astraweave_render16terrain_material23default_blend_sharpness
FN:142,_RNvNtCs5u7LM5pVa0o_17astraweave_render16terrain_material23default_triplanar_power
FN:151,_RNvXs0_NtCs5u7LM5pVa0o_17astraweave_render16terrain_materialNtB5_16TerrainLayerDescNtNtCsixiwFwjEgS7_4core7default7Default7default
FN:445,_RNvMs2_NtCs5u7LM5pVa0o_17astraweave_render16terrain_materialNtB5_19TerrainMaterialDesc19normal_blend_to_gpu
FN:309,_RNvMs2_NtCs5u7LM5pVa0o_17astraweave_render16terrain_materialNtB5_19TerrainMaterialDesc6desert
FN:377,_RNvMs2_NtCs5u7LM5pVa0o_17astraweave_render16terrain_materialNtB5_19TerrainMaterialDesc6forest
FN:455,_RNvMs2_NtCs5u7LM5pVa0o_17astraweave_render16terrain_materialNtB5_19TerrainMaterialDesc6to_gpu
FN:241,_RNvMs2_NtCs5u7LM5pVa0o_17astraweave_render16terrain_materialNtB5_19TerrainMaterialDesc9grassland
FN:203,_RNvNtCs5u7LM5pVa0o_17astraweave_render16terrain_material19default_splat_scale
FN:219,_RNvNtCs5u7LM5pVa0o_17astraweave_render16terrain_material20default_height_blend
FN:215,_RNvNtCs5u7LM5pVa0o_17astraweave_render16terrain_material20default_normal_blend
FN:207,_RNvNtCs5u7LM5pVa0o_17astraweave_render16terrain_material25default_triplanar_enabled
FN:211,_RNvNtCs5u7LM5pVa0o_17astraweave_render16terrain_material27default_triplanar_threshold
FN:39,_RNvXNtCs5u7LM5pVa0o_17astraweave_render16terrain_materialNtB2_15TerrainLayerGpuNtNtCsixiwFwjEgS7_4core7default7Default7default
FN:224,_RNvXs1_NtCs5u7LM5pVa0o_17astraweave_render16terrain_materialNtB5_19TerrainMaterialDescNtNtCsixiwFwjEgS7_4core7default7Default7default
FN:84,_RNvXs_NtCs5u7LM5pVa0o_17astraweave_render16terrain_materialNtB4_18TerrainMaterialGpuNtNtCsixiwFwjEgS7_4core7default7Default7default
FNDA:17,_RNCNvNtNtCs5u7LM5pVa0o_17astraweave_render16terrain_material5testss_22test_to_gpu_conversion0B7_
FNDA:1,_RNvNtNtCs5u7LM5pVa0o_17astraweave_render16terrain_material5testss_19test_desert_factory
FNDA:1,_RNvNtNtCs5u7LM5pVa0o_17astraweave_render16terrain_material5testss_19test_forest_factory
FNDA:1,_RNvNtNtCs5u7LM5pVa0o_17astraweave_render16terrain_material5testss_22test_grassland_factory
FNDA:1,_RNvNtNtCs5u7LM5pVa0o_17astraweave_render16terrain_material5testss_22test_to_gpu_conversion
FNDA:1,_RNvNtNtCs5u7LM5pVa0o_17astraweave_render16terrain_material5testss_23test_terrain_layer_size
FNDA:1,_RNvNtNtCs5u7LM5pVa0o_17astraweave_render16terrain_material5testss_25test_normal_blend_parsing
FNDA:1,_RNvNtNtCs5u7LM5pVa0o_17astraweave_render16terrain_material5testss_26test_default_terrain_layer
FNDA:1,_RNvNtNtCs5u7LM5pVa0o_17astraweave_render16terrain_material5testss_26test_terrain_material_size
FNDA:1,_RNvNtNtCs5u7LM5pVa0o_17astraweave_render16terrain_material5testss_29test_default_terrain_material
FNDA:1,_RNvNtNtCs5u7LM5pVa0o_17astraweave_render16terrain_material5testss_31test_pod_zeroable_terrain_layer
FNDA:1,_RNvNtNtCs5u7LM5pVa0o_17astraweave_render16terrain_material5testss_34test_pod_zeroable_terrain_material
FNDA:0,_RNvNtCs5u7LM5pVa0o_17astraweave_render16terrain_material16default_uv_scale
FNDA:0,_RNvNtCs5u7LM5pVa0o_17astraweave_render16terrain_material17default_roughness
FNDA:0,_RNvNtCs5u7LM5pVa0o_17astraweave_render16terrain_material23default_blend_sharpness
FNDA:0,_RNvNtCs5u7LM5pVa0o_17astraweave_render16terrain_material23default_triplanar_power
FNDA:0,_RNvXs0_NtCs5u7LM5pVa0o_17astraweave_render16terrain_materialNtB5_16TerrainLayerDescNtNtCsixiwFwjEgS7_4core7default7Default7default
FNDA:5,_RNvMs2_NtCs5u7LM5pVa0o_17astraweave_render16terrain_materialNtB5_19TerrainMaterialDesc19normal_blend_to_gpu
FNDA:1,_RNvMs2_NtCs5u7LM5pVa0o_17astraweave_render16terrain_materialNtB5_19TerrainMaterialDesc6desert
FNDA:1,_RNvMs2_NtCs5u7LM5pVa0o_17astraweave_render16terrain_materialNtB5_19TerrainMaterialDesc6forest
FNDA:1,_RNvMs2_NtCs5u7LM5pVa0o_17astraweave_render16terrain_materialNtB5_19TerrainMaterialDesc6to_gpu
FNDA:2,_RNvMs2_NtCs5u7LM5pVa0o_17astraweave_render16terrain_materialNtB5_19TerrainMaterialDesc9grassland
FNDA:1,_RNvNtCs5u7LM5pVa0o_17astraweave_render16terrain_material19default_splat_scale
FNDA:1,_RNvNtCs5u7LM5pVa0o_17astraweave_render16terrain_material20default_height_blend
FNDA:1,_RNvNtCs5u7LM5pVa0o_17astraweave_render16terrain_material20default_normal_blend
FNDA:1,_RNvNtCs5u7LM5pVa0o_17astraweave_render16terrain_material25default_triplanar_enabled
FNDA:1,_RNvNtCs5u7LM5pVa0o_17astraweave_render16terrain_material27default_triplanar_threshold
FNDA:3,_RNvXNtCs5u7LM5pVa0o_17astraweave_render16terrain_materialNtB2_15TerrainLayerGpuNtNtCsixiwFwjEgS7_4core7default7Default7default
FNDA:1,_RNvXs1_NtCs5u7LM5pVa0o_17astraweave_render16terrain_materialNtB5_19TerrainMaterialDescNtNtCsixiwFwjEgS7_4core7default7Default7default
FNDA:2,_RNvXs_NtCs5u7LM5pVa0o_17astraweave_render16terrain_materialNtB4_18TerrainMaterialGpuNtNtCsixiwFwjEgS7_4core7default7Default7default
FNF:30
FNH:25
DA:39,3
DA:40,3
DA:41,3
DA:42,3
DA:43,3
DA:44,3
DA:45,3
DA:46,3
DA:47,3
DA:48,3
DA:49,3
DA:84,2
DA:85,2
DA:86,2
DA:87,2
DA:88,2
DA:89,2
DA:90,2
DA:91,2
DA:92,2
DA:93,2
DA:94,2
DA:95,2
DA:134,0
DA:135,0
DA:136,0
DA:138,0
DA:139,0
DA:140,0
DA:142,0
DA:143,0
DA:144,0
DA:146,0
DA:147,0
DA:148,0
DA:151,0
DA:152,0
DA:153,0
DA:154,0
DA:155,0
DA:156,0
DA:157,0
DA:158,0
DA:159,0
DA:160,0
DA:161,0
DA:162,0
DA:163,0
DA:164,0
DA:165,0
DA:203,1
DA:204,1
DA:205,1
DA:207,1
DA:208,1
DA:209,1
DA:211,1
DA:212,1
DA:213,1
DA:215,1
DA:216,1
DA:217,1
DA:219,1
DA:220,1
DA:221,1
DA:224,1
DA:225,1
DA:226,1
DA:227,1
DA:228,1
DA:229,1
DA:230,1
DA:231,1
DA:232,1
DA:233,1
DA:234,1
DA:235,1
DA:236,1
DA:241,2
DA:242,2
DA:243,2
DA:244,2
DA:245,2
DA:246,2
DA:247,2
DA:248,2
DA:249,2
DA:250,2
DA:251,2
DA:252,2
DA:253,2
DA:254,2
DA:255,2
DA:256,2
DA:257,2
DA:258,2
DA:259,2
DA:260,2
DA:261,2
DA:262,2
DA:263,2
DA:264,2
DA:265,2
DA:266,2
DA:267,2
DA:268,2
DA:269,2
DA:270,2
DA:271,2
DA:272,2
DA:273,2
DA:274,2
DA:275,2
DA:276,2
DA:277,2
DA:278,2
DA:279,2
DA:280,2
DA:281,2
DA:282,2
DA:283,2
DA:284,2
DA:285,2
DA:286,2
DA:287,2
DA:288,2
DA:289,2
DA:290,2
DA:291,2
DA:292,2
DA:293,2
DA:294,2
DA:295,2
DA:296,2
DA:297,2
DA:298,2
DA:299,2
DA:300,2
DA:301,2
DA:302,2
DA:303,2
DA:304,2
DA:305,2
DA:306,2
DA:309,1
DA:310,1
DA:311,1
DA:312,1
DA:313,1
DA:314,1
DA:315,1
DA:316,1
DA:317,1
DA:318,1
DA:319,1
DA:320,1
DA:321,1
DA:322,1
DA:323,1
DA:324,1
DA:325,1
DA:326,1
DA:327,1
DA:328,1
DA:329,1
DA:330,1
DA:331,1
DA:332,1
DA:333,1
DA:334,1
DA:335,1
DA:336,1
DA:337,1
DA:338,1
DA:339,1
DA:340,1
DA:341,1
DA:342,1
DA:343,1
DA:344,1
DA:345,1
DA:346,1
DA:347,1
DA:348,1
DA:349,1
DA:350,1
DA:351,1
DA:352,1
DA:353,1
DA:354,1
DA:355,1
DA:356,1
DA:357,1
DA:358,1
DA:359,1
DA:360,1
DA:361,1
DA:362,1
DA:363,1
DA:364,1
DA:365,1
DA:366,1
DA:367,1
DA:368,1
DA:369,1
DA:370,1
DA:371,1
DA:372,1
DA:373,1
DA:374,1
DA:377,1
DA:378,1
DA:379,1
DA:380,1
DA:381,1
DA:382,1
DA:383,1
DA:384,1
DA:385,1
DA:386,1
DA:387,1
DA:388,1
DA:389,1
DA:390,1
DA:391,1
DA:392,1
DA:393,1
DA:394,1
DA:395,1
DA:396,1
DA:397,1
DA:398,1
DA:399,1
DA:400,1
DA:401,1
DA:402,1
DA:403,1
DA:404,1
DA:405,1
DA:406,1
DA:407,1
DA:408,1
DA:409,1
DA:410,1
DA:411,1
DA:412,1
DA:413,1
DA:414,1
DA:415,1
DA:416,1
DA:417,1
DA:418,1
DA:419,1
DA:420,1
DA:421,1
DA:422,1
DA:423,1
DA:424,1
DA:425,1
DA:426,1
DA:427,1
DA:428,1
DA:429,1
DA:430,1
DA:431,1
DA:432,1
DA:433,1
DA:434,1
DA:435,1
DA:436,1
DA:437,1
DA:438,1
DA:439,1
DA:440,1
DA:441,1
DA:442,1
DA:445,5
DA:446,5
DA:447,5
DA:448,4
DA:449,2
DA:450,1
DA:452,5
DA:455,1
DA:456,1
DA:459,1
DA:460,1
DA:461,1
DA:463,1
DA:464,1
DA:465,1
DA:466,1
DA:467,1
DA:470,4
DA:471,4
DA:474,4
DA:475,4
DA:476,4
DA:477,4
DA:478,4
DA:479,4
DA:480,4
DA:481,4
DA:482,4
DA:483,4
DA:484,4
DA:485,4
DA:487,4
DA:489,4
DA:490,4
DA:491,4
DA:493,4
DA:494,4
DA:495,4
DA:498,1
DA:499,1
DA:507,1
DA:509,1
DA:510,1
DA:511,1
DA:514,1
DA:516,1
DA:517,1
DA:518,1
DA:521,1
DA:522,1
DA:523,1
DA:524,1
DA:525,1
DA:526,1
DA:529,1
DA:530,1
DA:531,1
DA:532,1
DA:533,1
DA:534,1
DA:535,1
DA:538,1
DA:539,1
DA:540,1
DA:541,1
DA:542,1
DA:543,1
DA:544,1
DA:545,1
DA:546,1
DA:549,1
DA:550,1
DA:551,1
DA:552,1
DA:553,1
DA:554,1
DA:555,1
DA:558,1
DA:559,1
DA:560,1
DA:561,1
DA:562,1
DA:563,1
DA:564,1
DA:567,1
DA:568,1
DA:570,1
DA:571,1
DA:573,1
DA:574,1
DA:576,1
DA:577,1
DA:579,1
DA:580,1
DA:581,1
DA:584,1
DA:585,1
DA:589,1
DA:590,17
DA:591,17
DA:592,17
DA:593,17
DA:594,17
DA:596,1
DA:599,1
DA:600,1
DA:601,1
DA:602,1
DA:605,1
DA:606,1
DA:607,1
DA:608,1
DA:611,1
DA:613,1
DA:614,1
DA:615,1
DA:616,1
DA:619,1
DA:621,1
DA:622,1
DA:623,1
DA:624,1
BRF:0
BRH:0
LF:399
LH:372
end_of_record
SF:C:\Users\pv2br\source\repos\AstraWeave-AI-Native-Gaming-Engine\astraweave-render\src\texture.rs
FN:243,_RNCNvNtNtCs5u7LM5pVa0o_17astraweave_render7texture5tests18create_test_device0B7_
FN:274,_RNCNvNtNtCs5u7LM5pVa0o_17astraweave_render7texture5testss_25test_create_default_white0B7_
FN:290,_RNCNvNtNtCs5u7LM5pVa0o_17astraweave_render7texture5testss_26test_create_default_normal0B7_
FN:306,_RNCNvNtNtCs5u7LM5pVa0o_17astraweave_render7texture5testss_38test_white_and_normal_different_labels0B7_
FN:15,_RNvMNtCs5u7LM5pVa0o_17astraweave_render7textureNtB2_7Texture20create_default_white
FN:66,_RNvMNtCs5u7LM5pVa0o_17astraweave_render7textureNtB2_7Texture21create_default_normal
FN:243,_RNvNtNtCs5u7LM5pVa0o_17astraweave_render7texture5tests18create_test_device
FN:273,_RNvNtNtCs5u7LM5pVa0o_17astraweave_render7texture5testss_25test_create_default_white
FN:289,_RNvNtNtCs5u7LM5pVa0o_17astraweave_render7texture5testss_26test_create_default_normal
FN:305,_RNvNtNtCs5u7LM5pVa0o_17astraweave_render7texture5testss_38test_white_and_normal_different_labels
FNDA:3,_RNCNvNtNtCs5u7LM5pVa0o_17astraweave_render7texture5tests18create_test_device0B7_
FNDA:1,_RNCNvNtNtCs5u7LM5pVa0o_17astraweave_render7texture5testss_25test_create_default_white0B7_
FNDA:1,_RNCNvNtNtCs5u7LM5pVa0o_17astraweave_render7texture5testss_26test_create_default_normal0B7_
FNDA:1,_RNCNvNtNtCs5u7LM5pVa0o_17astraweave_render7texture5testss_38test_white_and_normal_different_labels0B7_
FNDA:2,_RNvMNtCs5u7LM5pVa0o_17astraweave_render7textureNtB2_7Texture20create_default_white
FNDA:2,_RNvMNtCs5u7LM5pVa0o_17astraweave_render7textureNtB2_7Texture21create_default_normal
FNDA:3,_RNvNtNtCs5u7LM5pVa0o_17astraweave_render7texture5tests18create_test_device
FNDA:1,_RNvNtNtCs5u7LM5pVa0o_17astraweave_render7texture5testss_25test_create_default_white
FNDA:1,_RNvNtNtCs5u7LM5pVa0o_17astraweave_render7texture5testss_26test_create_default_normal
FNDA:1,_RNvNtNtCs5u7LM5pVa0o_17astraweave_render7texture5testss_38test_white_and_normal_different_labels
FNF:10
FNH:10
DA:15,2
DA:16,2
DA:17,2
DA:18,2
DA:19,2
DA:20,2
DA:21,2
DA:22,2
DA:23,2
DA:24,2
DA:25,2
DA:26,2
DA:27,2
DA:28,2
DA:29,2
DA:30,2
DA:31,2
DA:32,2
DA:33,2
DA:35,2
DA:36,2
DA:37,2
DA:38,2
DA:39,2
DA:40,2
DA:41,2
DA:42,2
DA:43,2
DA:44,2
DA:45,2
DA:46,2
DA:47,2
DA:48,2
DA:49,2
DA:50,2
DA:51,2
DA:52,2
DA:55,2
DA:56,2
DA:58,2
DA:59,2
DA:60,2
DA:61,2
DA:62,2
DA:63,2
DA:66,2
DA:67,2
DA:68,2
DA:69,2
DA:70,2
DA:71,2
DA:72,2
DA:73,2
DA:74,2
DA:75,2
DA:76,2
DA:77,2
DA:78,2
DA:79,2
DA:80,2
DA:81,2
DA:82,2
DA:83,2
DA:84,2
DA:86,2
DA:87,2
DA:88,2
DA:89,2
DA:90,2
DA:91,2
DA:92,2
DA:93,2
DA:94,2
DA:95,2
DA:96,2
DA:97,2
DA:98,2
DA:99,2
DA:100,2
DA:101,2
DA:102,2
DA:103,2
DA:106,2
DA:107,2
DA:109,2
DA:110,2
DA:111,2
DA:112,2
DA:113,2
DA:114,2
DA:243,3
DA:244,3
DA:245,3
DA:246,3
DA:247,3
DA:249,3
DA:250,3
DA:251,3
DA:252,3
DA:253,3
DA:254,3
DA:255,3
DA:256,3
DA:258,3
DA:259,3
DA:260,3
DA:261,3
DA:262,3
DA:263,3
DA:264,3
DA:265,3
DA:266,3
DA:267,3
DA:268,3
DA:269,3
DA:270,3
DA:273,1
DA:274,1
DA:275,1
DA:276,1
DA:278,1
DA:279,1
DA:282,1
DA:283,1
DA:284,1
DA:285,1
DA:286,1
DA:289,1
DA:290,1
DA:291,1
DA:292,1
DA:294,1
DA:295,1
DA:298,1
DA:299,1
DA:300,1
DA:301,1
DA:302,1
DA:305,1
DA:306,1
DA:307,1
DA:309,1
DA:310,1
DA:313,1
DA:314,1
DA:315,1
DA:316,1
BRF:0
BRH:0
LF:151
LH:151
end_of_record
SF:C:\Users\pv2br\source\repos\AstraWeave-AI-Native-Gaming-Engine\astraweave-render\src\types.rs
FN:393,_RNvNtNtCs5u7LM5pVa0o_17astraweave_render5types5testss_19test_material_clone
FN:374,_RNvNtNtCs5u7LM5pVa0o_17astraweave_render5types5testss_22test_vertex_pod_traits
FN:402,_RNvNtNtCs5u7LM5pVa0o_17astraweave_render5types5testss_23test_cluster_dims_debug
FN:284,_RNvNtNtCs5u7LM5pVa0o_17astraweave_render5types5testss_25test_vertex_layout_stride
FN:424,_RNvNtNtCs5u7LM5pVa0o_17astraweave_render5types5testss_27test_cluster_index_clamping
FN:350,_RNvNtNtCs5u7LM5pVa0o_17astraweave_render5types5testss_28test_instance_raw_conversion
FN:387,_RNvNtNtCs5u7LM5pVa0o_17astraweave_render5types5testss_28test_instance_raw_pod_traits
FN:272,_RNvNtNtCs5u7LM5pVa0o_17astraweave_render5types5testss_29test_vertex_layout_attributes
FN:381,_RNvNtNtCs5u7LM5pVa0o_17astraweave_render5types5testss_30test_skinned_vertex_pod_traits
FN:322,_RNvNtNtCs5u7LM5pVa0o_17astraweave_render5types5testss_31test_instance_raw_layout_stride
FN:305,_RNvNtNtCs5u7LM5pVa0o_17astraweave_render5types5testss_33test_skinned_vertex_layout_stride
FN:330,_RNvNtNtCs5u7LM5pVa0o_17astraweave_render5types5testss_34test_instance_from_pos_scale_color
FN:314,_RNvNtNtCs5u7LM5pVa0o_17astraweave_render5types5testss_35test_instance_raw_layout_attributes
FN:411,_RNvNtNtCs5u7LM5pVa0o_17astraweave_render5types5testss_36test_cluster_index_depth_progression
FN:292,_RNvNtNtCs5u7LM5pVa0o_17astraweave_render5types5testss_37test_skinned_vertex_layout_attributes
FN:14,_RNvMNtCs5u7LM5pVa0o_17astraweave_render5typesNtB2_6Vertex6layout
FN:112,_RNvMs0_NtCs5u7LM5pVa0o_17astraweave_render5typesNtB5_11InstanceRaw6layout
FN:208,_RNvMs1_NtCs5u7LM5pVa0o_17astraweave_render5typesNtB5_8Instance20from_pos_scale_color
FN:192,_RNvMs1_NtCs5u7LM5pVa0o_17astraweave_render5typesNtB5_8Instance3raw
FN:60,_RNvMs_NtCs5u7LM5pVa0o_17astraweave_render5typesNtB4_13SkinnedVertex6layout
FN:231,_RNvNtCs5u7LM5pVa0o_17astraweave_render5types13cluster_index
FN:253,_RNvNtNtCs5u7LM5pVa0o_17astraweave_render5types13tests_clusters_18bins_within_bounds
FN:259,_RNvNtNtCs5u7LM5pVa0o_17astraweave_render5types13tests_clusters_20corners_map_to_edges
FNDA:1,_RNvNtNtCs5u7LM5pVa0o_17astraweave_render5types5testss_19test_material_clone
FNDA:1,_RNvNtNtCs5u7LM5pVa0o_17astraweave_render5types5testss_22test_vertex_pod_traits
FNDA:1,_RNvNtNtCs5u7LM5pVa0o_17astraweave_render5types5testss_23test_cluster_dims_debug
FNDA:1,_RNvNtNtCs5u7LM5pVa0o_17astraweave_render5types5testss_25test_vertex_layout_stride
FNDA:1,_RNvNtNtCs5u7LM5pVa0o_17astraweave_render5types5testss_27test_cluster_index_clamping
FNDA:1,_RNvNtNtCs5u7LM5pVa0o_17astraweave_render5types5testss_28test_instance_raw_conversion
FNDA:1,_RNvNtNtCs5u7LM5pVa0o_17astraweave_render5types5testss_28test_instance_raw_pod_traits
FNDA:1,_RNvNtNtCs5u7LM5pVa0o_17astraweave_render5types5testss_29test_vertex_layout_attributes
FNDA:1,_RNvNtNtCs5u7LM5pVa0o_17astraweave_render5types5testss_30test_skinned_vertex_pod_traits
FNDA:1,_RNvNtNtCs5u7LM5pVa0o_17astraweave_render5types5testss_31test_instance_raw_layout_stride
FNDA:1,_RNvNtNtCs5u7LM5pVa0o_17astraweave_render5types5testss_33test_skinned_vertex_layout_stride
FNDA:1,_RNvNtNtCs5u7LM5pVa0o_17astraweave_render5types5testss_34test_instance_from_pos_scale_color
FNDA:1,_RNvNtNtCs5u7LM5pVa0o_17astraweave_render5types5testss_35test_instance_raw_layout_attributes
FNDA:1,_RNvNtNtCs5u7LM5pVa0o_17astraweave_render5types5testss_36test_cluster_index_depth_progression
FNDA:1,_RNvNtNtCs5u7LM5pVa0o_17astraweave_render5types5testss_37test_skinned_vertex_layout_attributes
FNDA:2,_RNvMNtCs5u7LM5pVa0o_17astraweave_render5typesNtB2_6Vertex6layout
FNDA:2,_RNvMs0_NtCs5u7LM5pVa0o_17astraweave_render5typesNtB5_11InstanceRaw6layout
FNDA:1,_RNvMs1_NtCs5u7LM5pVa0o_17astraweave_render5typesNtB5_8Instance20from_pos_scale_color
FNDA:116,_RNvMs1_NtCs5u7LM5pVa0o_17astraweave_render5typesNtB5_8Instance3raw
FNDA:2,_RNvMs_NtCs5u7LM5pVa0o_17astraweave_render5typesNtB4_13SkinnedVertex6layout
FNDA:7,_RNvNtCs5u7LM5pVa0o_17astraweave_render5types13cluster_index
FNDA:1,_RNvNtNtCs5u7LM5pVa0o_17astraweave_render5types13tests_clusters_18bins_within_bounds
FNDA:1,_RNvNtNtCs5u7LM5pVa0o_17astraweave_render5types13tests_clusters_20corners_map_to_edges
FNF:23
FNH:23
DA:14,2
DA:16,2
DA:17,2
DA:18,2
DA:19,2
DA:20,2
DA:21,2
DA:22,2
DA:23,2
DA:24,2
DA:25,2
DA:26,2
DA:27,2
DA:28,2
DA:29,2
DA:30,2
DA:31,2
DA:32,2
DA:33,2
DA:34,2
DA:35,2
DA:36,2
DA:37,2
DA:38,2
DA:39,2
DA:40,2
DA:41,2
DA:42,2
DA:43,2
DA:44,2
DA:45,2
DA:46,2
DA:60,2
DA:62,2
DA:63,2
DA:64,2
DA:65,2
DA:66,2
DA:67,2
DA:68,2
DA:69,2
DA:70,2
DA:71,2
DA:72,2
DA:73,2
DA:74,2
DA:75,2
DA:76,2
DA:77,2
DA:78,2
DA:79,2
DA:80,2
DA:81,2
DA:82,2
DA:83,2
DA:84,2
DA:85,2
DA:86,2
DA:87,2
DA:88,2
DA:89,2
DA:90,2
DA:91,2
DA:92,2
DA:93,2
DA:94,2
DA:95,2
DA:96,2
DA:97,2
DA:98,2
DA:112,2
DA:114,2
DA:115,2
DA:116,2
DA:117,2
DA:118,2
DA:119,2
DA:120,2
DA:121,2
DA:122,2
DA:123,2
DA:124,2
DA:125,2
DA:126,2
DA:127,2
DA:128,2
DA:129,2
DA:130,2
DA:131,2
DA:132,2
DA:133,2
DA:134,2
DA:135,2
DA:136,2
DA:137,2
DA:138,2
DA:139,2
DA:140,2
DA:141,2
DA:142,2
DA:143,2
DA:144,2
DA:145,2
DA:146,2
DA:147,2
DA:148,2
DA:149,2
DA:150,2
DA:151,2
DA:152,2
DA:153,2
DA:154,2
DA:155,2
DA:156,2
DA:157,2
DA:158,2
DA:159,2
DA:160,2
DA:161,2
DA:162,2
DA:163,2
DA:164,2
DA:165,2
DA:166,2
DA:167,2
DA:168,2
DA:169,2
DA:192,116
DA:193,116
DA:194,116
DA:195,116
DA:196,116
DA:197,116
DA:198,116
DA:199,116
DA:200,116
DA:201,116
DA:202,116
DA:203,116
DA:204,116
DA:205,116
DA:206,116
DA:208,1
DA:209,1
DA:210,1
DA:211,1
DA:212,1
DA:213,1
DA:214,1
DA:215,1
DA:231,7
DA:232,7
DA:233,7
DA:234,7
DA:235,7
DA:236,7
DA:237,7
DA:238,7
DA:239,7
DA:240,7
DA:241,7
DA:242,7
DA:244,7
DA:245,7
DA:246,7
DA:247,7
DA:253,1
DA:254,1
DA:255,1
DA:256,1
DA:257,1
DA:259,1
DA:260,1
DA:261,1
DA:262,1
DA:263,1
DA:264,1
DA:272,1
DA:273,1
DA:275,1
DA:277,1
DA:278,1
DA:279,1
DA:280,1
DA:281,1
DA:284,1
DA:285,1
DA:287,1
DA:288,1
DA:289,1
DA:292,1
DA:293,1
DA:295,1
DA:297,1
DA:298,1
DA:299,1
DA:300,1
DA:301,1
DA:302,1
DA:305,1
DA:306,1
DA:309,1
DA:310,1
DA:311,1
DA:314,1
DA:315,1
DA:317,1
DA:318,1
DA:319,1
DA:322,1
DA:323,1
DA:326,1
DA:327,1
DA:330,1
DA:331,1
DA:332,1
DA:333,1
DA:335,1
DA:337,1
DA:338,1
DA:341,1
DA:342,1
DA:343,1
DA:344,1
DA:346,1
DA:347,1
DA:350,1
DA:351,1
DA:352,1
DA:353,1
DA:355,1
DA:356,1
DA:357,1
DA:358,1
DA:359,1
DA:361,1
DA:363,1
DA:364,1
DA:365,1
DA:368,1
DA:369,1
DA:370,1
DA:371,1
DA:374,1
DA:376,1
DA:377,1
DA:378,1
DA:381,1
DA:382,1
DA:383,1
DA:384,1
DA:387,1
DA:388,1
DA:389,1
DA:390,1
DA:393,1
DA:394,1
DA:395,1
DA:396,1
DA:397,1
DA:398,1
DA:399,1
DA:402,1
DA:403,1
DA:404,1
DA:405,1
DA:406,1
DA:407,1
DA:408,1
DA:411,1
DA:412,1
DA:414,1
DA:415,1
DA:416,1
DA:419,1
DA:420,1
DA:421,1
DA:424,1
DA:425,1
DA:427,1
DA:428,1
DA:429,1
BRF:0
BRH:0
LF:282
LH:282
end_of_record
SF:C:\Users\pv2br\source\repos\AstraWeave-AI-Native-Gaming-Engine\astraweave-render\src\vertex_compression.rs
FN:359,_RNvNtNtCs5u7LM5pVa0o_17astraweave_render18vertex_compression5testss_22test_batch_compression
FN:314,_RNvNtNtCs5u7LM5pVa0o_17astraweave_render18vertex_compression5testss_24test_half_float_encoding
FN:402,_RNvNtNtCs5u7LM5pVa0o_17astraweave_render18vertex_compression5testss_27test_compressed_vertex_size
FN:327,_RNvNtNtCs5u7LM5pVa0o_17astraweave_render18vertex_compression5testss_27test_half_float_uv_encoding
FN:390,_RNvNtNtCs5u7LM5pVa0o_17astraweave_render18vertex_compression5testss_31test_memory_savings_calculation
FN:292,_RNvNtNtCs5u7LM5pVa0o_17astraweave_render18vertex_compression5testss_33test_octahedral_encoding_diagonal
FN:303,_RNvNtNtCs5u7LM5pVa0o_17astraweave_render18vertex_compression5testss_33test_octahedral_encoding_negative
FN:337,_RNvNtNtCs5u7LM5pVa0o_17astraweave_render18vertex_compression5testss_33test_vertex_compression_roundtrip
FN:281,_RNvNtNtCs5u7LM5pVa0o_17astraweave_render18vertex_compression5testss_34test_octahedral_encoding_up_vector
FN:189,_RNvMs0_NtCs5u7LM5pVa0o_17astraweave_render18vertex_compressionNtB5_16HalfFloatEncoder11decode_vec2
FN:184,_RNvMs0_NtCs5u7LM5pVa0o_17astraweave_render18vertex_compressionNtB5_16HalfFloatEncoder11encode_vec2
FN:179,_RNvMs0_NtCs5u7LM5pVa0o_17astraweave_render18vertex_compressionNtB5_16HalfFloatEncoder6decode
FN:167,_RNvMs0_NtCs5u7LM5pVa0o_17astraweave_render18vertex_compressionNtB5_16HalfFloatEncoder6encode
FN:222,_RNvMs1_NtCs5u7LM5pVa0o_17astraweave_render18vertex_compressionNtB5_16VertexCompressor10decompress
FN:242,_RNvMs1_NtCs5u7LM5pVa0o_17astraweave_render18vertex_compressionNtB5_16VertexCompressor14compress_batch
FN:265,_RNvMs1_NtCs5u7LM5pVa0o_17astraweave_render18vertex_compressionNtB5_16VertexCompressor17calculate_savings
FN:207,_RNvMs1_NtCs5u7LM5pVa0o_17astraweave_render18vertex_compressionNtB5_16VertexCompressor8compress
FN:132,_RNvMs_NtCs5u7LM5pVa0o_17astraweave_render18vertex_compressionNtB4_17OctahedralEncoder14encoding_error
FN:100,_RNvMs_NtCs5u7LM5pVa0o_17astraweave_render18vertex_compressionNtB4_17OctahedralEncoder6decode
FN:63,_RNvMs_NtCs5u7LM5pVa0o_17astraweave_render18vertex_compressionNtB4_17OctahedralEncoder6encode
FN:254,_RNCNvMs1_NtCs5u7LM5pVa0o_17astraweave_render18vertex_compressionNtB7_16VertexCompressor14compress_batch0B9_
FNDA:1,_RNvNtNtCs5u7LM5pVa0o_17astraweave_render18vertex_compression5testss_22test_batch_compression
FNDA:1,_RNvNtNtCs5u7LM5pVa0o_17astraweave_render18vertex_compression5testss_24test_half_float_encoding
FNDA:1,_RNvNtNtCs5u7LM5pVa0o_17astraweave_render18vertex_compression5testss_27test_compressed_vertex_size
FNDA:1,_RNvNtNtCs5u7LM5pVa0o_17astraweave_render18vertex_compression5testss_27test_half_float_uv_encoding
FNDA:1,_RNvNtNtCs5u7LM5pVa0o_17astraweave_render18vertex_compression5testss_31test_memory_savings_calculation
FNDA:1,_RNvNtNtCs5u7LM5pVa0o_17astraweave_render18vertex_compression5testss_33test_octahedral_encoding_diagonal
FNDA:1,_RNvNtNtCs5u7LM5pVa0o_17astraweave_render18vertex_compression5testss_33test_octahedral_encoding_negative
FNDA:1,_RNvNtNtCs5u7LM5pVa0o_17astraweave_render18vertex_compression5testss_33test_vertex_compression_roundtrip
FNDA:1,_RNvNtNtCs5u7LM5pVa0o_17astraweave_render18vertex_compression5testss_34test_octahedral_encoding_up_vector
FNDA:5,_RNvMs0_NtCs5u7LM5pVa0o_17astraweave_render18vertex_compressionNtB5_16HalfFloatEncoder11decode_vec2
FNDA:5,_RNvMs0_NtCs5u7LM5pVa0o_17astraweave_render18vertex_compressionNtB5_16HalfFloatEncoder11encode_vec2
FNDA:15,_RNvMs0_NtCs5u7LM5pVa0o_17astraweave_render18vertex_compressionNtB5_16HalfFloatEncoder6decode
FNDA:15,_RNvMs0_NtCs5u7LM5pVa0o_17astraweave_render18vertex_compressionNtB5_16HalfFloatEncoder6encode
FNDA:4,_RNvMs1_NtCs5u7LM5pVa0o_17astraweave_render18vertex_compressionNtB5_16VertexCompressor10decompress
FNDA:1,_RNvMs1_NtCs5u7LM5pVa0o_17astraweave_render18vertex_compressionNtB5_16VertexCompressor14compress_batch
FNDA:1,_RNvMs1_NtCs5u7LM5pVa0o_17astraweave_render18vertex_compressionNtB5_16VertexCompressor17calculate_savings
FNDA:4,_RNvMs1_NtCs5u7LM5pVa0o_17astraweave_render18vertex_compressionNtB5_16VertexCompressor8compress
FNDA:1,_RNvMs_NtCs5u7LM5pVa0o_17astraweave_render18vertex_compressionNtB4_17OctahedralEncoder14encoding_error
FNDA:8,_RNvMs_NtCs5u7LM5pVa0o_17astraweave_render18vertex_compressionNtB4_17OctahedralEncoder6decode
FNDA:8,_RNvMs_NtCs5u7LM5pVa0o_17astraweave_render18vertex_compressionNtB4_17OctahedralEncoder6encode
FNDA:3,_RNCNvMs1_NtCs5u7LM5pVa0o_17astraweave_render18vertex_compressionNtB7_16VertexCompressor14compress_batch0B9_
FNF:21
FNH:21
DA:63,8
DA:65,8
DA:66,8
DA:69,8
DA:70,0
DA:71,0
DA:72,0
DA:75,8
DA:80,8
DA:81,8
DA:83,8
DA:84,8
DA:100,8
DA:103,8
DA:104,8
DA:105,8
DA:109,8
DA:112,8
DA:113,0
DA:114,0
DA:115,0
DA:118,8
DA:122,8
DA:123,8
DA:132,1
DA:133,1
DA:134,1
DA:135,1
DA:136,1
DA:167,15
DA:169,15
DA:170,15
DA:179,15
DA:180,15
DA:181,15
DA:184,5
DA:185,5
DA:186,5
DA:189,5
DA:190,5
DA:191,5
DA:207,4
DA:208,4
DA:209,4
DA:210,4
DA:211,4
DA:212,4
DA:213,4
DA:222,4
DA:223,4
DA:224,4
DA:225,4
DA:227,4
DA:228,4
DA:242,1
DA:243,1
DA:244,1
DA:245,1
DA:246,1
DA:247,1
DA:248,1
DA:250,1
DA:251,1
DA:252,1
DA:253,1
DA:254,3
DA:255,1
DA:256,1
DA:265,1
DA:266,1
DA:267,1
DA:268,1
DA:269,1
DA:271,1
DA:272,1
DA:281,1
DA:282,1
DA:283,1
DA:284,1
DA:286,1
DA:287,1
DA:288,1
DA:289,1
DA:292,1
DA:293,1
DA:294,1
DA:295,1
DA:298,1
DA:299,1
DA:300,1
DA:303,1
DA:304,1
DA:305,1
DA:306,1
DA:308,1
DA:309,1
DA:310,1
DA:311,1
DA:314,1
DA:315,1
DA:317,6
DA:318,5
DA:319,5
DA:322,5
DA:324,1
DA:327,1
DA:328,1
DA:329,1
DA:330,1
DA:332,1
DA:333,1
DA:334,1
DA:337,1
DA:338,1
DA:339,1
DA:340,1
DA:342,1
DA:343,1
DA:346,1
DA:349,1
DA:350,1
DA:351,1
DA:354,1
DA:355,1
DA:356,1
DA:359,1
DA:360,1
DA:361,1
DA:362,1
DA:363,1
DA:365,1
DA:370,1
DA:371,1
DA:372,1
DA:373,1
DA:376,1
DA:378,1
DA:380,3
DA:381,3
DA:382,3
DA:383,3
DA:384,3
DA:385,3
DA:387,1
DA:390,1
DA:391,1
DA:392,1
DA:393,1
DA:395,1
DA:396,1
DA:397,1
DA:398,1
DA:399,1
DA:402,1
DA:406,1
DA:407,1
DA:408,1
DA:409,1
BRF:0
BRH:0
LF:159
LH:153
end_of_record
SF:C:\Users\pv2br\source\repos\AstraWeave-AI-Native-Gaming-Engine\astraweave-terrain\src\biome.rs
FN:52,_RNvMNtCsjCPvc56uTHK_18astraweave_terrain5biomeNtB2_9BiomeType3all
FN:23,_RNvMNtCsjCPvc56uTHK_18astraweave_terrain5biomeNtB2_9BiomeType6as_str
FN:37,_RNvMNtCsjCPvc56uTHK_18astraweave_terrain5biomeNtB2_9BiomeType8from_str
FN:465,_RNvMs2_NtCsjCPvc56uTHK_18astraweave_terrain5biomeNtB5_11BiomeConfig16score_conditions
FN:515,_RNvMs2_NtCsjCPvc56uTHK_18astraweave_terrain5biomeNtB5_11BiomeConfig17is_slope_suitable
FN:271,_RNvMs2_NtCsjCPvc56uTHK_18astraweave_terrain5biomeNtB5_11BiomeConfig6desert
FN:328,_RNvMs2_NtCsjCPvc56uTHK_18astraweave_terrain5biomeNtB5_11BiomeConfig6forest
FN:400,_RNvMs2_NtCsjCPvc56uTHK_18astraweave_terrain5biomeNtB5_11BiomeConfig8mountain
FN:207,_RNvMs2_NtCsjCPvc56uTHK_18astraweave_terrain5biomeNtB5_11BiomeConfig9grassland
FN:550,_RNvMs3_NtCsjCPvc56uTHK_18astraweave_terrain5biomeNtB5_5Biome13to_biome_rule
FN:545,_RNvMs3_NtCsjCPvc56uTHK_18astraweave_terrain5biomeNtB5_5Biome16resource_weights
FN:540,_RNvMs3_NtCsjCPvc56uTHK_18astraweave_terrain5biomeNtB5_5Biome18vegetation_density
FN:530,_RNvMs3_NtCsjCPvc56uTHK_18astraweave_terrain5biomeNtB5_5Biome3new
FN:110,_RNvXs0_NtCsjCPvc56uTHK_18astraweave_terrain5biomeNtB5_8BiomeSkyNtNtCsixiwFwjEgS7_4core7default7Default7default
FN:147,_RNvXs1_NtCsjCPvc56uTHK_18astraweave_terrain5biomeNtB5_15BiomeVegetationNtNtCsixiwFwjEgS7_4core7default7Default7default
FN:80,_RNvXs_NtCsjCPvc56uTHK_18astraweave_terrain5biomeNtB4_15BiomeConditionsNtNtCsixiwFwjEgS7_4core7default7Default7default
FNDA:0,_RNvMNtCsjCPvc56uTHK_18astraweave_terrain5biomeNtB2_9BiomeType3all
FNDA:0,_RNvMNtCsjCPvc56uTHK_18astraweave_terrain5biomeNtB2_9BiomeType6as_str
FNDA:0,_RNvMNtCsjCPvc56uTHK_18astraweave_terrain5biomeNtB2_9BiomeType8from_str
FNDA:720896,_RNvMs2_NtCsjCPvc56uTHK_18astraweave_terrain5biomeNtB5_11BiomeConfig16score_conditions
FNDA:0,_RNvMs2_NtCsjCPvc56uTHK_18astraweave_terrain5biomeNtB5_11BiomeConfig17is_slope_suitable
FNDA:4,_RNvMs2_NtCsjCPvc56uTHK_18astraweave_terrain5biomeNtB5_11BiomeConfig6desert
FNDA:4,_RNvMs2_NtCsjCPvc56uTHK_18astraweave_terrain5biomeNtB5_11BiomeConfig6forest
FNDA:4,_RNvMs2_NtCsjCPvc56uTHK_18astraweave_terrain5biomeNtB5_11BiomeConfig8mountain
FNDA:4,_RNvMs2_NtCsjCPvc56uTHK_18astraweave_terrain5biomeNtB5_11BiomeConfig9grassland
FNDA:0,_RNvMs3_NtCsjCPvc56uTHK_18astraweave_terrain5biomeNtB5_5Biome13to_biome_rule
FNDA:0,_RNvMs3_NtCsjCPvc56uTHK_18astraweave_terrain5biomeNtB5_5Biome16resource_weights
FNDA:0,_RNvMs3_NtCsjCPvc56uTHK_18astraweave_terrain5biomeNtB5_5Biome18vegetation_density
FNDA:0,_RNvMs3_NtCsjCPvc56uTHK_18astraweave_terrain5biomeNtB5_5Biome3new
FNDA:0,_RNvXs0_NtCsjCPvc56uTHK_18astraweave_terrain5biomeNtB5_8BiomeSkyNtNtCsixiwFwjEgS7_4core7default7Default7default
FNDA:0,_RNvXs1_NtCsjCPvc56uTHK_18astraweave_terrain5biomeNtB5_15BiomeVegetationNtNtCsixiwFwjEgS7_4core7default7Default7default
FNDA:0,_RNvXs_NtCsjCPvc56uTHK_18astraweave_terrain5biomeNtB4_15BiomeConditionsNtNtCsixiwFwjEgS7_4core7default7Default7default
FNF:16
FNH:5
DA:23,0
DA:24,0
DA:25,0
DA:26,0
DA:27,0
DA:28,0
DA:29,0
DA:30,0
DA:31,0
DA:32,0
DA:34,0
DA:37,0
DA:38,0
DA:39,0
DA:40,0
DA:41,0
DA:42,0
DA:43,0
DA:44,0
DA:45,0
DA:46,0
DA:47,0
DA:49,0
DA:52,0
DA:53,0
DA:54,0
DA:55,0
DA:56,0
DA:57,0
DA:58,0
DA:59,0
DA:60,0
DA:61,0
DA:62,0
DA:63,0
DA:80,0
DA:81,0
DA:82,0
DA:83,0
DA:84,0
DA:85,0
DA:86,0
DA:87,0
DA:110,0
DA:111,0
DA:112,0
DA:113,0
DA:114,0
DA:115,0
DA:116,0
DA:117,0
DA:118,0
DA:119,0
DA:120,0
DA:147,0
DA:148,0
DA:149,0
DA:150,0
DA:151,0
DA:152,0
DA:153,0
DA:154,0
DA:155,0
DA:156,0
DA:157,0
DA:158,0
DA:159,0
DA:160,0
DA:207,4
DA:208,4
DA:209,4
DA:210,4
DA:211,4
DA:212,4
DA:213,4
DA:214,4
DA:215,4
DA:216,4
DA:217,4
DA:218,4
DA:219,4
DA:220,4
DA:221,4
DA:222,4
DA:223,4
DA:224,4
DA:225,4
DA:226,4
DA:227,4
DA:228,4
DA:229,4
DA:230,4
DA:231,4
DA:232,4
DA:233,4
DA:234,4
DA:235,4
DA:236,4
DA:237,4
DA:238,4
DA:239,4
DA:240,4
DA:241,4
DA:242,4
DA:243,4
DA:244,4
DA:245,4
DA:246,4
DA:247,4
DA:248,4
DA:249,4
DA:250,4
DA:251,4
DA:252,4
DA:253,4
DA:254,4
DA:255,4
DA:256,4
DA:257,4
DA:258,4
DA:259,4
DA:260,4
DA:261,4
DA:262,4
DA:263,4
DA:264,4
DA:265,4
DA:266,4
DA:267,4
DA:268,4
DA:271,4
DA:272,4
DA:273,4
DA:274,4
DA:275,4
DA:276,4
DA:277,4
DA:278,4
DA:279,4
DA:280,4
DA:281,4
DA:282,4
DA:283,4
DA:284,4
DA:285,4
DA:286,4
DA:287,4
DA:288,4
DA:289,4
DA:290,4
DA:291,4
DA:292,4
DA:293,4
DA:294,4
DA:295,4
DA:296,4
DA:297,4
DA:298,4
DA:299,4
DA:300,4
DA:301,4
DA:302,4
DA:303,4
DA:304,4
DA:305,4
DA:306,4
DA:307,4
DA:308,4
DA:309,4
DA:310,4
DA:311,4
DA:312,4
DA:313,4
DA:314,4
DA:315,4
DA:316,4
DA:317,4
DA:318,4
DA:319,4
DA:320,4
DA:321,4
DA:322,4
DA:323,4
DA:324,4
DA:325,4
DA:328,4
DA:329,4
DA:330,4
DA:331,4
DA:332,4
DA:333,4
DA:334,4
DA:335,4
DA:336,4
DA:337,4
DA:338,4
DA:339,4
DA:340,4
DA:341,4
DA:342,4
DA:343,4
DA:344,4
DA:345,4
DA:346,4
DA:347,4
DA:348,4
DA:349,4
DA:350,4
DA:351,4
DA:352,4
DA:353,4
DA:354,4
DA:355,4
DA:356,4
DA:357,4
DA:358,4
DA:359,4
DA:360,4
DA:361,4
DA:362,4
DA:363,4
DA:364,4
DA:365,4
DA:366,4
DA:367,4
DA:368,4
DA:369,4
DA:370,4
DA:371,4
DA:372,4
DA:373,4
DA:374,4
DA:375,4
DA:376,4
DA:377,4
DA:378,4
DA:379,4
DA:380,4
DA:381,4
DA:382,4
DA:383,4
DA:384,4
DA:385,4
DA:386,4
DA:387,4
DA:388,4
DA:389,4
DA:390,4
DA:391,4
DA:392,4
DA:393,4
DA:394,4
DA:395,4
DA:396,4
DA:397,4
DA:400,4
DA:401,4
DA:402,4
DA:403,4
DA:404,4
DA:405,4
DA:406,4
DA:407,4
DA:408,4
DA:409,4
DA:410,4
DA:411,4
DA:412,4
DA:413,4
DA:414,4
DA:415,4
DA:416,4
DA:417,4
DA:418,4
DA:419,4
DA:420,4
DA:421,4
DA:422,4
DA:423,4
DA:424,4
DA:425,4
DA:426,4
DA:427,4
DA:428,4
DA:429,4
DA:430,4
DA:431,4
DA:432,4
DA:433,4
DA:434,4
DA:435,4
DA:436,4
DA:437,4
DA:438,4
DA:439,4
DA:440,4
DA:441,4
DA:442,4
DA:443,4
DA:444,4
DA:445,4
DA:446,4
DA:447,4
DA:448,4
DA:449,4
DA:450,4
DA:451,4
DA:452,4
DA:453,4
DA:454,4
DA:455,4
DA:456,4
DA:457,4
DA:458,4
DA:459,4
DA:460,4
DA:461,4
DA:462,4
DA:465,720896
DA:466,720896
DA:469,720896
DA:470,427053
DA:471,427053
DA:472,293843
DA:473,244828
DA:475,49015
DA:477,293843
DA:481,720896
DA:482,550809
DA:483,418774
DA:484,418774
DA:485,418774
DA:486,302122
DA:487,170087
DA:489,132035
DA:491,302122
DA:495,720896
DA:496,572500
DA:497,331743
DA:498,331743
DA:499,331743
DA:500,389153
DA:501,148396
DA:503,240757
DA:505,389153
DA:509,720896
DA:511,720896
DA:512,720896
DA:515,0
DA:516,0
DA:517,0
DA:530,0
DA:531,0
DA:532,0
DA:533,0
DA:534,0
DA:535,0
DA:536,0
DA:537,0
DA:540,0
DA:541,0
DA:542,0
DA:545,0
DA:546,0
DA:547,0
DA:550,0
DA:551,0
DA:552,0
DA:553,0
DA:554,0
DA:555,0
DA:556,0
DA:557,0
BRF:0
BRH:0
LF:373
LH:280
end_of_record
SF:C:\Users\pv2br\source\repos\AstraWeave-AI-Native-Gaming-Engine\astraweave-terrain\src\chunk.rs
FN:55,_RNvMNtCsjCPvc56uTHK_18astraweave_terrain5chunkNtB2_7ChunkId11distance_to
FN:29,_RNvMNtCsjCPvc56uTHK_18astraweave_terrain5chunkNtB2_7ChunkId12to_world_pos
FN:34,_RNvMNtCsjCPvc56uTHK_18astraweave_terrain5chunkNtB2_7ChunkId13to_center_pos
FN:22,_RNvMNtCsjCPvc56uTHK_18astraweave_terrain5chunkNtB2_7ChunkId14from_world_pos
FN:40,_RNvMNtCsjCPvc56uTHK_18astraweave_terrain5chunkNtB2_7ChunkId20get_chunks_in_radius
FN:17,_RNvMNtCsjCPvc56uTHK_18astraweave_terrain5chunkNtB2_7ChunkId3new
FN:254,_RNvMs0_NtCsjCPvc56uTHK_18astraweave_terrain5chunkNtB5_12ChunkManager11chunk_count
FN:203,_RNvMs0_NtCsjCPvc56uTHK_18astraweave_terrain5chunkNtB5_12ChunkManager13get_chunk_mut
FN:249,_RNvMs0_NtCsjCPvc56uTHK_18astraweave_terrain5chunkNtB5_12ChunkManager13loaded_chunks
FN:213,_RNvMs0_NtCsjCPvc56uTHK_18astraweave_terrain5chunkNtB5_12ChunkManager20get_chunks_in_radius
FN:259,_RNvMs0_NtCsjCPvc56uTHK_18astraweave_terrain5chunkNtB5_12ChunkManager21set_max_loaded_chunks
FN:218,_RNvMs0_NtCsjCPvc56uTHK_18astraweave_terrain5chunkNtB5_12ChunkManager21unload_distant_chunks
FN:242,_RNvMs0_NtCsjCPvc56uTHK_18astraweave_terrain5chunkNtB5_12ChunkManager22get_biome_at_world_pos
FN:235,_RNvMs0_NtCsjCPvc56uTHK_18astraweave_terrain5chunkNtB5_12ChunkManager23get_height_at_world_pos
FN:175,_RNvMs0_NtCsjCPvc56uTHK_18astraweave_terrain5chunkNtB5_12ChunkManager3new
FN:185,_RNvMs0_NtCsjCPvc56uTHK_18astraweave_terrain5chunkNtB5_12ChunkManager9add_chunk
FN:198,_RNvMs0_NtCsjCPvc56uTHK_18astraweave_terrain5chunkNtB5_12ChunkManager9get_chunk
FN:208,_RNvMs0_NtCsjCPvc56uTHK_18astraweave_terrain5chunkNtB5_12ChunkManager9has_chunk
FN:108,_RNvMs_NtCsjCPvc56uTHK_18astraweave_terrain5chunkNtB4_12TerrainChunk13apply_erosion
FN:98,_RNvMs_NtCsjCPvc56uTHK_18astraweave_terrain5chunkNtB4_12TerrainChunk13is_mesh_dirty
FN:103,_RNvMs_NtCsjCPvc56uTHK_18astraweave_terrain5chunkNtB4_12TerrainChunk15mark_mesh_clean
FN:137,_RNvMs_NtCsjCPvc56uTHK_18astraweave_terrain5chunkNtB4_12TerrainChunk22get_biome_at_world_pos
FN:115,_RNvMs_NtCsjCPvc56uTHK_18astraweave_terrain5chunkNtB4_12TerrainChunk23get_height_at_world_pos
FN:83,_RNvMs_NtCsjCPvc56uTHK_18astraweave_terrain5chunkNtB4_12TerrainChunk2id
FN:73,_RNvMs_NtCsjCPvc56uTHK_18astraweave_terrain5chunkNtB4_12TerrainChunk3new
FN:93,_RNvMs_NtCsjCPvc56uTHK_18astraweave_terrain5chunkNtB4_12TerrainChunk9biome_map
FN:88,_RNvMs_NtCsjCPvc56uTHK_18astraweave_terrain5chunkNtB4_12TerrainChunk9heightmap
FN:225,_RNCNvMs0_NtCsjCPvc56uTHK_18astraweave_terrain5chunkNtB7_12ChunkManager21unload_distant_chunks0B9_
FNDA:0,_RNvMNtCsjCPvc56uTHK_18astraweave_terrain5chunkNtB2_7ChunkId11distance_to
FNDA:32,_RNvMNtCsjCPvc56uTHK_18astraweave_terrain5chunkNtB2_7ChunkId12to_world_pos
FNDA:0,_RNvMNtCsjCPvc56uTHK_18astraweave_terrain5chunkNtB2_7ChunkId13to_center_pos
FNDA:2,_RNvMNtCsjCPvc56uTHK_18astraweave_terrain5chunkNtB2_7ChunkId14from_world_pos
FNDA:1,_RNvMNtCsjCPvc56uTHK_18astraweave_terrain5chunkNtB2_7ChunkId20get_chunks_in_radius
FNDA:12,_RNvMNtCsjCPvc56uTHK_18astraweave_terrain5chunkNtB2_7ChunkId3new
FNDA:0,_RNvMs0_NtCsjCPvc56uTHK_18astraweave_terrain5chunkNtB5_12ChunkManager11chunk_count
FNDA:0,_RNvMs0_NtCsjCPvc56uTHK_18astraweave_terrain5chunkNtB5_12ChunkManager13get_chunk_mut
FNDA:0,_RNvMs0_NtCsjCPvc56uTHK_18astraweave_terrain5chunkNtB5_12ChunkManager13loaded_chunks
FNDA:0,_RNvMs0_NtCsjCPvc56uTHK_18astraweave_terrain5chunkNtB5_12ChunkManager20get_chunks_in_radius
FNDA:0,_RNvMs0_NtCsjCPvc56uTHK_18astraweave_terrain5chunkNtB5_12ChunkManager21set_max_loaded_chunks
FNDA:0,_RNvMs0_NtCsjCPvc56uTHK_18astraweave_terrain5chunkNtB5_12ChunkManager21unload_distant_chunks
FNDA:0,_RNvMs0_NtCsjCPvc56uTHK_18astraweave_terrain5chunkNtB5_12ChunkManager22get_biome_at_world_pos
FNDA:0,_RNvMs0_NtCsjCPvc56uTHK_18astraweave_terrain5chunkNtB5_12ChunkManager23get_height_at_world_pos
FNDA:4,_RNvMs0_NtCsjCPvc56uTHK_18astraweave_terrain5chunkNtB5_12ChunkManager3new
FNDA:0,_RNvMs0_NtCsjCPvc56uTHK_18astraweave_terrain5chunkNtB5_12ChunkManager9add_chunk
FNDA:0,_RNvMs0_NtCsjCPvc56uTHK_18astraweave_terrain5chunkNtB5_12ChunkManager9get_chunk
FNDA:0,_RNvMs0_NtCsjCPvc56uTHK_18astraweave_terrain5chunkNtB5_12ChunkManager9has_chunk
FNDA:11,_RNvMs_NtCsjCPvc56uTHK_18astraweave_terrain5chunkNtB4_12TerrainChunk13apply_erosion
FNDA:0,_RNvMs_NtCsjCPvc56uTHK_18astraweave_terrain5chunkNtB4_12TerrainChunk13is_mesh_dirty
FNDA:0,_RNvMs_NtCsjCPvc56uTHK_18astraweave_terrain5chunkNtB4_12TerrainChunk15mark_mesh_clean
FNDA:0,_RNvMs_NtCsjCPvc56uTHK_18astraweave_terrain5chunkNtB4_12TerrainChunk22get_biome_at_world_pos
FNDA:0,_RNvMs_NtCsjCPvc56uTHK_18astraweave_terrain5chunkNtB4_12TerrainChunk23get_height_at_world_pos
FNDA:20,_RNvMs_NtCsjCPvc56uTHK_18astraweave_terrain5chunkNtB4_12TerrainChunk2id
FNDA:11,_RNvMs_NtCsjCPvc56uTHK_18astraweave_terrain5chunkNtB4_12TerrainChunk3new
FNDA:163840,_RNvMs_NtCsjCPvc56uTHK_18astraweave_terrain5chunkNtB4_12TerrainChunk9biome_map
FNDA:11,_RNvMs_NtCsjCPvc56uTHK_18astraweave_terrain5chunkNtB4_12TerrainChunk9heightmap
FNDA:0,_RNCNvMs0_NtCsjCPvc56uTHK_18astraweave_terrain5chunkNtB7_12ChunkManager21unload_distant_chunks0B9_
FNF:28
FNH:10
DA:17,12
DA:18,12
DA:19,12
DA:22,2
DA:23,2
DA:24,2
DA:25,2
DA:26,2
DA:29,32
DA:30,32
DA:31,32
DA:34,0
DA:35,0
DA:36,0
DA:37,0
DA:40,1
DA:41,1
DA:42,1
DA:44,1
DA:45,3
DA:46,9
DA:47,9
DA:48,9
DA:51,1
DA:52,1
DA:55,0
DA:56,0
DA:57,0
DA:58,0
DA:59,0
DA:73,11
DA:74,11
DA:75,11
DA:76,11
DA:77,11
DA:78,11
DA:79,11
DA:80,11
DA:83,20
DA:84,20
DA:85,20
DA:88,11
DA:89,11
DA:90,11
DA:93,163840
DA:94,163840
DA:95,163840
DA:98,0
DA:99,0
DA:100,0
DA:103,0
DA:104,0
DA:105,0
DA:108,11
DA:109,11
DA:110,11
DA:111,11
DA:112,11
DA:115,0
DA:116,0
DA:117,0
DA:120,0
DA:121,0
DA:122,0
DA:123,0
DA:125,0
DA:126,0
DA:129,0
DA:130,0
DA:131,0
DA:133,0
DA:134,0
DA:137,0
DA:138,0
DA:139,0
DA:142,0
DA:143,0
DA:144,0
DA:145,0
DA:147,0
DA:148,0
DA:151,0
DA:152,0
DA:153,0
DA:155,0
DA:156,0
DA:157,0
DA:159,0
DA:160,0
DA:175,4
DA:176,4
DA:177,4
DA:178,4
DA:179,4
DA:180,4
DA:181,4
DA:182,4
DA:185,0
DA:187,0
DA:189,0
DA:190,0
DA:191,0
DA:192,0
DA:194,0
DA:195,0
DA:198,0
DA:199,0
DA:200,0
DA:203,0
DA:204,0
DA:205,0
DA:208,0
DA:209,0
DA:210,0
DA:213,0
DA:214,0
DA:215,0
DA:218,0
DA:219,0
DA:220,0
DA:222,0
DA:223,0
DA:224,0
DA:225,0
DA:226,0
DA:227,0
DA:229,0
DA:230,0
DA:231,0
DA:232,0
DA:235,0
DA:236,0
DA:237,0
DA:238,0
DA:239,0
DA:242,0
DA:243,0
DA:244,0
DA:245,0
DA:246,0
DA:249,0
DA:250,0
DA:251,0
DA:254,0
DA:255,0
DA:256,0
DA:259,0
DA:260,0
DA:261,0
BRF:0
BRH:0
LF:150
LH:51
end_of_record
SF:C:\Users\pv2br\source\repos\AstraWeave-AI-Native-Gaming-Engine\astraweave-terrain\src\climate.rs
FN:126,_RNvMs_NtCsjCPvc56uTHK_18astraweave_terrain7climateNtB4_10ClimateMap12sample_chunk
FN:119,_RNvMs_NtCsjCPvc56uTHK_18astraweave_terrain7climateNtB4_10ClimateMap14sample_climate
FN:169,_RNvMs_NtCsjCPvc56uTHK_18astraweave_terrain7climateNtB4_10ClimateMap15estimate_height
FN:101,_RNvMs_NtCsjCPvc56uTHK_18astraweave_terrain7climateNtB4_10ClimateMap15sample_moisture
FN:154,_RNvMs_NtCsjCPvc56uTHK_18astraweave_terrain7climateNtB4_10ClimateMap16sample_noise_fbm
FN:84,_RNvMs_NtCsjCPvc56uTHK_18astraweave_terrain7climateNtB4_10ClimateMap18sample_temperature
FN:188,_RNvMs_NtCsjCPvc56uTHK_18astraweave_terrain7climateNtB4_10ClimateMap23estimate_water_distance
FN:75,_RNvMs_NtCsjCPvc56uTHK_18astraweave_terrain7climateNtB4_10ClimateMap3new
FN:213,_RNvMs_NtCsjCPvc56uTHK_18astraweave_terrain7climateNtB4_10ClimateMap6config
FN:23,_RNvXNtCsjCPvc56uTHK_18astraweave_terrain7climateNtB2_13ClimateConfigNtNtCsixiwFwjEgS7_4core7default7Default7default
FNDA:11,_RNvMs_NtCsjCPvc56uTHK_18astraweave_terrain7climateNtB4_10ClimateMap12sample_chunk
FNDA:180224,_RNvMs_NtCsjCPvc56uTHK_18astraweave_terrain7climateNtB4_10ClimateMap14sample_climate
FNDA:180224,_RNvMs_NtCsjCPvc56uTHK_18astraweave_terrain7climateNtB4_10ClimateMap15estimate_height
FNDA:180224,_RNvMs_NtCsjCPvc56uTHK_18astraweave_terrain7climateNtB4_10ClimateMap15sample_moisture
FNDA:720896,_RNvMs_NtCsjCPvc56uTHK_18astraweave_terrain7climateNtB4_10ClimateMap16sample_noise_fbm
FNDA:180224,_RNvMs_NtCsjCPvc56uTHK_18astraweave_terrain7climateNtB4_10ClimateMap18sample_temperature
FNDA:180224,_RNvMs_NtCsjCPvc56uTHK_18astraweave_terrain7climateNtB4_10ClimateMap23estimate_water_distance
FNDA:4,_RNvMs_NtCsjCPvc56uTHK_18astraweave_terrain7climateNtB4_10ClimateMap3new
FNDA:0,_RNvMs_NtCsjCPvc56uTHK_18astraweave_terrain7climateNtB4_10ClimateMap6config
FNDA:4,_RNvXNtCsjCPvc56uTHK_18astraweave_terrain7climateNtB2_13ClimateConfigNtNtCsixiwFwjEgS7_4core7default7Default7default
FNF:10
FNH:9
DA:23,4
DA:24,4
DA:25,4
DA:26,4
DA:27,4
DA:28,4
DA:29,4
DA:30,4
DA:31,4
DA:32,4
DA:33,4
DA:34,4
DA:35,4
DA:36,4
DA:37,4
DA:38,4
DA:39,4
DA:40,4
DA:41,4
DA:42,4
DA:43,4
DA:44,4
DA:45,4
DA:75,4
DA:76,4
DA:77,4
DA:78,4
DA:79,4
DA:80,4
DA:81,4
DA:84,180224
DA:86,180224
DA:87,180224
DA:90,180224
DA:93,180224
DA:94,180224
DA:97,180224
DA:98,180224
DA:101,180224
DA:103,180224
DA:106,180224
DA:107,180224
DA:110,180224
DA:111,180224
DA:112,180224
DA:115,180224
DA:116,180224
DA:119,180224
DA:120,180224
DA:121,180224
DA:122,180224
DA:123,180224
DA:126,11
DA:127,11
DA:128,11
DA:129,11
DA:130,11
DA:131,11
DA:132,11
DA:133,11
DA:134,11
DA:136,1408
DA:137,180224
DA:138,180224
DA:139,180224
DA:140,180224
DA:141,180224
DA:142,180224
DA:143,180224
DA:144,180224
DA:145,180224
DA:146,180224
DA:147,180224
DA:150,11
DA:151,11
DA:154,720896
DA:155,720896
DA:156,720896
DA:157,720896
DA:159,2342912
DA:160,2342912
DA:161,2342912
DA:162,2342912
DA:163,2342912
DA:165,720896
DA:166,720896
DA:169,180224
DA:171,180224
DA:172,180224
DA:173,180224
DA:174,180224
DA:175,180224
DA:176,180224
DA:177,180224
DA:178,180224
DA:179,180224
DA:180,180224
DA:181,180224
DA:182,180224
DA:184,180224
DA:185,180224
DA:188,180224
DA:190,180224
DA:191,180224
DA:192,180224
DA:193,180224
DA:194,180224
DA:195,180224
DA:196,180224
DA:197,180224
DA:198,180224
DA:199,180224
DA:200,180224
DA:201,180224
DA:205,180224
DA:206,62365
DA:208,117859
DA:210,180224
DA:213,0
DA:214,0
DA:215,0
BRF:0
BRH:0
LF:121
LH:118
end_of_record
SF:C:\Users\pv2br\source\repos\AstraWeave-AI-Native-Gaming-Engine\astraweave-terrain\src\heightmap.rs
FN:94,_RNvMs_NtCsjCPvc56uTHK_18astraweave_terrain9heightmapNtB4_9Heightmap10get_height
FN:84,_RNvMs_NtCsjCPvc56uTHK_18astraweave_terrain9heightmapNtB4_9Heightmap10max_height
FN:79,_RNvMs_NtCsjCPvc56uTHK_18astraweave_terrain9heightmapNtB4_9Heightmap10min_height
FN:74,_RNvMs_NtCsjCPvc56uTHK_18astraweave_terrain9heightmapNtB4_9Heightmap10resolution
FN:108,_RNvMs_NtCsjCPvc56uTHK_18astraweave_terrain9heightmapNtB4_9Heightmap10set_height
FN:121,_RNvMs_NtCsjCPvc56uTHK_18astraweave_terrain9heightmapNtB4_9Heightmap15sample_bilinear
FN:145,_RNvMs_NtCsjCPvc56uTHK_18astraweave_terrain9heightmapNtB4_9Heightmap16calculate_normal
FN:272,_RNvMs_NtCsjCPvc56uTHK_18astraweave_terrain9heightmapNtB4_9Heightmap16generate_indices
FN:254,_RNvMs_NtCsjCPvc56uTHK_18astraweave_terrain9heightmapNtB4_9Heightmap17generate_vertices
FN:103,_RNvMs_NtCsjCPvc56uTHK_18astraweave_terrain9heightmapNtB4_9Heightmap19get_height_at_index
FN:174,_RNvMs_NtCsjCPvc56uTHK_18astraweave_terrain9heightmapNtB4_9Heightmap23apply_hydraulic_erosion
FN:41,_RNvMs_NtCsjCPvc56uTHK_18astraweave_terrain9heightmapNtB4_9Heightmap3new
FN:89,_RNvMs_NtCsjCPvc56uTHK_18astraweave_terrain9heightmapNtB4_9Heightmap4data
FN:295,_RNvMs_NtCsjCPvc56uTHK_18astraweave_terrain9heightmapNtB4_9Heightmap6smooth
FN:52,_RNvMs_NtCsjCPvc56uTHK_18astraweave_terrain9heightmapNtB4_9Heightmap9from_data
FN:20,_RNvXNtCsjCPvc56uTHK_18astraweave_terrain9heightmapNtB2_15HeightmapConfigNtNtCsixiwFwjEgS7_4core7default7Default7default
FNDA:823296,_RNvMs_NtCsjCPvc56uTHK_18astraweave_terrain9heightmapNtB4_9Heightmap10get_height
FNDA:0,_RNvMs_NtCsjCPvc56uTHK_18astraweave_terrain9heightmapNtB4_9Heightmap10max_height
FNDA:0,_RNvMs_NtCsjCPvc56uTHK_18astraweave_terrain9heightmapNtB4_9Heightmap10min_height
FNDA:2058,_RNvMs_NtCsjCPvc56uTHK_18astraweave_terrain9heightmapNtB4_9Heightmap10resolution
FNDA:0,_RNvMs_NtCsjCPvc56uTHK_18astraweave_terrain9heightmapNtB4_9Heightmap10set_height
FNDA:1024,_RNvMs_NtCsjCPvc56uTHK_18astraweave_terrain9heightmapNtB4_9Heightmap15sample_bilinear
FNDA:163840,_RNvMs_NtCsjCPvc56uTHK_18astraweave_terrain9heightmapNtB4_9Heightmap16calculate_normal
FNDA:10,_RNvMs_NtCsjCPvc56uTHK_18astraweave_terrain9heightmapNtB4_9Heightmap16generate_indices
FNDA:0,_RNvMs_NtCsjCPvc56uTHK_18astraweave_terrain9heightmapNtB4_9Heightmap17generate_vertices
FNDA:180224,_RNvMs_NtCsjCPvc56uTHK_18astraweave_terrain9heightmapNtB4_9Heightmap19get_height_at_index
FNDA:11,_RNvMs_NtCsjCPvc56uTHK_18astraweave_terrain9heightmapNtB4_9Heightmap23apply_hydraulic_erosion
FNDA:0,_RNvMs_NtCsjCPvc56uTHK_18astraweave_terrain9heightmapNtB4_9Heightmap3new
FNDA:0,_RNvMs_NtCsjCPvc56uTHK_18astraweave_terrain9heightmapNtB4_9Heightmap4data
FNDA:0,_RNvMs_NtCsjCPvc56uTHK_18astraweave_terrain9heightmapNtB4_9Heightmap6smooth
FNDA:11,_RNvMs_NtCsjCPvc56uTHK_18astraweave_terrain9heightmapNtB4_9Heightmap9from_data
FNDA:11,_RNvXNtCsjCPvc56uTHK_18astraweave_terrain9heightmapNtB2_15HeightmapConfigNtNtCsixiwFwjEgS7_4core7default7Default7default
FNF:16
FNH:9
DA:20,11
DA:21,11
DA:22,11
DA:23,11
DA:24,11
DA:25,11
DA:26,11
DA:27,11
DA:41,0
DA:42,0
DA:43,0
DA:44,0
DA:45,0
DA:46,0
DA:47,0
DA:48,0
DA:49,0
DA:52,11
DA:53,11
DA:54,0
DA:55,0
DA:56,0
DA:57,0
DA:58,0
DA:59,0
DA:60,11
DA:62,11
DA:63,11
DA:65,11
DA:66,11
DA:67,11
DA:68,11
DA:69,11
DA:70,11
DA:71,11
DA:74,2058
DA:75,2058
DA:76,2058
DA:79,0
DA:80,0
DA:81,0
DA:84,0
DA:85,0
DA:86,0
DA:89,0
DA:90,0
DA:91,0
DA:94,823296
DA:95,823296
DA:96,0
DA:97,823296
DA:98,823296
DA:99,823296
DA:100,823296
DA:103,180224
DA:104,180224
DA:105,180224
DA:108,0
DA:109,0
DA:110,0
DA:111,0
DA:112,0
DA:113,0
DA:116,0
DA:117,0
DA:118,0
DA:121,1024
DA:122,1024
DA:123,1024
DA:125,1024
DA:126,1024
DA:127,1024
DA:128,1024
DA:130,1024
DA:131,1024
DA:133,1024
DA:134,1024
DA:135,1024
DA:136,1024
DA:138,1024
DA:139,1024
DA:141,1024
DA:142,1024
DA:145,163840
DA:146,163840
DA:147,162560
DA:149,1280
DA:151,163840
DA:152,162560
DA:154,1280
DA:156,163840
DA:157,162560
DA:159,1280
DA:161,163840
DA:162,162560
DA:164,1280
DA:167,163840
DA:168,163840
DA:170,163840
DA:171,163840
DA:174,11
DA:175,11
DA:176,11
DA:177,11
DA:178,11
DA:179,11
DA:180,11
DA:182,11
DA:183,110
DA:184,110
DA:185,110
DA:188,1802240
DA:189,1802240
DA:190,1802240
DA:193,13860
DA:194,1746360
DA:195,1746360
DA:196,1746360
DA:197,1746360
DA:198,1746360
DA:199,1746360
DA:200,1746360
DA:201,1746360
DA:202,1746360
DA:203,1746360
DA:204,1746360
DA:205,1746360
DA:206,1746360
DA:207,1746360
DA:208,1746360
DA:209,1746360
DA:210,1746360
DA:211,1746360
DA:212,1746360
DA:213,1746360
DA:214,1746360
DA:215,1746360
DA:216,1746360
DA:217,1746360
DA:218,1746360
DA:222,13860
DA:223,1746360
DA:224,1746360
DA:226,1746360
DA:227,1746360
DA:228,1746360
DA:230,1746360
DA:231,1367475
DA:232,1367475
DA:233,1367475
DA:234,1367475
DA:235,378885
DA:236,378885
DA:237,378885
DA:238,378885
DA:241,1746360
DA:247,11
DA:248,11
DA:250,11
DA:251,11
DA:254,0
DA:255,0
DA:256,0
DA:258,0
DA:259,0
DA:260,0
DA:261,0
DA:262,0
DA:263,0
DA:264,0
DA:265,0
DA:268,0
DA:269,0
DA:272,10
DA:273,10
DA:275,1270
DA:276,161290
DA:277,161290
DA:278,161290
DA:279,161290
DA:280,161290
DA:281,161290
DA:282,161290
DA:283,161290
DA:284,161290
DA:285,161290
DA:286,161290
DA:287,161290
DA:288,161290
DA:291,10
DA:292,10
DA:295,0
DA:296,0
DA:297,0
DA:299,0
DA:300,0
DA:301,0
DA:302,0
DA:303,0
DA:304,0
DA:305,0
DA:306,0
DA:307,0
DA:308,0
DA:309,0
DA:310,0
DA:313,0
DA:317,0
DA:318,0
DA:319,0
BRF:0
BRH:0
LF:210
LH:144
end_of_record
SF:C:\Users\pv2br\source\repos\AstraWeave-AI-Native-Gaming-Engine\astraweave-terrain\src\lib.rs
FN:162,_RNCNvMs_CsjCPvc56uTHK_18astraweave_terrainNtB6_14WorldGenerator21scatter_chunk_content0B6_
FN:266,_RNvMs_CsjCPvc56uTHK_18astraweave_terrainNtB4_14WorldGenerator13assign_biomes
FN:246,_RNvMs_CsjCPvc56uTHK_18astraweave_terrainNtB4_14WorldGenerator13stream_chunks
FN:194,_RNvMs_CsjCPvc56uTHK_18astraweave_terrainNtB4_14WorldGenerator14generate_chunk
FN:283,_RNvMs_CsjCPvc56uTHK_18astraweave_terrainNtB4_14WorldGenerator15find_best_biome
FN:144,_RNvMs_CsjCPvc56uTHK_18astraweave_terrainNtB4_14WorldGenerator21scatter_chunk_content
FN:234,_RNvMs_CsjCPvc56uTHK_18astraweave_terrainNtB4_14WorldGenerator27generate_and_register_chunk
FN:127,_RNvMs_CsjCPvc56uTHK_18astraweave_terrainNtB4_14WorldGenerator27generate_chunk_with_scatter
FN:109,_RNvMs_CsjCPvc56uTHK_18astraweave_terrainNtB4_14WorldGenerator3new
FN:299,_RNvMs_CsjCPvc56uTHK_18astraweave_terrainNtB4_14WorldGenerator6config
FN:241,_RNvMs_CsjCPvc56uTHK_18astraweave_terrainNtB4_14WorldGenerator9get_chunk
FN:79,_RNvXCsjCPvc56uTHK_18astraweave_terrainNtB2_11WorldConfigNtNtCsixiwFwjEgS7_4core7default7Default7default
FNDA:0,_RNCNvMs_CsjCPvc56uTHK_18astraweave_terrainNtB6_14WorldGenerator21scatter_chunk_content0B6_
FNDA:11,_RNvMs_CsjCPvc56uTHK_18astraweave_terrainNtB4_14WorldGenerator13assign_biomes
FNDA:0,_RNvMs_CsjCPvc56uTHK_18astraweave_terrainNtB4_14WorldGenerator13stream_chunks
FNDA:11,_RNvMs_CsjCPvc56uTHK_18astraweave_terrainNtB4_14WorldGenerator14generate_chunk
FNDA:180224,_RNvMs_CsjCPvc56uTHK_18astraweave_terrainNtB4_14WorldGenerator15find_best_biome
FNDA:0,_RNvMs_CsjCPvc56uTHK_18astraweave_terrainNtB4_14WorldGenerator21scatter_chunk_content
FNDA:0,_RNvMs_CsjCPvc56uTHK_18astraweave_terrainNtB4_14WorldGenerator27generate_and_register_chunk
FNDA:0,_RNvMs_CsjCPvc56uTHK_18astraweave_terrainNtB4_14WorldGenerator27generate_chunk_with_scatter
FNDA:4,_RNvMs_CsjCPvc56uTHK_18astraweave_terrainNtB4_14WorldGenerator3new
FNDA:0,_RNvMs_CsjCPvc56uTHK_18astraweave_terrainNtB4_14WorldGenerator6config
FNDA:0,_RNvMs_CsjCPvc56uTHK_18astraweave_terrainNtB4_14WorldGenerator9get_chunk
FNDA:4,_RNvXCsjCPvc56uTHK_18astraweave_terrainNtB2_11WorldConfigNtNtCsixiwFwjEgS7_4core7default7Default7default
FNF:12
FNH:5
DA:79,4
DA:80,4
DA:81,4
DA:82,4
DA:83,4
DA:84,4
DA:85,4
DA:86,4
DA:87,4
DA:88,4
DA:89,4
DA:90,4
DA:91,4
DA:92,4
DA:93,4
DA:94,4
DA:109,4
DA:110,4
DA:111,4
DA:112,4
DA:113,4
DA:114,4
DA:115,4
DA:117,4
DA:118,4
DA:119,4
DA:120,4
DA:121,4
DA:122,4
DA:123,4
DA:124,4
DA:127,0
DA:128,0
DA:129,0
DA:130,0
DA:132,0
DA:135,0
DA:138,0
DA:140,0
DA:141,0
DA:144,0
DA:145,0
DA:148,0
DA:149,0
DA:152,0
DA:153,0
DA:154,0
DA:155,0
DA:158,0
DA:159,0
DA:160,0
DA:161,0
DA:162,0
DA:163,0
DA:166,0
DA:167,0
DA:168,0
DA:169,0
DA:170,0
DA:171,0
DA:174,0
DA:175,0
DA:176,0
DA:177,0
DA:178,0
DA:179,0
DA:182,0
DA:183,0
DA:184,0
DA:185,0
DA:186,0
DA:187,0
DA:189,0
DA:190,0
DA:194,11
DA:197,11
DA:198,11
DA:199,11
DA:200,11
DA:201,11
DA:202,0
DA:212,11
DA:213,11
DA:214,11
DA:215,11
DA:216,0
DA:219,11
DA:222,11
DA:225,11
DA:226,11
DA:227,0
DA:230,11
DA:231,11
DA:234,0
DA:235,0
DA:236,0
DA:237,0
DA:238,0
DA:241,0
DA:242,0
DA:243,0
DA:246,0
DA:247,0
DA:248,0
DA:250,0
DA:251,0
DA:252,0
DA:253,0
DA:254,0
DA:258,0
DA:259,0
DA:260,0
DA:262,0
DA:263,0
DA:266,11
DA:267,11
DA:268,11
DA:269,11
DA:270,11
DA:271,11
DA:273,180224
DA:274,180224
DA:275,180224
DA:276,180224
DA:277,180224
DA:279,11
DA:280,11
DA:283,180224
DA:284,180224
DA:285,180224
DA:287,901120
DA:288,720896
DA:289,720896
DA:290,283290
DA:291,283290
DA:292,437606
DA:295,180224
DA:296,180224
DA:299,0
DA:300,0
DA:301,0
BRF:0
BRH:0
LF:142
LH:71
end_of_record
SF:C:\Users\pv2br\source\repos\AstraWeave-AI-Native-Gaming-Engine\astraweave-terrain\src\lod_blending.rs
FN:75,_RNvMs0_NtCsjCPvc56uTHK_18astraweave_terrain12lod_blendingNtB5_11MorphedMesh12vertex_count
FN:80,_RNvMs0_NtCsjCPvc56uTHK_18astraweave_terrain12lod_blendingNtB5_11MorphedMesh14triangle_count
FN:67,_RNvMs0_NtCsjCPvc56uTHK_18astraweave_terrain12lod_blendingNtB5_11MorphedMesh3new
FN:112,_RNvMs1_NtCsjCPvc56uTHK_18astraweave_terrain12lod_blendingNtB5_10LodBlender14morph_vertices
FN:198,_RNvMs1_NtCsjCPvc56uTHK_18astraweave_terrain12lod_blendingNtB5_10LodBlender18build_spatial_hash
FN:216,_RNvMs1_NtCsjCPvc56uTHK_18astraweave_terrain12lod_blendingNtB5_10LodBlender19find_nearest_vertex
FN:98,_RNvMs1_NtCsjCPvc56uTHK_18astraweave_terrain12lod_blendingNtB5_10LodBlender20compute_morph_factor
FN:256,_RNvMs1_NtCsjCPvc56uTHK_18astraweave_terrain12lod_blendingNtB5_10LodBlender22create_transition_mesh
FN:165,_RNvMs1_NtCsjCPvc56uTHK_18astraweave_terrain12lod_blendingNtB5_10LodBlender26find_vertex_correspondence
FN:92,_RNvMs1_NtCsjCPvc56uTHK_18astraweave_terrain12lod_blendingNtB5_10LodBlender3new
FN:311,_RNvMs3_NtCsjCPvc56uTHK_18astraweave_terrain12lod_blendingNtB5_18MorphingLodManager21get_mesh_for_distance
FN:285,_RNvMs3_NtCsjCPvc56uTHK_18astraweave_terrain12lod_blendingNtB5_18MorphingLodManager3new
FN:343,_RNvMs3_NtCsjCPvc56uTHK_18astraweave_terrain12lod_blendingNtB5_18MorphingLodManager9lod_count
FN:34,_RNvMs_NtCsjCPvc56uTHK_18astraweave_terrain12lod_blendingNtB4_11MorphConfig18for_lod_transition
FN:23,_RNvXNtCsjCPvc56uTHK_18astraweave_terrain12lod_blendingNtB2_11MorphConfigNtNtCsixiwFwjEgS7_4core7default7Default7default
FN:268,_RNvXs2_NtCsjCPvc56uTHK_18astraweave_terrain12lod_blendingNtB5_10LodBlenderNtNtCsixiwFwjEgS7_4core7default7Default7default
FNDA:0,_RNvMs0_NtCsjCPvc56uTHK_18astraweave_terrain12lod_blendingNtB5_11MorphedMesh12vertex_count
FNDA:0,_RNvMs0_NtCsjCPvc56uTHK_18astraweave_terrain12lod_blendingNtB5_11MorphedMesh14triangle_count
FNDA:0,_RNvMs0_NtCsjCPvc56uTHK_18astraweave_terrain12lod_blendingNtB5_11MorphedMesh3new
FNDA:0,_RNvMs1_NtCsjCPvc56uTHK_18astraweave_terrain12lod_blendingNtB5_10LodBlender14morph_vertices
FNDA:0,_RNvMs1_NtCsjCPvc56uTHK_18astraweave_terrain12lod_blendingNtB5_10LodBlender18build_spatial_hash
FNDA:0,_RNvMs1_NtCsjCPvc56uTHK_18astraweave_terrain12lod_blendingNtB5_10LodBlender19find_nearest_vertex
FNDA:0,_RNvMs1_NtCsjCPvc56uTHK_18astraweave_terrain12lod_blendingNtB5_10LodBlender20compute_morph_factor
FNDA:0,_RNvMs1_NtCsjCPvc56uTHK_18astraweave_terrain12lod_blendingNtB5_10LodBlender22create_transition_mesh
FNDA:0,_RNvMs1_NtCsjCPvc56uTHK_18astraweave_terrain12lod_blendingNtB5_10LodBlender26find_vertex_correspondence
FNDA:0,_RNvMs1_NtCsjCPvc56uTHK_18astraweave_terrain12lod_blendingNtB5_10LodBlender3new
FNDA:0,_RNvMs3_NtCsjCPvc56uTHK_18astraweave_terrain12lod_blendingNtB5_18MorphingLodManager21get_mesh_for_distance
FNDA:0,_RNvMs3_NtCsjCPvc56uTHK_18astraweave_terrain12lod_blendingNtB5_18MorphingLodManager3new
FNDA:0,_RNvMs3_NtCsjCPvc56uTHK_18astraweave_terrain12lod_blendingNtB5_18MorphingLodManager9lod_count
FNDA:0,_RNvMs_NtCsjCPvc56uTHK_18astraweave_terrain12lod_blendingNtB4_11MorphConfig18for_lod_transition
FNDA:0,_RNvXNtCsjCPvc56uTHK_18astraweave_terrain12lod_blendingNtB2_11MorphConfigNtNtCsixiwFwjEgS7_4core7default7Default7default
FNDA:0,_RNvXs2_NtCsjCPvc56uTHK_18astraweave_terrain12lod_blendingNtB5_10LodBlenderNtNtCsixiwFwjEgS7_4core7default7Default7default
FNF:16
FNH:0
DA:23,0
DA:24,0
DA:25,0
DA:26,0
DA:27,0
DA:28,0
DA:29,0
DA:34,0
DA:35,0
DA:36,0
DA:37,0
DA:38,0
DA:39,0
DA:40,0
DA:41,0
DA:67,0
DA:68,0
DA:69,0
DA:70,0
DA:71,0
DA:72,0
DA:75,0
DA:76,0
DA:77,0
DA:80,0
DA:81,0
DA:82,0
DA:92,0
DA:93,0
DA:94,0
DA:98,0
DA:99,0
DA:100,0
DA:101,0
DA:102,0
DA:105,0
DA:106,0
DA:107,0
DA:109,0
DA:112,0
DA:113,0
DA:114,0
DA:115,0
DA:116,0
DA:117,0
DA:118,0
DA:120,0
DA:121,0
DA:122,0
DA:123,0
DA:124,0
DA:126,0
DA:128,0
DA:129,0
DA:130,0
DA:131,0
DA:132,0
DA:135,0
DA:138,0
DA:141,0
DA:142,0
DA:143,0
DA:144,0
DA:145,0
DA:146,0
DA:147,0
DA:148,0
DA:149,0
DA:150,0
DA:151,0
DA:152,0
DA:153,0
DA:154,0
DA:155,0
DA:158,0
DA:159,0
DA:160,0
DA:161,0
DA:162,0
DA:165,0
DA:166,0
DA:167,0
DA:168,0
DA:169,0
DA:170,0
DA:173,0
DA:176,0
DA:177,0
DA:178,0
DA:180,0
DA:181,0
DA:183,0
DA:184,0
DA:185,0
DA:187,0
DA:189,0
DA:194,0
DA:195,0
DA:198,0
DA:199,0
DA:200,0
DA:202,0
DA:203,0
DA:204,0
DA:205,0
DA:206,0
DA:207,0
DA:208,0
DA:209,0
DA:210,0
DA:212,0
DA:213,0
DA:216,0
DA:217,0
DA:218,0
DA:219,0
DA:220,0
DA:221,0
DA:222,0
DA:223,0
DA:224,0
DA:225,0
DA:226,0
DA:229,0
DA:230,0
DA:233,0
DA:234,0
DA:235,0
DA:236,0
DA:237,0
DA:239,0
DA:240,0
DA:241,0
DA:242,0
DA:243,0
DA:244,0
DA:245,0
DA:247,0
DA:252,0
DA:253,0
DA:256,0
DA:257,0
DA:258,0
DA:259,0
DA:260,0
DA:261,0
DA:262,0
DA:263,0
DA:264,0
DA:268,0
DA:269,0
DA:270,0
DA:285,0
DA:286,0
DA:287,0
DA:288,0
DA:290,0
DA:291,0
DA:292,0
DA:293,0
DA:297,0
DA:298,0
DA:299,0
DA:300,0
DA:301,0
DA:303,0
DA:304,0
DA:305,0
DA:306,0
DA:307,0
DA:308,0
DA:311,0
DA:313,0
DA:314,0
DA:315,0
DA:316,0
DA:317,0
DA:318,0
DA:319,0
DA:323,0
DA:324,0
DA:325,0
DA:328,0
DA:329,0
DA:330,0
DA:331,0
DA:332,0
DA:333,0
DA:335,0
DA:336,0
DA:339,0
DA:340,0
DA:343,0
DA:344,0
DA:345,0
BRF:0
BRH:0
LF:195
LH:0
end_of_record
SF:C:\Users\pv2br\source\repos\AstraWeave-AI-Native-Gaming-Engine\astraweave-terrain\src\lod_manager.rs
FN:259,_RNCNvMs2_NtCsjCPvc56uTHK_18astraweave_terrain11lod_managerNtB7_10LodManager18cache_memory_usage0B9_
FN:368,_RNCNvMs2_NtCsjCPvc56uTHK_18astraweave_terrain11lod_managerNtB7_10LodManager17update_all_chunks0B9_
FN:265,_RNCNvMs2_NtCsjCPvc56uTHK_18astraweave_terrain11lod_managerNtB7_10LodManager19evict_distant_cache0B9_
FN:387,_RNCNvMs2_NtCsjCPvc56uTHK_18astraweave_terrain11lod_managerNtB7_10LodManager16is_transitioning0B9_
FN:284,_RNCNvMs2_NtCsjCPvc56uTHK_18astraweave_terrain11lod_managerNtB7_10LodManager16update_chunk_lod0B9_
FN:33,_RNvMNtCsjCPvc56uTHK_18astraweave_terrain11lod_managerNtB2_8LodLevel11skip_factor
FN:43,_RNvMNtCsjCPvc56uTHK_18astraweave_terrain11lod_managerNtB2_8LodLevel5lower
FN:53,_RNvMNtCsjCPvc56uTHK_18astraweave_terrain11lod_managerNtB2_8LodLevel6higher
FN:94,_RNvMs0_NtCsjCPvc56uTHK_18astraweave_terrain11lod_managerNtB5_9LodConfig13get_threshold
FN:188,_RNvMs1_NtCsjCPvc56uTHK_18astraweave_terrain11lod_managerNtB5_13ChunkLodCache12memory_usage
FN:153,_RNvMs1_NtCsjCPvc56uTHK_18astraweave_terrain11lod_managerNtB5_13ChunkLodCache3new
FN:163,_RNvMs1_NtCsjCPvc56uTHK_18astraweave_terrain11lod_managerNtB5_13ChunkLodCache8get_mesh
FN:183,_RNvMs1_NtCsjCPvc56uTHK_18astraweave_terrain11lod_managerNtB5_13ChunkLodCache8has_mesh
FN:173,_RNvMs1_NtCsjCPvc56uTHK_18astraweave_terrain11lod_managerNtB5_13ChunkLodCache8set_mesh
FN:242,_RNvMs2_NtCsjCPvc56uTHK_18astraweave_terrain11lod_managerNtB5_10LodManager10cache_mesh
FN:379,_RNvMs2_NtCsjCPvc56uTHK_18astraweave_terrain11lod_managerNtB5_10LodManager13get_chunk_lod
FN:248,_RNvMs2_NtCsjCPvc56uTHK_18astraweave_terrain11lod_managerNtB5_10LodManager14cache_hit_rate
FN:230,_RNvMs2_NtCsjCPvc56uTHK_18astraweave_terrain11lod_managerNtB5_10LodManager15get_cached_mesh
FN:374,_RNvMs2_NtCsjCPvc56uTHK_18astraweave_terrain11lod_managerNtB5_10LodManager15get_chunk_state
FN:392,_RNvMs2_NtCsjCPvc56uTHK_18astraweave_terrain11lod_managerNtB5_10LodManager16get_blend_factor
FN:384,_RNvMs2_NtCsjCPvc56uTHK_18astraweave_terrain11lod_managerNtB5_10LodManager16is_transitioning
FN:279,_RNvMs2_NtCsjCPvc56uTHK_18astraweave_terrain11lod_managerNtB5_10LodManager16update_chunk_lod
FN:358,_RNvMs2_NtCsjCPvc56uTHK_18astraweave_terrain11lod_managerNtB5_10LodManager17update_all_chunks
FN:258,_RNvMs2_NtCsjCPvc56uTHK_18astraweave_terrain11lod_managerNtB5_10LodManager18cache_memory_usage
FN:263,_RNvMs2_NtCsjCPvc56uTHK_18astraweave_terrain11lod_managerNtB5_10LodManager19evict_distant_cache
FN:218,_RNvMs2_NtCsjCPvc56uTHK_18astraweave_terrain11lod_managerNtB5_10LodManager3new
FN:400,_RNvMs2_NtCsjCPvc56uTHK_18astraweave_terrain11lod_managerNtB5_10LodManager9get_stats
FN:81,_RNvXs_NtCsjCPvc56uTHK_18astraweave_terrain11lod_managerNtB4_9LodConfigNtNtCsixiwFwjEgS7_4core7default7Default7default
FNDA:0,_RNCNvMs2_NtCsjCPvc56uTHK_18astraweave_terrain11lod_managerNtB7_10LodManager18cache_memory_usage0B9_
FNDA:0,_RNCNvMs2_NtCsjCPvc56uTHK_18astraweave_terrain11lod_managerNtB7_10LodManager17update_all_chunks0B9_
FNDA:0,_RNCNvMs2_NtCsjCPvc56uTHK_18astraweave_terrain11lod_managerNtB7_10LodManager19evict_distant_cache0B9_
FNDA:0,_RNCNvMs2_NtCsjCPvc56uTHK_18astraweave_terrain11lod_managerNtB7_10LodManager16is_transitioning0B9_
FNDA:0,_RNCNvMs2_NtCsjCPvc56uTHK_18astraweave_terrain11lod_managerNtB7_10LodManager16update_chunk_lod0B9_
FNDA:0,_RNvMNtCsjCPvc56uTHK_18astraweave_terrain11lod_managerNtB2_8LodLevel11skip_factor
FNDA:0,_RNvMNtCsjCPvc56uTHK_18astraweave_terrain11lod_managerNtB2_8LodLevel5lower
FNDA:0,_RNvMNtCsjCPvc56uTHK_18astraweave_terrain11lod_managerNtB2_8LodLevel6higher
FNDA:0,_RNvMs0_NtCsjCPvc56uTHK_18astraweave_terrain11lod_managerNtB5_9LodConfig13get_threshold
FNDA:0,_RNvMs1_NtCsjCPvc56uTHK_18astraweave_terrain11lod_managerNtB5_13ChunkLodCache12memory_usage
FNDA:0,_RNvMs1_NtCsjCPvc56uTHK_18astraweave_terrain11lod_managerNtB5_13ChunkLodCache3new
FNDA:0,_RNvMs1_NtCsjCPvc56uTHK_18astraweave_terrain11lod_managerNtB5_13ChunkLodCache8get_mesh
FNDA:0,_RNvMs1_NtCsjCPvc56uTHK_18astraweave_terrain11lod_managerNtB5_13ChunkLodCache8has_mesh
FNDA:0,_RNvMs1_NtCsjCPvc56uTHK_18astraweave_terrain11lod_managerNtB5_13ChunkLodCache8set_mesh
FNDA:0,_RNvMs2_NtCsjCPvc56uTHK_18astraweave_terrain11lod_managerNtB5_10LodManager10cache_mesh
FNDA:0,_RNvMs2_NtCsjCPvc56uTHK_18astraweave_terrain11lod_managerNtB5_10LodManager13get_chunk_lod
FNDA:0,_RNvMs2_NtCsjCPvc56uTHK_18astraweave_terrain11lod_managerNtB5_10LodManager14cache_hit_rate
FNDA:0,_RNvMs2_NtCsjCPvc56uTHK_18astraweave_terrain11lod_managerNtB5_10LodManager15get_cached_mesh
FNDA:0,_RNvMs2_NtCsjCPvc56uTHK_18astraweave_terrain11lod_managerNtB5_10LodManager15get_chunk_state
FNDA:0,_RNvMs2_NtCsjCPvc56uTHK_18astraweave_terrain11lod_managerNtB5_10LodManager16get_blend_factor
FNDA:0,_RNvMs2_NtCsjCPvc56uTHK_18astraweave_terrain11lod_managerNtB5_10LodManager16is_transitioning
FNDA:0,_RNvMs2_NtCsjCPvc56uTHK_18astraweave_terrain11lod_managerNtB5_10LodManager16update_chunk_lod
FNDA:0,_RNvMs2_NtCsjCPvc56uTHK_18astraweave_terrain11lod_managerNtB5_10LodManager17update_all_chunks
FNDA:0,_RNvMs2_NtCsjCPvc56uTHK_18astraweave_terrain11lod_managerNtB5_10LodManager18cache_memory_usage
FNDA:0,_RNvMs2_NtCsjCPvc56uTHK_18astraweave_terrain11lod_managerNtB5_10LodManager19evict_distant_cache
FNDA:0,_RNvMs2_NtCsjCPvc56uTHK_18astraweave_terrain11lod_managerNtB5_10LodManager3new
FNDA:0,_RNvMs2_NtCsjCPvc56uTHK_18astraweave_terrain11lod_managerNtB5_10LodManager9get_stats
FNDA:0,_RNvXs_NtCsjCPvc56uTHK_18astraweave_terrain11lod_managerNtB4_9LodConfigNtNtCsixiwFwjEgS7_4core7default7Default7default
FNF:28
FNH:0
DA:33,0
DA:34,0
DA:35,0
DA:36,0
DA:37,0
DA:38,0
DA:40,0
DA:43,0
DA:44,0
DA:45,0
DA:46,0
DA:47,0
DA:48,0
DA:50,0
DA:53,0
DA:54,0
DA:55,0
DA:56,0
DA:57,0
DA:58,0
DA:60,0
DA:81,0
DA:82,0
DA:83,0
DA:84,0
DA:85,0
DA:86,0
DA:87,0
DA:88,0
DA:89,0
DA:94,0
DA:95,0
DA:97,0
DA:100,0
DA:103,0
DA:105,0
DA:109,0
DA:111,0
DA:114,0
DA:116,0
DA:153,0
DA:154,0
DA:155,0
DA:156,0
DA:157,0
DA:158,0
DA:159,0
DA:160,0
DA:163,0
DA:164,0
DA:165,0
DA:166,0
DA:167,0
DA:168,0
DA:170,0
DA:173,0
DA:174,0
DA:175,0
DA:176,0
DA:177,0
DA:178,0
DA:180,0
DA:183,0
DA:184,0
DA:185,0
DA:188,0
DA:189,0
DA:190,0
DA:191,0
DA:192,0
DA:193,0
DA:194,0
DA:195,0
DA:218,0
DA:219,0
DA:220,0
DA:221,0
DA:222,0
DA:223,0
DA:224,0
DA:225,0
DA:226,0
DA:227,0
DA:230,0
DA:231,0
DA:232,0
DA:233,0
DA:234,0
DA:235,0
DA:236,0
DA:237,0
DA:238,0
DA:239,0
DA:242,0
DA:243,0
DA:244,0
DA:245,0
DA:248,0
DA:249,0
DA:250,0
DA:251,0
DA:253,0
DA:255,0
DA:258,0
DA:259,0
DA:260,0
DA:263,0
DA:264,0
DA:265,0
DA:266,0
DA:267,0
DA:268,0
DA:269,0
DA:270,0
DA:272,0
DA:274,0
DA:275,0
DA:276,0
DA:279,0
DA:280,0
DA:281,0
DA:284,0
DA:285,0
DA:286,0
DA:287,0
DA:288,0
DA:289,0
DA:290,0
DA:291,0
DA:293,0
DA:296,0
DA:297,0
DA:298,0
DA:299,0
DA:300,0
DA:301,0
DA:303,0
DA:307,0
DA:308,0
DA:309,0
DA:311,0
DA:312,0
DA:314,0
DA:317,0
DA:318,0
DA:319,0
DA:320,0
DA:321,0
DA:322,0
DA:323,0
DA:324,0
DA:325,0
DA:326,0
DA:327,0
DA:328,0
DA:329,0
DA:330,0
DA:333,0
DA:334,0
DA:336,0
DA:338,0
DA:340,0
DA:341,0
DA:342,0
DA:343,0
DA:344,0
DA:347,0
DA:348,0
DA:349,0
DA:350,0
DA:352,0
DA:354,0
DA:355,0
DA:358,0
DA:359,0
DA:361,0
DA:362,0
DA:363,0
DA:364,0
DA:368,0
DA:370,0
DA:371,0
DA:374,0
DA:375,0
DA:376,0
DA:379,0
DA:380,0
DA:381,0
DA:384,0
DA:385,0
DA:386,0
DA:387,0
DA:388,0
DA:389,0
DA:392,0
DA:393,0
DA:394,0
DA:395,0
DA:396,0
DA:397,0
DA:400,0
DA:401,0
DA:403,0
DA:404,0
DA:405,0
DA:406,0
DA:407,0
DA:408,0
DA:411,0
DA:412,0
DA:413,0
DA:416,0
DA:417,0
DA:418,0
BRF:0
BRH:0
LF:219
LH:0
end_of_record
SF:C:\Users\pv2br\source\repos\AstraWeave-AI-Native-Gaming-Engine\astraweave-terrain\src\meshing.rs
FN:138,_RNCNvMs0_NtCsjCPvc56uTHK_18astraweave_terrain7meshingNtB7_14DualContouring12process_cell0B9_
FN:154,_RNCNvMs0_NtCsjCPvc56uTHK_18astraweave_terrain7meshingNtB7_14DualContouring12process_cells_0B9_
FN:54,_RNvMNtCsjCPvc56uTHK_18astraweave_terrain7meshingNtB2_9ChunkMesh12memory_usage
FN:40,_RNvMNtCsjCPvc56uTHK_18astraweave_terrain7meshingNtB2_9ChunkMesh5empty
FN:49,_RNvMNtCsjCPvc56uTHK_18astraweave_terrain7meshingNtB2_9ChunkMesh8is_empty
FN:125,_RNvMs0_NtCsjCPvc56uTHK_18astraweave_terrain7meshingNtB5_14DualContouring12process_cell
FN:245,_RNvMs0_NtCsjCPvc56uTHK_18astraweave_terrain7meshingNtB5_14DualContouring13corner_offset
FN:100,_RNvMs0_NtCsjCPvc56uTHK_18astraweave_terrain7meshingNtB5_14DualContouring13generate_mesh
FN:270,_RNvMs0_NtCsjCPvc56uTHK_18astraweave_terrain7meshingNtB5_14DualContouring14sample_density
FN:174,_RNvMs0_NtCsjCPvc56uTHK_18astraweave_terrain7meshingNtB5_14DualContouring16get_cell_corners
FN:253,_RNvMs0_NtCsjCPvc56uTHK_18astraweave_terrain7meshingNtB5_14DualContouring21compute_vertex_normal
FN:189,_RNvMs0_NtCsjCPvc56uTHK_18astraweave_terrain7meshingNtB5_14DualContouring23compute_vertex_position
FN:276,_RNvMs0_NtCsjCPvc56uTHK_18astraweave_terrain7meshingNtB5_14DualContouring23generate_cell_triangles
FN:92,_RNvMs0_NtCsjCPvc56uTHK_18astraweave_terrain7meshingNtB5_14DualContouring3new
FN:358,_RNvMs2_NtCsjCPvc56uTHK_18astraweave_terrain7meshingNtB5_18AsyncMeshGenerator19generate_mesh_async
FN:365,_RNvMs2_NtCsjCPvc56uTHK_18astraweave_terrain7meshingNtB5_18AsyncMeshGenerator24generate_meshes_parallel
FN:351,_RNvMs2_NtCsjCPvc56uTHK_18astraweave_terrain7meshingNtB5_18AsyncMeshGenerator3new
FN:425,_RNvMs5_NtCsjCPvc56uTHK_18astraweave_terrain7meshingNtB5_16LodMeshGenerator16select_lod_level
FN:419,_RNvMs5_NtCsjCPvc56uTHK_18astraweave_terrain7meshingNtB5_16LodMeshGenerator17generate_mesh_lod
FN:411,_RNvMs5_NtCsjCPvc56uTHK_18astraweave_terrain7meshingNtB5_16LodMeshGenerator3new
FN:69,_RNvMs_NtCsjCPvc56uTHK_18astraweave_terrain7meshingNtB4_7EdgeKey3new
FN:339,_RNvXs1_NtCsjCPvc56uTHK_18astraweave_terrain7meshingNtB5_14DualContouringNtNtCsixiwFwjEgS7_4core7default7Default7default
FN:380,_RNvXs3_NtCsjCPvc56uTHK_18astraweave_terrain7meshingNtB5_18AsyncMeshGeneratorNtNtCsixiwFwjEgS7_4core7default7Default7default
FN:395,_RNvXs4_NtCsjCPvc56uTHK_18astraweave_terrain7meshingNtB5_9LodConfigNtNtCsixiwFwjEgS7_4core7default7Default7default
FNDA:0,_RNCNvMs0_NtCsjCPvc56uTHK_18astraweave_terrain7meshingNtB7_14DualContouring12process_cell0B9_
FNDA:0,_RNCNvMs0_NtCsjCPvc56uTHK_18astraweave_terrain7meshingNtB7_14DualContouring12process_cells_0B9_
FNDA:0,_RNvMNtCsjCPvc56uTHK_18astraweave_terrain7meshingNtB2_9ChunkMesh12memory_usage
FNDA:0,_RNvMNtCsjCPvc56uTHK_18astraweave_terrain7meshingNtB2_9ChunkMesh5empty
FNDA:0,_RNvMNtCsjCPvc56uTHK_18astraweave_terrain7meshingNtB2_9ChunkMesh8is_empty
FNDA:0,_RNvMs0_NtCsjCPvc56uTHK_18astraweave_terrain7meshingNtB5_14DualContouring12process_cell
FNDA:0,_RNvMs0_NtCsjCPvc56uTHK_18astraweave_terrain7meshingNtB5_14DualContouring13corner_offset
FNDA:0,_RNvMs0_NtCsjCPvc56uTHK_18astraweave_terrain7meshingNtB5_14DualContouring13generate_mesh
FNDA:0,_RNvMs0_NtCsjCPvc56uTHK_18astraweave_terrain7meshingNtB5_14DualContouring14sample_density
FNDA:0,_RNvMs0_NtCsjCPvc56uTHK_18astraweave_terrain7meshingNtB5_14DualContouring16get_cell_corners
FNDA:0,_RNvMs0_NtCsjCPvc56uTHK_18astraweave_terrain7meshingNtB5_14DualContouring21compute_vertex_normal
FNDA:0,_RNvMs0_NtCsjCPvc56uTHK_18astraweave_terrain7meshingNtB5_14DualContouring23compute_vertex_position
FNDA:0,_RNvMs0_NtCsjCPvc56uTHK_18astraweave_terrain7meshingNtB5_14DualContouring23generate_cell_triangles
FNDA:0,_RNvMs0_NtCsjCPvc56uTHK_18astraweave_terrain7meshingNtB5_14DualContouring3new
FNDA:0,_RNvMs2_NtCsjCPvc56uTHK_18astraweave_terrain7meshingNtB5_18AsyncMeshGenerator19generate_mesh_async
FNDA:0,_RNvMs2_NtCsjCPvc56uTHK_18astraweave_terrain7meshingNtB5_18AsyncMeshGenerator24generate_meshes_parallel
FNDA:0,_RNvMs2_NtCsjCPvc56uTHK_18astraweave_terrain7meshingNtB5_18AsyncMeshGenerator3new
FNDA:0,_RNvMs5_NtCsjCPvc56uTHK_18astraweave_terrain7meshingNtB5_16LodMeshGenerator16select_lod_level
FNDA:0,_RNvMs5_NtCsjCPvc56uTHK_18astraweave_terrain7meshingNtB5_16LodMeshGenerator17generate_mesh_lod
FNDA:0,_RNvMs5_NtCsjCPvc56uTHK_18astraweave_terrain7meshingNtB5_16LodMeshGenerator3new
FNDA:0,_RNvMs_NtCsjCPvc56uTHK_18astraweave_terrain7meshingNtB4_7EdgeKey3new
FNDA:0,_RNvXs1_NtCsjCPvc56uTHK_18astraweave_terrain7meshingNtB5_14DualContouringNtNtCsixiwFwjEgS7_4core7default7Default7default
FNDA:0,_RNvXs3_NtCsjCPvc56uTHK_18astraweave_terrain7meshingNtB5_18AsyncMeshGeneratorNtNtCsixiwFwjEgS7_4core7default7Default7default
FNDA:0,_RNvXs4_NtCsjCPvc56uTHK_18astraweave_terrain7meshingNtB5_9LodConfigNtNtCsixiwFwjEgS7_4core7default7Default7default
FNF:24
FNH:0
DA:40,0
DA:41,0
DA:42,0
DA:43,0
DA:44,0
DA:45,0
DA:46,0
DA:49,0
DA:50,0
DA:51,0
DA:54,0
DA:55,0
DA:56,0
DA:57,0
DA:58,0
DA:69,0
DA:70,0
DA:71,0
DA:72,0
DA:74,0
DA:76,0
DA:78,0
DA:92,0
DA:93,0
DA:94,0
DA:95,0
DA:96,0
DA:97,0
DA:100,0
DA:101,0
DA:102,0
DA:104,0
DA:105,0
DA:108,0
DA:109,0
DA:110,0
DA:111,0
DA:112,0
DA:113,0
DA:117,0
DA:118,0
DA:119,0
DA:120,0
DA:121,0
DA:122,0
DA:125,0
DA:126,0
DA:127,0
DA:128,0
DA:129,0
DA:130,0
DA:131,0
DA:133,0
DA:136,0
DA:137,0
DA:138,0
DA:139,0
DA:140,0
DA:144,0
DA:145,0
DA:146,0
DA:149,0
DA:150,0
DA:151,0
DA:152,0
DA:153,0
DA:154,0
DA:155,0
DA:156,0
DA:159,0
DA:160,0
DA:162,0
DA:163,0
DA:164,0
DA:165,0
DA:166,0
DA:167,0
DA:170,0
DA:171,0
DA:174,0
DA:175,0
DA:176,0
DA:177,0
DA:178,0
DA:179,0
DA:180,0
DA:181,0
DA:182,0
DA:183,0
DA:184,0
DA:185,0
DA:189,0
DA:190,0
DA:191,0
DA:192,0
DA:193,0
DA:194,0
DA:195,0
DA:196,0
DA:199,0
DA:200,0
DA:201,0
DA:202,0
DA:203,0
DA:204,0
DA:205,0
DA:206,0
DA:207,0
DA:208,0
DA:209,0
DA:210,0
DA:211,0
DA:212,0
DA:214,0
DA:215,0
DA:217,0
DA:218,0
DA:219,0
DA:222,0
DA:223,0
DA:225,0
DA:227,0
DA:229,0
DA:230,0
DA:231,0
DA:232,0
DA:233,0
DA:236,0
DA:237,0
DA:240,0
DA:242,0
DA:245,0
DA:246,0
DA:247,0
DA:248,0
DA:249,0
DA:250,0
DA:253,0
DA:254,0
DA:255,0
DA:256,0
DA:257,0
DA:258,0
DA:259,0
DA:261,0
DA:262,0
DA:263,0
DA:265,0
DA:267,0
DA:270,0
DA:271,0
DA:272,0
DA:276,0
DA:278,0
DA:281,0
DA:282,0
DA:283,0
DA:286,0
DA:287,0
DA:288,0
DA:289,0
DA:290,0
DA:291,0
DA:292,0
DA:293,0
DA:294,0
DA:295,0
DA:296,0
DA:297,0
DA:298,0
DA:299,0
DA:300,0
DA:301,0
DA:302,0
DA:303,0
DA:304,0
DA:305,0
DA:306,0
DA:307,0
DA:308,0
DA:309,0
DA:310,0
DA:314,0
DA:315,0
DA:317,0
DA:319,0
DA:320,0
DA:321,0
DA:324,0
DA:325,0
DA:326,0
DA:327,0
DA:328,0
DA:329,0
DA:330,0
DA:331,0
DA:333,0
DA:335,0
DA:339,0
DA:340,0
DA:341,0
DA:351,0
DA:352,0
DA:353,0
DA:354,0
DA:355,0
DA:358,0
DA:365,0
DA:380,0
DA:381,0
DA:382,0
DA:395,0
DA:396,0
DA:397,0
DA:398,0
DA:399,0
DA:400,0
DA:411,0
DA:412,0
DA:413,0
DA:414,0
DA:415,0
DA:416,0
DA:419,0
DA:420,0
DA:421,0
DA:422,0
DA:425,0
DA:426,0
DA:427,0
DA:428,0
DA:429,0
DA:431,0
DA:432,0
BRF:0
BRH:0
LF:236
LH:0
end_of_record
SF:C:\Users\pv2br\source\repos\AstraWeave-AI-Native-Gaming-Engine\astraweave-terrain\src\noise_gen.rs
FN:166,_RNvMs0_NtCsjCPvc56uTHK_18astraweave_terrain9noise_genNtB5_12TerrainNoise13sample_height
FN:206,_RNvMs0_NtCsjCPvc56uTHK_18astraweave_terrain9noise_genNtB5_12TerrainNoise14sample_density
FN:111,_RNvMs0_NtCsjCPvc56uTHK_18astraweave_terrain9noise_genNtB5_12TerrainNoise15create_noise_fn
FN:139,_RNvMs0_NtCsjCPvc56uTHK_18astraweave_terrain9noise_genNtB5_12TerrainNoise18generate_heightmap
FN:97,_RNvMs0_NtCsjCPvc56uTHK_18astraweave_terrain9noise_genNtB5_12TerrainNoise3new
FN:213,_RNvMs0_NtCsjCPvc56uTHK_18astraweave_terrain9noise_genNtB5_12TerrainNoise6config
FN:23,_RNvXNtCsjCPvc56uTHK_18astraweave_terrain9noise_genNtB2_11NoiseConfigNtNtCsixiwFwjEgS7_4core7default7Default7default
FN:88,_RNvXs_NtCsjCPvc56uTHK_18astraweave_terrain9noise_genNtB4_12TerrainNoiseNtNtCsixiwFwjEgS7_4core3fmt5Debug3fmt
FNDA:180224,_RNvMs0_NtCsjCPvc56uTHK_18astraweave_terrain9noise_genNtB5_12TerrainNoise13sample_height
FNDA:0,_RNvMs0_NtCsjCPvc56uTHK_18astraweave_terrain9noise_genNtB5_12TerrainNoise14sample_density
FNDA:12,_RNvMs0_NtCsjCPvc56uTHK_18astraweave_terrain9noise_genNtB5_12TerrainNoise15create_noise_fn
FNDA:0,_RNvMs0_NtCsjCPvc56uTHK_18astraweave_terrain9noise_genNtB5_12TerrainNoise18generate_heightmap
FNDA:4,_RNvMs0_NtCsjCPvc56uTHK_18astraweave_terrain9noise_genNtB5_12TerrainNoise3new
FNDA:0,_RNvMs0_NtCsjCPvc56uTHK_18astraweave_terrain9noise_genNtB5_12TerrainNoise6config
FNDA:4,_RNvXNtCsjCPvc56uTHK_18astraweave_terrain9noise_genNtB2_11NoiseConfigNtNtCsixiwFwjEgS7_4core7default7Default7default
FNDA:0,_RNvXs_NtCsjCPvc56uTHK_18astraweave_terrain9noise_genNtB4_12TerrainNoiseNtNtCsixiwFwjEgS7_4core3fmt5Debug3fmt
FNF:8
FNH:4
DA:23,4
DA:24,4
DA:25,4
DA:26,4
DA:27,4
DA:28,4
DA:29,4
DA:30,4
DA:31,4
DA:32,4
DA:33,4
DA:34,4
DA:35,4
DA:36,4
DA:37,4
DA:38,4
DA:39,4
DA:40,4
DA:41,4
DA:42,4
DA:43,4
DA:44,4
DA:45,4
DA:46,4
DA:47,4
DA:48,4
DA:49,4
DA:50,4
DA:51,4
DA:52,4
DA:53,4
DA:54,4
DA:55,4
DA:88,0
DA:89,0
DA:90,0
DA:91,0
DA:92,0
DA:97,4
DA:98,4
DA:99,4
DA:100,4
DA:102,4
DA:103,4
DA:104,4
DA:105,4
DA:106,4
DA:107,4
DA:108,4
DA:111,12
DA:112,12
DA:113,4
DA:115,4
DA:116,4
DA:117,4
DA:118,4
DA:119,4
DA:122,4
DA:123,4
DA:124,4
DA:125,4
DA:126,4
DA:129,0
DA:130,0
DA:131,0
DA:132,0
DA:133,0
DA:136,12
DA:139,0
DA:140,0
DA:141,0
DA:142,0
DA:143,0
DA:144,0
DA:145,0
DA:146,0
DA:147,0
DA:149,0
DA:150,0
DA:152,0
DA:153,0
DA:154,0
DA:155,0
DA:156,0
DA:157,0
DA:158,0
DA:159,0
DA:162,0
DA:163,0
DA:166,180224
DA:167,180224
DA:170,180224
DA:171,180224
DA:172,180224
DA:173,180224
DA:174,180224
DA:175,180224
DA:176,180224
DA:177,180224
DA:180,180224
DA:181,180224
DA:182,180224
DA:183,180224
DA:184,180224
DA:185,180224
DA:186,180224
DA:187,180224
DA:188,180224
DA:189,180224
DA:192,180224
DA:193,180224
DA:194,180224
DA:195,180224
DA:196,180224
DA:197,180224
DA:198,180224
DA:199,180224
DA:202,180224
DA:203,180224
DA:206,0
DA:208,0
DA:209,0
DA:210,0
DA:213,0
DA:214,0
DA:215,0
BRF:0
BRH:0
LF:126
LH:88
end_of_record
SF:C:\Users\pv2br\source\repos\AstraWeave-AI-Native-Gaming-Engine\astraweave-terrain\src\noise_simd.rs
FN:76,_RNvMNtCsjCPvc56uTHK_18astraweave_terrain10noise_simdNtB2_22SimdHeightmapGenerator21generate_preview_simd
FN:20,_RNvMNtCsjCPvc56uTHK_18astraweave_terrain10noise_simdNtB2_22SimdHeightmapGenerator23generate_heightmap_simd
FNDA:0,_RNvMNtCsjCPvc56uTHK_18astraweave_terrain10noise_simdNtB2_22SimdHeightmapGenerator21generate_preview_simd
FNDA:11,_RNvMNtCsjCPvc56uTHK_18astraweave_terrain10noise_simdNtB2_22SimdHeightmapGenerator23generate_heightmap_simd
FNF:2
FNH:1
DA:20,11
DA:21,11
DA:22,11
DA:23,11
DA:24,11
DA:25,11
DA:26,11
DA:27,11
DA:30,11
DA:31,11
DA:33,11
DA:34,11
DA:37,1408
DA:38,1408
DA:39,1408
DA:43,46464
DA:44,45056
DA:45,45056
DA:46,45056
DA:47,45056
DA:48,45056
DA:49,45056
DA:50,45056
DA:51,45056
DA:52,45056
DA:53,45056
DA:54,45056
DA:55,45056
DA:56,45056
DA:57,45056
DA:58,45056
DA:59,45056
DA:62,1408
DA:63,0
DA:64,0
DA:65,0
DA:66,0
DA:67,0
DA:72,11
DA:73,11
DA:76,0
DA:77,0
DA:78,0
DA:79,0
DA:80,0
DA:81,0
DA:82,0
DA:84,0
DA:85,0
DA:86,0
DA:89,0
DA:90,0
DA:91,0
DA:92,0
DA:93,0
DA:94,0
DA:95,0
DA:96,0
DA:97,0
DA:98,0
DA:99,0
DA:100,0
DA:101,0
DA:102,0
DA:103,0
DA:104,0
DA:107,0
DA:108,0
DA:109,0
DA:110,0
DA:111,0
DA:112,0
DA:115,0
DA:116,0
BRF:0
BRH:0
LF:74
LH:35
end_of_record
SF:C:\Users\pv2br\source\repos\AstraWeave-AI-Native-Gaming-Engine\astraweave-terrain\src\scatter.rs
FN:251,_RNCNvMs_NtCsjCPvc56uTHK_18astraweave_terrain7scatterNtB6_17VegetationScatter26create_vegetation_instance0B8_
FN:151,_RNCNvMs_NtCsjCPvc56uTHK_18astraweave_terrain7scatterNtB6_17VegetationScatter29generate_poisson_disk_scatter0B8_
FN:354,_RNvMs0_NtCsjCPvc56uTHK_18astraweave_terrain7scatterNtB5_13ScatterResult11total_count
FN:344,_RNvMs0_NtCsjCPvc56uTHK_18astraweave_terrain7scatterNtB5_13ScatterResult3new
FN:359,_RNvMs0_NtCsjCPvc56uTHK_18astraweave_terrain7scatterNtB5_13ScatterResult8is_empty
FN:220,_RNvMs_NtCsjCPvc56uTHK_18astraweave_terrain7scatterNtB4_17VegetationScatter14estimate_slope
FN:300,_RNvMs_NtCsjCPvc56uTHK_18astraweave_terrain7scatterNtB4_17VegetationScatter17scatter_resources
FN:63,_RNvMs_NtCsjCPvc56uTHK_18astraweave_terrain7scatterNtB4_17VegetationScatter18scatter_vegetation
FN:173,_RNvMs_NtCsjCPvc56uTHK_18astraweave_terrain7scatterNtB4_17VegetationScatter23generate_random_scatter
FN:239,_RNvMs_NtCsjCPvc56uTHK_18astraweave_terrain7scatterNtB4_17VegetationScatter26create_vegetation_instance
FN:109,_RNvMs_NtCsjCPvc56uTHK_18astraweave_terrain7scatterNtB4_17VegetationScatter29generate_poisson_disk_scatter
FN:58,_RNvMs_NtCsjCPvc56uTHK_18astraweave_terrain7scatterNtB4_17VegetationScatter3new
FN:40,_RNvXNtCsjCPvc56uTHK_18astraweave_terrain7scatterNtB2_13ScatterConfigNtNtCsixiwFwjEgS7_4core7default7Default7default
FNDA:0,_RNCNvMs_NtCsjCPvc56uTHK_18astraweave_terrain7scatterNtB6_17VegetationScatter26create_vegetation_instance0B8_
FNDA:0,_RNCNvMs_NtCsjCPvc56uTHK_18astraweave_terrain7scatterNtB6_17VegetationScatter29generate_poisson_disk_scatter0B8_
FNDA:0,_RNvMs0_NtCsjCPvc56uTHK_18astraweave_terrain7scatterNtB5_13ScatterResult11total_count
FNDA:0,_RNvMs0_NtCsjCPvc56uTHK_18astraweave_terrain7scatterNtB5_13ScatterResult3new
FNDA:0,_RNvMs0_NtCsjCPvc56uTHK_18astraweave_terrain7scatterNtB5_13ScatterResult8is_empty
FNDA:0,_RNvMs_NtCsjCPvc56uTHK_18astraweave_terrain7scatterNtB4_17VegetationScatter14estimate_slope
FNDA:0,_RNvMs_NtCsjCPvc56uTHK_18astraweave_terrain7scatterNtB4_17VegetationScatter17scatter_resources
FNDA:0,_RNvMs_NtCsjCPvc56uTHK_18astraweave_terrain7scatterNtB4_17VegetationScatter18scatter_vegetation
FNDA:0,_RNvMs_NtCsjCPvc56uTHK_18astraweave_terrain7scatterNtB4_17VegetationScatter23generate_random_scatter
FNDA:0,_RNvMs_NtCsjCPvc56uTHK_18astraweave_terrain7scatterNtB4_17VegetationScatter26create_vegetation_instance
FNDA:0,_RNvMs_NtCsjCPvc56uTHK_18astraweave_terrain7scatterNtB4_17VegetationScatter29generate_poisson_disk_scatter
FNDA:0,_RNvMs_NtCsjCPvc56uTHK_18astraweave_terrain7scatterNtB4_17VegetationScatter3new
FNDA:0,_RNvXNtCsjCPvc56uTHK_18astraweave_terrain7scatterNtB2_13ScatterConfigNtNtCsixiwFwjEgS7_4core7default7Default7default
FNF:13
FNH:0
DA:40,0
DA:41,0
DA:42,0
DA:43,0
DA:44,0
DA:45,0
DA:46,0
DA:47,0
DA:48,0
DA:58,0
DA:59,0
DA:60,0
DA:63,0
DA:64,0
DA:65,0
DA:66,0
DA:67,0
DA:68,0
DA:69,0
DA:70,0
DA:71,0
DA:73,0
DA:74,0
DA:75,0
DA:78,0
DA:79,0
DA:81,0
DA:82,0
DA:83,0
DA:85,0
DA:87,0
DA:88,0
DA:89,0
DA:90,0
DA:91,0
DA:92,0
DA:93,0
DA:94,0
DA:96,0
DA:97,0
DA:98,0
DA:99,0
DA:100,0
DA:101,0
DA:102,0
DA:105,0
DA:106,0
DA:109,0
DA:110,0
DA:111,0
DA:112,0
DA:113,0
DA:114,0
DA:115,0
DA:116,0
DA:117,0
DA:118,0
DA:119,0
DA:122,0
DA:123,0
DA:125,0
DA:126,0
DA:129,0
DA:130,0
DA:131,0
DA:134,0
DA:135,0
DA:138,0
DA:139,0
DA:140,0
DA:141,0
DA:142,0
DA:145,0
DA:146,0
DA:147,0
DA:148,0
DA:151,0
DA:152,0
DA:153,0
DA:154,0
DA:156,0
DA:157,0
DA:158,0
DA:161,0
DA:162,0
DA:163,0
DA:164,0
DA:165,0
DA:166,0
DA:169,0
DA:170,0
DA:173,0
DA:174,0
DA:175,0
DA:176,0
DA:177,0
DA:178,0
DA:179,0
DA:180,0
DA:181,0
DA:182,0
DA:184,0
DA:186,0
DA:187,0
DA:188,0
DA:191,0
DA:192,0
DA:195,0
DA:196,0
DA:197,0
DA:198,0
DA:199,0
DA:202,0
DA:203,0
DA:204,0
DA:205,0
DA:208,0
DA:209,0
DA:210,0
DA:211,0
DA:212,0
DA:213,0
DA:216,0
DA:217,0
DA:220,0
DA:221,0
DA:223,0
DA:224,0
DA:225,0
DA:226,0
DA:227,0
DA:228,0
DA:229,0
DA:231,0
DA:232,0
DA:233,0
DA:235,0
DA:236,0
DA:239,0
DA:240,0
DA:241,0
DA:242,0
DA:243,0
DA:244,0
DA:245,0
DA:247,0
DA:248,0
DA:249,0
DA:250,0
DA:251,0
DA:252,0
DA:254,0
DA:255,0
DA:256,0
DA:259,0
DA:260,0
DA:261,0
DA:262,0
DA:264,0
DA:265,0
DA:266,0
DA:268,0
DA:269,0
DA:270,0
DA:271,0
DA:272,0
DA:273,0
DA:277,0
DA:278,0
DA:280,0
DA:284,0
DA:285,0
DA:287,0
DA:290,0
DA:291,0
DA:292,0
DA:293,0
DA:294,0
DA:295,0
DA:296,0
DA:297,0
DA:300,0
DA:301,0
DA:302,0
DA:303,0
DA:304,0
DA:305,0
DA:306,0
DA:307,0
DA:308,0
DA:309,0
DA:312,0
DA:313,0
DA:314,0
DA:317,0
DA:318,0
DA:320,0
DA:321,0
DA:322,0
DA:323,0
DA:324,0
DA:325,0
DA:326,0
DA:329,0
DA:330,0
DA:344,0
DA:345,0
DA:346,0
DA:347,0
DA:348,0
DA:349,0
DA:350,0
DA:351,0
DA:354,0
DA:355,0
DA:356,0
DA:359,0
DA:360,0
DA:361,0
BRF:0
BRH:0
LF:221
LH:0
end_of_record
SF:C:\Users\pv2br\source\repos\AstraWeave-AI-Native-Gaming-Engine\astraweave-terrain\src\streaming_diagnostics.rs
FN:308,_RNCNvMs0_NtCsjCPvc56uTHK_18astraweave_terrain21streaming_diagnosticsNtB7_20StreamingDiagnostics15generate_report0B9_
FN:318,_RNCNvMs0_NtCsjCPvc56uTHK_18astraweave_terrain21streaming_diagnosticsNtB7_20StreamingDiagnostics15generate_reports0_0B9_
FN:313,_RNCNvMs0_NtCsjCPvc56uTHK_18astraweave_terrain21streaming_diagnosticsNtB7_20StreamingDiagnostics15generate_reports_0B9_
FNDA:0,_RNCNvMs0_NtCsjCPvc56uTHK_18astraweave_terrain21streaming_diagnosticsNtB7_20StreamingDiagnostics15generate_report0B9_
FNDA:0,_RNCNvMs0_NtCsjCPvc56uTHK_18astraweave_terrain21streaming_diagnosticsNtB7_20StreamingDiagnostics15generate_reports0_0B9_
FNDA:0,_RNCNvMs0_NtCsjCPvc56uTHK_18astraweave_terrain21streaming_diagnosticsNtB7_20StreamingDiagnostics15generate_reports_0B9_
FNF:3
FNH:0
DA:308,0
DA:313,0
DA:318,0
BRF:0
BRH:0
LF:3
LH:0
end_of_record
SF:C:\Users\pv2br\source\repos\AstraWeave-AI-Native-Gaming-Engine\astraweave-terrain\src\structures.rs
FN:328,_RNCNvMs1_NtCsjCPvc56uTHK_18astraweave_terrain10structuresNtB7_18StructureGenerator19generate_structures0B9_
FN:340,_RNCNvMs1_NtCsjCPvc56uTHK_18astraweave_terrain10structuresNtB7_18StructureGenerator19generate_structuress_0B9_
FN:194,_RNvMNtCsjCPvc56uTHK_18astraweave_terrain10structuresNtB2_13StructureType11min_spacing
FN:122,_RNvMNtCsjCPvc56uTHK_18astraweave_terrain10structuresNtB2_13StructureType12typical_size
FN:170,_RNvMNtCsjCPvc56uTHK_18astraweave_terrain10structuresNtB2_13StructureType18can_place_on_slope
FN:148,_RNvMNtCsjCPvc56uTHK_18astraweave_terrain10structuresNtB2_13StructureType6rarity
FN:54,_RNvMNtCsjCPvc56uTHK_18astraweave_terrain10structuresNtB2_13StructureType9for_biome
FN:291,_RNvMs0_NtCsjCPvc56uTHK_18astraweave_terrain10structuresNtB5_15StructureResult11total_count
FN:282,_RNvMs0_NtCsjCPvc56uTHK_18astraweave_terrain10structuresNtB5_15StructureResult13add_structure
FN:277,_RNvMs0_NtCsjCPvc56uTHK_18astraweave_terrain10structuresNtB5_15StructureResult3new
FN:509,_RNvMs1_NtCsjCPvc56uTHK_18astraweave_terrain10structuresNtB5_18StructureGenerator13check_spacing
FN:539,_RNvMs1_NtCsjCPvc56uTHK_18astraweave_terrain10structuresNtB5_18StructureGenerator14get_model_path
FN:311,_RNvMs1_NtCsjCPvc56uTHK_18astraweave_terrain10structuresNtB5_18StructureGenerator19generate_structures
FN:573,_RNvMs1_NtCsjCPvc56uTHK_18astraweave_terrain10structuresNtB5_18StructureGenerator19get_texture_variant
FN:371,_RNvMs1_NtCsjCPvc56uTHK_18astraweave_terrain10structuresNtB5_18StructureGenerator19try_place_structure
FN:461,_RNvMs1_NtCsjCPvc56uTHK_18astraweave_terrain10structuresNtB5_18StructureGenerator20is_suitable_location
FN:440,_RNvMs1_NtCsjCPvc56uTHK_18astraweave_terrain10structuresNtB5_18StructureGenerator21choose_structure_type
FN:305,_RNvMs1_NtCsjCPvc56uTHK_18astraweave_terrain10structuresNtB5_18StructureGenerator3new
FN:237,_RNvXs_NtCsjCPvc56uTHK_18astraweave_terrain10structuresNtB4_15StructureConfigNtNtCsixiwFwjEgS7_4core7default7Default7default
FN:446,_RNCNvMs1_NtCsjCPvc56uTHK_18astraweave_terrain10structuresNtB7_18StructureGenerator21choose_structure_type0B9_
FNDA:0,_RNCNvMs1_NtCsjCPvc56uTHK_18astraweave_terrain10structuresNtB7_18StructureGenerator19generate_structures0B9_
FNDA:0,_RNCNvMs1_NtCsjCPvc56uTHK_18astraweave_terrain10structuresNtB7_18StructureGenerator19generate_structuress_0B9_
FNDA:0,_RNvMNtCsjCPvc56uTHK_18astraweave_terrain10structuresNtB2_13StructureType11min_spacing
FNDA:0,_RNvMNtCsjCPvc56uTHK_18astraweave_terrain10structuresNtB2_13StructureType12typical_size
FNDA:0,_RNvMNtCsjCPvc56uTHK_18astraweave_terrain10structuresNtB2_13StructureType18can_place_on_slope
FNDA:0,_RNvMNtCsjCPvc56uTHK_18astraweave_terrain10structuresNtB2_13StructureType6rarity
FNDA:0,_RNvMNtCsjCPvc56uTHK_18astraweave_terrain10structuresNtB2_13StructureType9for_biome
FNDA:0,_RNvMs0_NtCsjCPvc56uTHK_18astraweave_terrain10structuresNtB5_15StructureResult11total_count
FNDA:0,_RNvMs0_NtCsjCPvc56uTHK_18astraweave_terrain10structuresNtB5_15StructureResult13add_structure
FNDA:0,_RNvMs0_NtCsjCPvc56uTHK_18astraweave_terrain10structuresNtB5_15StructureResult3new
FNDA:0,_RNvMs1_NtCsjCPvc56uTHK_18astraweave_terrain10structuresNtB5_18StructureGenerator13check_spacing
FNDA:0,_RNvMs1_NtCsjCPvc56uTHK_18astraweave_terrain10structuresNtB5_18StructureGenerator14get_model_path
FNDA:0,_RNvMs1_NtCsjCPvc56uTHK_18astraweave_terrain10structuresNtB5_18StructureGenerator19generate_structures
FNDA:0,_RNvMs1_NtCsjCPvc56uTHK_18astraweave_terrain10structuresNtB5_18StructureGenerator19get_texture_variant
FNDA:0,_RNvMs1_NtCsjCPvc56uTHK_18astraweave_terrain10structuresNtB5_18StructureGenerator19try_place_structure
FNDA:0,_RNvMs1_NtCsjCPvc56uTHK_18astraweave_terrain10structuresNtB5_18StructureGenerator20is_suitable_location
FNDA:0,_RNvMs1_NtCsjCPvc56uTHK_18astraweave_terrain10structuresNtB5_18StructureGenerator21choose_structure_type
FNDA:4,_RNvMs1_NtCsjCPvc56uTHK_18astraweave_terrain10structuresNtB5_18StructureGenerator3new
FNDA:4,_RNvXs_NtCsjCPvc56uTHK_18astraweave_terrain10structuresNtB4_15StructureConfigNtNtCsixiwFwjEgS7_4core7default7Default7default
FNDA:0,_RNCNvMs1_NtCsjCPvc56uTHK_18astraweave_terrain10structuresNtB7_18StructureGenerator21choose_structure_type0B9_
FNF:20
FNH:2
DA:54,0
DA:57,0
DA:58,0
DA:59,0
DA:60,0
DA:61,0
DA:62,0
DA:63,0
DA:64,0
DA:65,0
DA:66,0
DA:67,0
DA:68,0
DA:69,0
DA:71,0
DA:72,0
DA:73,0
DA:74,0
DA:75,0
DA:76,0
DA:77,0
DA:78,0
DA:79,0
DA:80,0
DA:81,0
DA:83,0
DA:84,0
DA:85,0
DA:86,0
DA:87,0
DA:88,0
DA:89,0
DA:90,0
DA:91,0
DA:93,0
DA:94,0
DA:95,0
DA:96,0
DA:97,0
DA:98,0
DA:99,0
DA:100,0
DA:101,0
DA:102,0
DA:104,0
DA:105,0
DA:106,0
DA:107,0
DA:108,0
DA:109,0
DA:110,0
DA:111,0
DA:113,0
DA:114,0
DA:115,0
DA:116,0
DA:119,0
DA:122,0
DA:125,0
DA:126,0
DA:127,0
DA:128,0
DA:129,0
DA:130,0
DA:131,0
DA:132,0
DA:133,0
DA:134,0
DA:135,0
DA:136,0
DA:137,0
DA:138,0
DA:139,0
DA:140,0
DA:141,0
DA:142,0
DA:143,0
DA:145,0
DA:148,0
DA:151,0
DA:153,0
DA:156,0
DA:159,0
DA:162,0
DA:165,0
DA:167,0
DA:170,0
DA:173,0
DA:175,0
DA:178,0
DA:181,0
DA:184,0
DA:187,0
DA:190,0
DA:191,0
DA:194,0
DA:197,0
DA:199,0
DA:202,0
DA:205,0
DA:208,0
DA:211,0
DA:214,0
DA:216,0
DA:237,4
DA:238,4
DA:239,4
DA:240,4
DA:241,4
DA:242,4
DA:243,4
DA:244,4
DA:245,4
DA:246,4
DA:277,0
DA:278,0
DA:279,0
DA:282,0
DA:283,0
DA:284,0
DA:285,0
DA:286,0
DA:287,0
DA:288,0
DA:291,0
DA:292,0
DA:293,0
DA:305,4
DA:306,4
DA:307,4
DA:308,4
DA:311,0
DA:312,0
DA:313,0
DA:314,0
DA:315,0
DA:316,0
DA:317,0
DA:319,0
DA:320,0
DA:321,0
DA:324,0
DA:327,0
DA:328,0
DA:329,0
DA:330,0
DA:336,0
DA:337,0
DA:339,0
DA:340,0
DA:341,0
DA:342,0
DA:348,0
DA:349,0
DA:351,0
DA:352,0
DA:353,0
DA:356,0
DA:357,0
DA:359,0
DA:360,0
DA:361,0
DA:362,0
DA:363,0
DA:364,0
DA:367,0
DA:368,0
DA:371,0
DA:372,0
DA:373,0
DA:374,0
DA:375,0
DA:376,0
DA:377,0
DA:380,0
DA:382,0
DA:385,0
DA:386,0
DA:387,0
DA:388,0
DA:389,0
DA:390,0
DA:393,0
DA:394,0
DA:395,0
DA:398,0
DA:399,0
DA:401,0
DA:402,0
DA:404,0
DA:405,0
DA:407,0
DA:408,0
DA:411,0
DA:412,0
DA:413,0
DA:416,0
DA:417,0
DA:418,0
DA:421,0
DA:422,0
DA:423,0
DA:424,0
DA:426,0
DA:427,0
DA:428,0
DA:429,0
DA:430,0
DA:431,0
DA:432,0
DA:433,0
DA:436,0
DA:437,0
DA:440,0
DA:441,0
DA:442,0
DA:443,0
DA:446,0
DA:447,0
DA:449,0
DA:450,0
DA:451,0
DA:452,0
DA:453,0
DA:457,0
DA:458,0
DA:461,0
DA:462,0
DA:463,0
DA:464,0
DA:465,0
DA:466,0
DA:467,0
DA:468,0
DA:469,0
DA:472,0
DA:473,0
DA:475,0
DA:476,0
DA:477,0
DA:478,0
DA:479,0
DA:480,0
DA:481,0
DA:482,0
DA:483,0
DA:484,0
DA:485,0
DA:486,0
DA:489,0
DA:490,0
DA:491,0
DA:492,0
DA:493,0
DA:494,0
DA:497,0
DA:498,0
DA:499,0
DA:502,0
DA:505,0
DA:506,0
DA:509,0
DA:510,0
DA:511,0
DA:512,0
DA:513,0
DA:514,0
DA:515,0
DA:517,0
DA:518,0
DA:521,0
DA:522,0
DA:523,0
DA:526,0
DA:527,0
DA:528,0
DA:530,0
DA:531,0
DA:532,0
DA:535,0
DA:536,0
DA:539,0
DA:542,0
DA:543,0
DA:544,0
DA:545,0
DA:546,0
DA:547,0
DA:548,0
DA:549,0
DA:550,0
DA:551,0
DA:552,0
DA:553,0
DA:554,0
DA:555,0
DA:556,0
DA:557,0
DA:558,0
DA:559,0
DA:560,0
DA:561,0
DA:562,0
DA:563,0
DA:564,0
DA:565,0
DA:566,0
DA:569,0
DA:570,0
DA:573,0
DA:577,0
DA:578,0
DA:579,0
DA:580,0
DA:581,0
DA:582,0
DA:583,0
DA:586,0
DA:587,0
DA:589,0
DA:590,0
DA:592,0
BRF:0
BRH:0
LF:325
LH:14
end_of_record
SF:C:\Users\pv2br\source\repos\AstraWeave-AI-Native-Gaming-Engine\astraweave-terrain\src\voxel_data.rs
FN:379,_RNCNvMs3_NtCsjCPvc56uTHK_18astraweave_terrain10voxel_dataNtB7_9VoxelGrid12remove_chunk0B9_
FN:374,_RNCNvMs3_NtCsjCPvc56uTHK_18astraweave_terrain10voxel_dataNtB7_9VoxelGrid16mark_chunk_clean0B9_
FN:390,_RNCNvMs3_NtCsjCPvc56uTHK_18astraweave_terrain10voxel_dataNtB7_9VoxelGrid12memory_usage0B9_
FN:150,_RNCNvMs1_NtCsjCPvc56uTHK_18astraweave_terrain10voxel_dataNtB7_10OctreeNode9get_voxel0B9_
FN:230,_RNCNvMs2_NtCsjCPvc56uTHK_18astraweave_terrain10voxel_dataNtB7_10VoxelChunk9get_voxel0B9_
FN:342,_RNCNvMs3_NtCsjCPvc56uTHK_18astraweave_terrain10voxel_dataNtB7_9VoxelGrid19get_or_create_chunk0B9_
FN:361,_RNCNvMs3_NtCsjCPvc56uTHK_18astraweave_terrain10voxel_dataNtB7_9VoxelGrid9get_voxel0B9_
FN:51,_RNvMNtCsjCPvc56uTHK_18astraweave_terrain10voxel_dataNtB2_10ChunkCoord12to_world_pos
FN:42,_RNvMNtCsjCPvc56uTHK_18astraweave_terrain10voxel_dataNtB2_10ChunkCoord14from_world_pos
FN:37,_RNvMNtCsjCPvc56uTHK_18astraweave_terrain10voxel_dataNtB2_10ChunkCoord3new
FN:60,_RNvMNtCsjCPvc56uTHK_18astraweave_terrain10voxel_dataNtB2_10ChunkCoord9neighbors
FN:92,_RNvMs0_NtCsjCPvc56uTHK_18astraweave_terrain10voxel_dataNtB5_5Voxel3new
FN:102,_RNvMs0_NtCsjCPvc56uTHK_18astraweave_terrain10voxel_dataNtB5_5Voxel8is_empty
FN:97,_RNvMs0_NtCsjCPvc56uTHK_18astraweave_terrain10voxel_dataNtB5_5Voxel8is_solid
FN:128,_RNvMs1_NtCsjCPvc56uTHK_18astraweave_terrain10voxel_dataNtB5_10OctreeNode11child_index
FN:118,_RNvMs1_NtCsjCPvc56uTHK_18astraweave_terrain10voxel_dataNtB5_10OctreeNode4leaf
FN:123,_RNvMs1_NtCsjCPvc56uTHK_18astraweave_terrain10voxel_dataNtB5_10OctreeNode8internal
FN:137,_RNvMs1_NtCsjCPvc56uTHK_18astraweave_terrain10voxel_dataNtB5_10OctreeNode9get_voxel
FN:156,_RNvMs1_NtCsjCPvc56uTHK_18astraweave_terrain10voxel_dataNtB5_10OctreeNode9set_voxel
FN:219,_RNvMs2_NtCsjCPvc56uTHK_18astraweave_terrain10voxel_dataNtB5_10VoxelChunk10mark_clean
FN:288,_RNvMs2_NtCsjCPvc56uTHK_18astraweave_terrain10voxel_dataNtB5_10VoxelChunk12memory_usage
FN:272,_RNvMs2_NtCsjCPvc56uTHK_18astraweave_terrain10voxel_dataNtB5_10VoxelChunk14world_to_local
FN:260,_RNvMs2_NtCsjCPvc56uTHK_18astraweave_terrain10voxel_dataNtB5_10VoxelChunk15get_voxel_world
FN:266,_RNvMs2_NtCsjCPvc56uTHK_18astraweave_terrain10voxel_dataNtB5_10VoxelChunk15set_voxel_world
FN:293,_RNvMs2_NtCsjCPvc56uTHK_18astraweave_terrain10voxel_dataNtB5_10VoxelChunk18estimate_tree_size
FN:250,_RNvMs2_NtCsjCPvc56uTHK_18astraweave_terrain10voxel_dataNtB5_10VoxelChunk18is_valid_local_pos
FN:200,_RNvMs2_NtCsjCPvc56uTHK_18astraweave_terrain10voxel_dataNtB5_10VoxelChunk3new
FN:209,_RNvMs2_NtCsjCPvc56uTHK_18astraweave_terrain10voxel_dataNtB5_10VoxelChunk5coord
FN:214,_RNvMs2_NtCsjCPvc56uTHK_18astraweave_terrain10voxel_dataNtB5_10VoxelChunk8is_dirty
FN:283,_RNvMs2_NtCsjCPvc56uTHK_18astraweave_terrain10voxel_dataNtB5_10VoxelChunk8is_empty
FN:224,_RNvMs2_NtCsjCPvc56uTHK_18astraweave_terrain10voxel_dataNtB5_10VoxelChunk9get_voxel
FN:234,_RNvMs2_NtCsjCPvc56uTHK_18astraweave_terrain10voxel_dataNtB5_10VoxelChunk9set_voxel
FN:384,_RNvMs3_NtCsjCPvc56uTHK_18astraweave_terrain10voxel_dataNtB5_9VoxelGrid11chunk_count
FN:400,_RNvMs3_NtCsjCPvc56uTHK_18astraweave_terrain10voxel_dataNtB5_9VoxelGrid12chunk_coords
FN:365,_RNvMs3_NtCsjCPvc56uTHK_18astraweave_terrain10voxel_dataNtB5_9VoxelGrid12dirty_chunks
FN:389,_RNvMs3_NtCsjCPvc56uTHK_18astraweave_terrain10voxel_dataNtB5_9VoxelGrid12memory_usage
FN:378,_RNvMs3_NtCsjCPvc56uTHK_18astraweave_terrain10voxel_dataNtB5_9VoxelGrid12remove_chunk
FN:334,_RNvMs3_NtCsjCPvc56uTHK_18astraweave_terrain10voxel_dataNtB5_9VoxelGrid13get_chunk_mut
FN:370,_RNvMs3_NtCsjCPvc56uTHK_18astraweave_terrain10voxel_dataNtB5_9VoxelGrid16mark_chunk_clean
FN:339,_RNvMs3_NtCsjCPvc56uTHK_18astraweave_terrain10voxel_dataNtB5_9VoxelGrid19get_or_create_chunk
FN:321,_RNvMs3_NtCsjCPvc56uTHK_18astraweave_terrain10voxel_dataNtB5_9VoxelGrid3new
FN:394,_RNvMs3_NtCsjCPvc56uTHK_18astraweave_terrain10voxel_dataNtB5_9VoxelGrid5clear
FN:329,_RNvMs3_NtCsjCPvc56uTHK_18astraweave_terrain10voxel_dataNtB5_9VoxelGrid9get_chunk
FN:357,_RNvMs3_NtCsjCPvc56uTHK_18astraweave_terrain10voxel_dataNtB5_9VoxelGrid9get_voxel
FN:346,_RNvMs3_NtCsjCPvc56uTHK_18astraweave_terrain10voxel_dataNtB5_9VoxelGrid9set_voxel
FN:294,_RNvNvMs2_NtCsjCPvc56uTHK_18astraweave_terrain10voxel_dataNtB7_10VoxelChunk18estimate_tree_size9node_size
FN:406,_RNvXs4_NtCsjCPvc56uTHK_18astraweave_terrain10voxel_dataNtB5_9VoxelGridNtNtCsixiwFwjEgS7_4core7default7Default7default
FN:82,_RNvXs_NtCsjCPvc56uTHK_18astraweave_terrain10voxel_dataNtB4_5VoxelNtNtCsixiwFwjEgS7_4core7default7Default7default
FNDA:0,_RNCNvMs3_NtCsjCPvc56uTHK_18astraweave_terrain10voxel_dataNtB7_9VoxelGrid12remove_chunk0B9_
FNDA:0,_RNCNvMs3_NtCsjCPvc56uTHK_18astraweave_terrain10voxel_dataNtB7_9VoxelGrid16mark_chunk_clean0B9_
FNDA:0,_RNCNvMs3_NtCsjCPvc56uTHK_18astraweave_terrain10voxel_dataNtB7_9VoxelGrid12memory_usage0B9_
FNDA:0,_RNCNvMs1_NtCsjCPvc56uTHK_18astraweave_terrain10voxel_dataNtB7_10OctreeNode9get_voxel0B9_
FNDA:0,_RNCNvMs2_NtCsjCPvc56uTHK_18astraweave_terrain10voxel_dataNtB7_10VoxelChunk9get_voxel0B9_
FNDA:0,_RNCNvMs3_NtCsjCPvc56uTHK_18astraweave_terrain10voxel_dataNtB7_9VoxelGrid19get_or_create_chunk0B9_
FNDA:0,_RNCNvMs3_NtCsjCPvc56uTHK_18astraweave_terrain10voxel_dataNtB7_9VoxelGrid9get_voxel0B9_
FNDA:0,_RNvMNtCsjCPvc56uTHK_18astraweave_terrain10voxel_dataNtB2_10ChunkCoord12to_world_pos
FNDA:0,_RNvMNtCsjCPvc56uTHK_18astraweave_terrain10voxel_dataNtB2_10ChunkCoord14from_world_pos
FNDA:0,_RNvMNtCsjCPvc56uTHK_18astraweave_terrain10voxel_dataNtB2_10ChunkCoord3new
FNDA:0,_RNvMNtCsjCPvc56uTHK_18astraweave_terrain10voxel_dataNtB2_10ChunkCoord9neighbors
FNDA:0,_RNvMs0_NtCsjCPvc56uTHK_18astraweave_terrain10voxel_dataNtB5_5Voxel3new
FNDA:0,_RNvMs0_NtCsjCPvc56uTHK_18astraweave_terrain10voxel_dataNtB5_5Voxel8is_empty
FNDA:0,_RNvMs0_NtCsjCPvc56uTHK_18astraweave_terrain10voxel_dataNtB5_5Voxel8is_solid
FNDA:0,_RNvMs1_NtCsjCPvc56uTHK_18astraweave_terrain10voxel_dataNtB5_10OctreeNode11child_index
FNDA:0,_RNvMs1_NtCsjCPvc56uTHK_18astraweave_terrain10voxel_dataNtB5_10OctreeNode4leaf
FNDA:0,_RNvMs1_NtCsjCPvc56uTHK_18astraweave_terrain10voxel_dataNtB5_10OctreeNode8internal
FNDA:0,_RNvMs1_NtCsjCPvc56uTHK_18astraweave_terrain10voxel_dataNtB5_10OctreeNode9get_voxel
FNDA:0,_RNvMs1_NtCsjCPvc56uTHK_18astraweave_terrain10voxel_dataNtB5_10OctreeNode9set_voxel
FNDA:0,_RNvMs2_NtCsjCPvc56uTHK_18astraweave_terrain10voxel_dataNtB5_10VoxelChunk10mark_clean
FNDA:0,_RNvMs2_NtCsjCPvc56uTHK_18astraweave_terrain10voxel_dataNtB5_10VoxelChunk12memory_usage
FNDA:0,_RNvMs2_NtCsjCPvc56uTHK_18astraweave_terrain10voxel_dataNtB5_10VoxelChunk14world_to_local
FNDA:0,_RNvMs2_NtCsjCPvc56uTHK_18astraweave_terrain10voxel_dataNtB5_10VoxelChunk15get_voxel_world
FNDA:0,_RNvMs2_NtCsjCPvc56uTHK_18astraweave_terrain10voxel_dataNtB5_10VoxelChunk15set_voxel_world
FNDA:0,_RNvMs2_NtCsjCPvc56uTHK_18astraweave_terrain10voxel_dataNtB5_10VoxelChunk18estimate_tree_size
FNDA:0,_RNvMs2_NtCsjCPvc56uTHK_18astraweave_terrain10voxel_dataNtB5_10VoxelChunk18is_valid_local_pos
FNDA:0,_RNvMs2_NtCsjCPvc56uTHK_18astraweave_terrain10voxel_dataNtB5_10VoxelChunk3new
FNDA:0,_RNvMs2_NtCsjCPvc56uTHK_18astraweave_terrain10voxel_dataNtB5_10VoxelChunk5coord
FNDA:0,_RNvMs2_NtCsjCPvc56uTHK_18astraweave_terrain10voxel_dataNtB5_10VoxelChunk8is_dirty
FNDA:0,_RNvMs2_NtCsjCPvc56uTHK_18astraweave_terrain10voxel_dataNtB5_10VoxelChunk8is_empty
FNDA:0,_RNvMs2_NtCsjCPvc56uTHK_18astraweave_terrain10voxel_dataNtB5_10VoxelChunk9get_voxel
FNDA:0,_RNvMs2_NtCsjCPvc56uTHK_18astraweave_terrain10voxel_dataNtB5_10VoxelChunk9set_voxel
FNDA:0,_RNvMs3_NtCsjCPvc56uTHK_18astraweave_terrain10voxel_dataNtB5_9VoxelGrid11chunk_count
FNDA:0,_RNvMs3_NtCsjCPvc56uTHK_18astraweave_terrain10voxel_dataNtB5_9VoxelGrid12chunk_coords
FNDA:0,_RNvMs3_NtCsjCPvc56uTHK_18astraweave_terrain10voxel_dataNtB5_9VoxelGrid12dirty_chunks
FNDA:0,_RNvMs3_NtCsjCPvc56uTHK_18astraweave_terrain10voxel_dataNtB5_9VoxelGrid12memory_usage
FNDA:0,_RNvMs3_NtCsjCPvc56uTHK_18astraweave_terrain10voxel_dataNtB5_9VoxelGrid12remove_chunk
FNDA:0,_RNvMs3_NtCsjCPvc56uTHK_18astraweave_terrain10voxel_dataNtB5_9VoxelGrid13get_chunk_mut
FNDA:0,_RNvMs3_NtCsjCPvc56uTHK_18astraweave_terrain10voxel_dataNtB5_9VoxelGrid16mark_chunk_clean
FNDA:0,_RNvMs3_NtCsjCPvc56uTHK_18astraweave_terrain10voxel_dataNtB5_9VoxelGrid19get_or_create_chunk
FNDA:0,_RNvMs3_NtCsjCPvc56uTHK_18astraweave_terrain10voxel_dataNtB5_9VoxelGrid3new
FNDA:0,_RNvMs3_NtCsjCPvc56uTHK_18astraweave_terrain10voxel_dataNtB5_9VoxelGrid5clear
FNDA:0,_RNvMs3_NtCsjCPvc56uTHK_18astraweave_terrain10voxel_dataNtB5_9VoxelGrid9get_chunk
FNDA:0,_RNvMs3_NtCsjCPvc56uTHK_18astraweave_terrain10voxel_dataNtB5_9VoxelGrid9get_voxel
FNDA:0,_RNvMs3_NtCsjCPvc56uTHK_18astraweave_terrain10voxel_dataNtB5_9VoxelGrid9set_voxel
FNDA:0,_RNvNvMs2_NtCsjCPvc56uTHK_18astraweave_terrain10voxel_dataNtB7_10VoxelChunk18estimate_tree_size9node_size
FNDA:0,_RNvXs4_NtCsjCPvc56uTHK_18astraweave_terrain10voxel_dataNtB5_9VoxelGridNtNtCsixiwFwjEgS7_4core7default7Default7default
FNDA:0,_RNvXs_NtCsjCPvc56uTHK_18astraweave_terrain10voxel_dataNtB4_5VoxelNtNtCsixiwFwjEgS7_4core7default7Default7default
FNF:48
FNH:0
DA:37,0
DA:38,0
DA:39,0
DA:42,0
DA:43,0
DA:44,0
DA:45,0
DA:46,0
DA:47,0
DA:48,0
DA:51,0
DA:52,0
DA:53,0
DA:54,0
DA:55,0
DA:57,0
DA:60,0
DA:61,0
DA:62,0
DA:63,0
DA:64,0
DA:65,0
DA:66,0
DA:67,0
DA:68,0
DA:69,0
DA:82,0
DA:83,0
DA:84,0
DA:85,0
DA:86,0
DA:87,0
DA:92,0
DA:93,0
DA:94,0
DA:97,0
DA:98,0
DA:99,0
DA:102,0
DA:103,0
DA:104,0
DA:118,0
DA:119,0
DA:120,0
DA:123,0
DA:124,0
DA:125,0
DA:128,0
DA:129,0
DA:130,0
DA:131,0
DA:132,0
DA:133,0
DA:134,0
DA:137,0
DA:138,0
DA:139,0
DA:140,0
DA:141,0
DA:142,0
DA:143,0
DA:144,0
DA:145,0
DA:146,0
DA:147,0
DA:148,0
DA:149,0
DA:150,0
DA:153,0
DA:156,0
DA:157,0
DA:159,0
DA:160,0
DA:161,0
DA:163,0
DA:164,0
DA:165,0
DA:166,0
DA:167,0
DA:168,0
DA:169,0
DA:170,0
DA:171,0
DA:172,0
DA:173,0
DA:175,0
DA:176,0
DA:177,0
DA:179,0
DA:180,0
DA:181,0
DA:184,0
DA:200,0
DA:201,0
DA:202,0
DA:203,0
DA:204,0
DA:205,0
DA:206,0
DA:209,0
DA:210,0
DA:211,0
DA:214,0
DA:215,0
DA:216,0
DA:219,0
DA:220,0
DA:221,0
DA:224,0
DA:225,0
DA:226,0
DA:227,0
DA:228,0
DA:229,0
DA:230,0
DA:231,0
DA:234,0
DA:235,0
DA:236,0
DA:237,0
DA:239,0
DA:240,0
DA:241,0
DA:243,0
DA:244,0
DA:245,0
DA:246,0
DA:247,0
DA:250,0
DA:251,0
DA:252,0
DA:253,0
DA:254,0
DA:255,0
DA:256,0
DA:257,0
DA:260,0
DA:261,0
DA:262,0
DA:263,0
DA:266,0
DA:267,0
DA:268,0
DA:269,0
DA:272,0
DA:273,0
DA:274,0
DA:275,0
DA:276,0
DA:277,0
DA:278,0
DA:280,0
DA:283,0
DA:284,0
DA:285,0
DA:288,0
DA:289,0
DA:290,0
DA:293,0
DA:294,0
DA:295,0
DA:296,0
DA:297,0
DA:298,0
DA:299,0
DA:300,0
DA:301,0
DA:302,0
DA:305,0
DA:306,0
DA:307,0
DA:321,0
DA:322,0
DA:323,0
DA:324,0
DA:325,0
DA:326,0
DA:329,0
DA:330,0
DA:331,0
DA:334,0
DA:335,0
DA:336,0
DA:339,0
DA:340,0
DA:341,0
DA:342,0
DA:343,0
DA:346,0
DA:347,0
DA:348,0
DA:349,0
DA:351,0
DA:352,0
DA:353,0
DA:354,0
DA:357,0
DA:358,0
DA:359,0
DA:360,0
DA:361,0
DA:362,0
DA:365,0
DA:366,0
DA:367,0
DA:370,0
DA:371,0
DA:372,0
DA:373,0
DA:374,0
DA:375,0
DA:378,0
DA:379,0
DA:380,0
DA:381,0
DA:384,0
DA:385,0
DA:386,0
DA:389,0
DA:390,0
DA:391,0
DA:394,0
DA:395,0
DA:396,0
DA:397,0
DA:400,0
DA:401,0
DA:402,0
DA:406,0
DA:407,0
DA:408,0
BRF:0
BRH:0
LF:238
LH:0
end_of_record