SF:C:\Users\pv2br\source\repos\AstraWeave-AI-Native-Gaming-Engine\astraweave-asset\src\cell_loader.rs
FN:222,_RNCNvNtCsiKhCcLvPDYn_16astraweave_asset11cell_loader10load_asset0Cs5dIHLaZY3XA_10unit_tests
FN:160,_RNCNvNtCsiKhCcLvPDYn_16astraweave_asset11cell_loader18load_cell_from_ron0Cs5dIHLaZY3XA_10unit_tests
FN:134,_RNCNvMs0_NtCsiKhCcLvPDYn_16astraweave_asset11cell_loaderNtB7_8CellData9add_asset0B9_
FN:127,_RNvMs0_NtCsiKhCcLvPDYn_16astraweave_asset11cell_loaderNtB5_8CellData10add_entity
FN:140,_RNvMs0_NtCsiKhCcLvPDYn_16astraweave_asset11cell_loaderNtB5_8CellData15memory_estimate
FN:117,_RNvMs0_NtCsiKhCcLvPDYn_16astraweave_asset11cell_loaderNtB5_8CellData3new
FN:132,_RNvMs0_NtCsiKhCcLvPDYn_16astraweave_asset11cell_loaderNtB5_8CellData9add_asset
FN:90,_RNvMs_NtCsiKhCcLvPDYn_16astraweave_asset11cell_loaderNtB4_10EntityData13with_material
FN:68,_RNvMs_NtCsiKhCcLvPDYn_16astraweave_asset11cell_loaderNtB4_10EntityData3new
FN:222,_RNvNtCsiKhCcLvPDYn_16astraweave_asset11cell_loader10load_asset
FN:185,_RNvNtCsiKhCcLvPDYn_16astraweave_asset11cell_loader16save_cell_to_ron
FN:160,_RNvNtCsiKhCcLvPDYn_16astraweave_asset11cell_loader18load_cell_from_ron
FN:310,_RNvNtCsiKhCcLvPDYn_16astraweave_asset11cell_loader20cell_path_from_coord
FN:271,_RNvNtCsiKhCcLvPDYn_16astraweave_asset11cell_loader20validate_mesh_format
FN:206,_RNvNtCsiKhCcLvPDYn_16astraweave_asset11cell_loader21save_cell_to_ron_sync
FN:174,_RNvNtCsiKhCcLvPDYn_16astraweave_asset11cell_loader23load_cell_from_ron_sync
FN:291,_RNvNtCsiKhCcLvPDYn_16astraweave_asset11cell_loader23validate_texture_format
FNDA:0,_RNCNvNtCsiKhCcLvPDYn_16astraweave_asset11cell_loader10load_asset0Cs5dIHLaZY3XA_10unit_tests
FNDA:2,_RNCNvNtCsiKhCcLvPDYn_16astraweave_asset11cell_loader18load_cell_from_ron0Cs5dIHLaZY3XA_10unit_tests
FNDA:0,_RNCNvMs0_NtCsiKhCcLvPDYn_16astraweave_asset11cell_loaderNtB7_8CellData9add_asset0B9_
FNDA:0,_RNvMs0_NtCsiKhCcLvPDYn_16astraweave_asset11cell_loaderNtB5_8CellData10add_entity
FNDA:0,_RNvMs0_NtCsiKhCcLvPDYn_16astraweave_asset11cell_loaderNtB5_8CellData15memory_estimate
FNDA:0,_RNvMs0_NtCsiKhCcLvPDYn_16astraweave_asset11cell_loaderNtB5_8CellData3new
FNDA:0,_RNvMs0_NtCsiKhCcLvPDYn_16astraweave_asset11cell_loaderNtB5_8CellData9add_asset
FNDA:0,_RNvMs_NtCsiKhCcLvPDYn_16astraweave_asset11cell_loaderNtB4_10EntityData13with_material
FNDA:0,_RNvMs_NtCsiKhCcLvPDYn_16astraweave_asset11cell_loaderNtB4_10EntityData3new
FNDA:0,_RNvNtCsiKhCcLvPDYn_16astraweave_asset11cell_loader10load_asset
FNDA:0,_RNvNtCsiKhCcLvPDYn_16astraweave_asset11cell_loader16save_cell_to_ron
FNDA:2,_RNvNtCsiKhCcLvPDYn_16astraweave_asset11cell_loader18load_cell_from_ron
FNDA:0,_RNvNtCsiKhCcLvPDYn_16astraweave_asset11cell_loader20cell_path_from_coord
FNDA:0,_RNvNtCsiKhCcLvPDYn_16astraweave_asset11cell_loader20validate_mesh_format
FNDA:0,_RNvNtCsiKhCcLvPDYn_16astraweave_asset11cell_loader21save_cell_to_ron_sync
FNDA:0,_RNvNtCsiKhCcLvPDYn_16astraweave_asset11cell_loader23load_cell_from_ron_sync
FNDA:0,_RNvNtCsiKhCcLvPDYn_16astraweave_asset11cell_loader23validate_texture_format
FNF:17
FNH:2
DA:68,0
DA:69,0
DA:70,0
DA:71,0
DA:72,0
DA:73,0
DA:74,0
DA:75,0
DA:76,0
DA:77,0
DA:78,0
DA:90,0
DA:91,0
DA:92,0
DA:93,0
DA:117,0
DA:118,0
DA:119,0
DA:120,0
DA:121,0
DA:122,0
DA:123,0
DA:124,0
DA:127,0
DA:128,0
DA:129,0
DA:132,0
DA:134,0
DA:135,0
DA:136,0
DA:137,0
DA:140,0
DA:141,0
DA:142,0
DA:143,0
DA:144,0
DA:145,0
DA:160,2
DA:162,2
DA:163,2
DA:164,2
DA:167,0
DA:168,0
DA:170,0
DA:171,2
DA:174,0
DA:175,0
DA:176,0
DA:178,0
DA:179,0
DA:181,0
DA:182,0
DA:185,0
DA:206,0
DA:207,0
DA:208,0
DA:210,0
DA:211,0
DA:212,0
DA:213,0
DA:215,0
DA:216,0
DA:218,0
DA:219,0
DA:222,0
DA:223,0
DA:225,0
DA:227,0
DA:228,0
DA:229,0
DA:231,0
DA:232,0
DA:235,0
DA:236,0
DA:237,0
DA:239,0
DA:240,0
DA:243,0
DA:244,0
DA:245,0
DA:246,0
DA:249,0
DA:250,0
DA:251,0
DA:252,0
DA:255,0
DA:256,0
DA:257,0
DA:258,0
DA:259,0
DA:262,0
DA:263,0
DA:264,0
DA:265,0
DA:268,0
DA:271,0
DA:272,0
DA:274,0
DA:275,0
DA:276,0
DA:277,0
DA:278,0
DA:280,0
DA:281,0
DA:282,0
DA:283,0
DA:284,0
DA:285,0
DA:287,0
DA:288,0
DA:291,0
DA:292,0
DA:294,0
DA:295,0
DA:296,0
DA:297,0
DA:298,0
DA:300,0
DA:301,0
DA:302,0
DA:303,0
DA:304,0
DA:306,0
DA:307,0
DA:310,0
DA:311,0
DA:312,0
BRF:0
BRH:0
LF:130
LH:6
end_of_record
SF:C:\Users\pv2br\source\repos\AstraWeave-AI-Native-Gaming-Engine\astraweave-asset\src\lib.rs
FN:1573,_RNCNvCsiKhCcLvPDYn_16astraweave_asset16infer_asset_kind0B3_
FN:1588,_RNCNvCsiKhCcLvPDYn_16astraweave_asset18infer_dependencies0B3_
FN:1256,_RNvCsiKhCcLvPDYn_16astraweave_asset13guid_for_path
FN:1572,_RNvCsiKhCcLvPDYn_16astraweave_asset16infer_asset_kind
FN:1633,_RNvCsiKhCcLvPDYn_16astraweave_asset17compute_file_hash
FN:1584,_RNvCsiKhCcLvPDYn_16astraweave_asset18infer_dependencies
FN:1247,_RNvMCsiKhCcLvPDYn_16astraweave_assetNtB2_13AssetManifest8validate
FN:1546,_RNvMs0_CsiKhCcLvPDYn_16astraweave_assetNtB5_13AssetDatabase13load_manifest
FN:1539,_RNvMs0_CsiKhCcLvPDYn_16astraweave_assetNtB5_13AssetDatabase13save_manifest
FN:1500,_RNvMs0_CsiKhCcLvPDYn_16astraweave_assetNtB5_13AssetDatabase14get_dependents
FN:1445,_RNvMs0_CsiKhCcLvPDYn_16astraweave_assetNtB5_13AssetDatabase14register_asset
FN:1526,_RNvMs0_CsiKhCcLvPDYn_16astraweave_assetNtB5_13AssetDatabase14scan_directory
FN:1504,_RNvMs0_CsiKhCcLvPDYn_16astraweave_assetNtB5_13AssetDatabase16get_dependencies
FN:1496,_RNvMs0_CsiKhCcLvPDYn_16astraweave_assetNtB5_13AssetDatabase16get_guid_by_path
FN:1508,_RNvMs0_CsiKhCcLvPDYn_16astraweave_assetNtB5_13AssetDatabase16invalidate_asset
FN:1433,_RNvMs0_CsiKhCcLvPDYn_16astraweave_assetNtB5_13AssetDatabase3new
FN:1492,_RNvMs0_CsiKhCcLvPDYn_16astraweave_assetNtB5_13AssetDatabase9get_asset
FN:1675,_RNvMs1_CsiKhCcLvPDYn_16astraweave_assetNtB5_12AssetWatcher15watch_directory
FN:1648,_RNvMs1_CsiKhCcLvPDYn_16astraweave_assetNtB5_12AssetWatcher3new
FN:1651,_RNCNvMs1_CsiKhCcLvPDYn_16astraweave_assetNtB7_12AssetWatcher3new0B7_
FNDA:0,_RNCNvCsiKhCcLvPDYn_16astraweave_asset16infer_asset_kind0B3_
FNDA:0,_RNCNvCsiKhCcLvPDYn_16astraweave_asset18infer_dependencies0B3_
FNDA:0,_RNvCsiKhCcLvPDYn_16astraweave_asset13guid_for_path
FNDA:0,_RNvCsiKhCcLvPDYn_16astraweave_asset16infer_asset_kind
FNDA:0,_RNvCsiKhCcLvPDYn_16astraweave_asset17compute_file_hash
FNDA:0,_RNvCsiKhCcLvPDYn_16astraweave_asset18infer_dependencies
FNDA:0,_RNvMCsiKhCcLvPDYn_16astraweave_assetNtB2_13AssetManifest8validate
FNDA:0,_RNvMs0_CsiKhCcLvPDYn_16astraweave_assetNtB5_13AssetDatabase13load_manifest
FNDA:0,_RNvMs0_CsiKhCcLvPDYn_16astraweave_assetNtB5_13AssetDatabase13save_manifest
FNDA:0,_RNvMs0_CsiKhCcLvPDYn_16astraweave_assetNtB5_13AssetDatabase14get_dependents
FNDA:0,_RNvMs0_CsiKhCcLvPDYn_16astraweave_assetNtB5_13AssetDatabase14register_asset
FNDA:0,_RNvMs0_CsiKhCcLvPDYn_16astraweave_assetNtB5_13AssetDatabase14scan_directory
FNDA:0,_RNvMs0_CsiKhCcLvPDYn_16astraweave_assetNtB5_13AssetDatabase16get_dependencies
FNDA:0,_RNvMs0_CsiKhCcLvPDYn_16astraweave_assetNtB5_13AssetDatabase16get_guid_by_path
FNDA:0,_RNvMs0_CsiKhCcLvPDYn_16astraweave_assetNtB5_13AssetDatabase16invalidate_asset
FNDA:0,_RNvMs0_CsiKhCcLvPDYn_16astraweave_assetNtB5_13AssetDatabase3new
FNDA:0,_RNvMs0_CsiKhCcLvPDYn_16astraweave_assetNtB5_13AssetDatabase9get_asset
FNDA:0,_RNvMs1_CsiKhCcLvPDYn_16astraweave_assetNtB5_12AssetWatcher15watch_directory
FNDA:0,_RNvMs1_CsiKhCcLvPDYn_16astraweave_assetNtB5_12AssetWatcher3new
FNDA:0,_RNCNvMs1_CsiKhCcLvPDYn_16astraweave_assetNtB7_12AssetWatcher3new0B7_
FNF:20
FNH:0
DA:1247,0
DA:1249,0
DA:1250,0
DA:1256,0
DA:1257,0
DA:1258,0
DA:1259,0
DA:1260,0
DA:1261,0
DA:1433,0
DA:1434,0
DA:1435,0
DA:1436,0
DA:1437,0
DA:1438,0
DA:1439,0
DA:1440,0
DA:1441,0
DA:1442,0
DA:1443,0
DA:1445,0
DA:1446,0
DA:1447,0
DA:1448,0
DA:1449,0
DA:1450,0
DA:1451,0
DA:1452,0
DA:1454,0
DA:1457,0
DA:1458,0
DA:1459,0
DA:1461,0
DA:1462,0
DA:1463,0
DA:1464,0
DA:1465,0
DA:1466,0
DA:1467,0
DA:1468,0
DA:1469,0
DA:1470,0
DA:1471,0
DA:1474,0
DA:1475,0
DA:1478,0
DA:1479,0
DA:1480,0
DA:1481,0
DA:1482,0
DA:1483,0
DA:1484,0
DA:1485,0
DA:1486,0
DA:1487,0
DA:1489,0
DA:1490,0
DA:1492,0
DA:1493,0
DA:1494,0
DA:1496,0
DA:1497,0
DA:1498,0
DA:1500,0
DA:1501,0
DA:1502,0
DA:1504,0
DA:1505,0
DA:1506,0
DA:1508,0
DA:1509,0
DA:1510,0
DA:1511,0
DA:1512,0
DA:1513,0
DA:1514,0
DA:1515,0
DA:1516,0
DA:1518,0
DA:1519,0
DA:1520,0
DA:1522,0
DA:1523,0
DA:1524,0
DA:1526,0
DA:1527,0
DA:1528,0
DA:1529,0
DA:1530,0
DA:1531,0
DA:1532,0
DA:1533,0
DA:1534,0
DA:1536,0
DA:1537,0
DA:1539,0
DA:1540,0
DA:1541,0
DA:1542,0
DA:1543,0
DA:1544,0
DA:1546,0
DA:1547,0
DA:1548,0
DA:1549,0
DA:1550,0
DA:1551,0
DA:1552,0
DA:1553,0
DA:1554,0
DA:1556,0
DA:1557,0
DA:1558,0
DA:1559,0
DA:1560,0
DA:1561,0
DA:1562,0
DA:1563,0
DA:1564,0
DA:1565,0
DA:1566,0
DA:1568,0
DA:1569,0
DA:1572,0
DA:1573,0
DA:1574,0
DA:1575,0
DA:1576,0
DA:1577,0
DA:1578,0
DA:1579,0
DA:1580,0
DA:1582,0
DA:1584,0
DA:1585,0
DA:1588,0
DA:1589,0
DA:1590,0
DA:1592,0
DA:1593,0
DA:1594,0
DA:1595,0
DA:1596,0
DA:1597,0
DA:1598,0
DA:1599,0
DA:1600,0
DA:1601,0
DA:1602,0
DA:1603,0
DA:1604,0
DA:1605,0
DA:1607,0
DA:1609,0
DA:1614,0
DA:1615,0
DA:1616,0
DA:1617,0
DA:1618,0
DA:1619,0
DA:1620,0
DA:1621,0
DA:1622,0
DA:1623,0
DA:1625,0
DA:1626,0
DA:1627,0
DA:1629,0
DA:1631,0
DA:1633,0
DA:1634,0
DA:1635,0
DA:1636,0
DA:1637,0
DA:1638,0
DA:1648,0
DA:1649,0
DA:1650,0
DA:1651,0
DA:1652,0
DA:1653,0
DA:1654,0
DA:1659,0
DA:1660,0
DA:1661,0
DA:1662,0
DA:1663,0
DA:1664,0
DA:1666,0
DA:1668,0
DA:1669,0
DA:1670,0
DA:1672,0
DA:1673,0
DA:1675,0
DA:1676,0
DA:1677,0
DA:1678,0
BRF:0
BRH:0
LF:200
LH:0
end_of_record
SF:C:\Users\pv2br\source\repos\AstraWeave-AI-Native-Gaming-Engine\astraweave-asset\src\nanite_preprocess.rs
FN:177,_RNCNvMs0_NtCsiKhCcLvPDYn_16astraweave_asset17nanite_preprocessNtB7_7Meshlet3news_0B9_
FN:345,_RNCNvNtCsiKhCcLvPDYn_16astraweave_asset17nanite_preprocess17generate_meshlets0B5_
FN:30,_RNvMNtCsiKhCcLvPDYn_16astraweave_asset17nanite_preprocessNtB2_4AABB11from_points
FN:26,_RNvMNtCsiKhCcLvPDYn_16astraweave_asset17nanite_preprocessNtB2_4AABB3new
FN:59,_RNvMNtCsiKhCcLvPDYn_16astraweave_asset17nanite_preprocessNtB2_4AABB5merge
FN:43,_RNvMNtCsiKhCcLvPDYn_16astraweave_asset17nanite_preprocessNtB2_4AABB6center
FN:47,_RNvMNtCsiKhCcLvPDYn_16astraweave_asset17nanite_preprocessNtB2_4AABB7extents
FN:55,_RNvMNtCsiKhCcLvPDYn_16astraweave_asset17nanite_preprocessNtB2_4AABB8contains
FN:51,_RNvMNtCsiKhCcLvPDYn_16astraweave_asset17nanite_preprocessNtB2_4AABB8diagonal
FN:204,_RNvMs0_NtCsiKhCcLvPDYn_16astraweave_asset17nanite_preprocessNtB5_7Meshlet12vertex_count
FN:199,_RNvMs0_NtCsiKhCcLvPDYn_16astraweave_asset17nanite_preprocessNtB5_7Meshlet14triangle_count
FN:160,_RNvMs0_NtCsiKhCcLvPDYn_16astraweave_asset17nanite_preprocessNtB5_7Meshlet3new
FN:241,_RNvMs1_NtCsiKhCcLvPDYn_16astraweave_asset17nanite_preprocessNtB5_12QuadricError10from_plane
FN:263,_RNvMs1_NtCsiKhCcLvPDYn_16astraweave_asset17nanite_preprocessNtB5_12QuadricError13from_triangle
FN:270,_RNvMs1_NtCsiKhCcLvPDYn_16astraweave_asset17nanite_preprocessNtB5_12QuadricError3add
FN:236,_RNvMs1_NtCsiKhCcLvPDYn_16astraweave_asset17nanite_preprocessNtB5_12QuadricError3new
FN:281,_RNvMs1_NtCsiKhCcLvPDYn_16astraweave_asset17nanite_preprocessNtB5_12QuadricError5error
FN:128,_RNvMs_NtCsiKhCcLvPDYn_16astraweave_asset17nanite_preprocessNtB4_12BoundingCone13is_backfacing
FN:80,_RNvMs_NtCsiKhCcLvPDYn_16astraweave_asset17nanite_preprocessNtB4_12BoundingCone14from_triangles
FN:517,_RNvNtCsiKhCcLvPDYn_16astraweave_asset17nanite_preprocess13simplify_mesh
FN:719,_RNvNtCsiKhCcLvPDYn_16astraweave_asset17nanite_preprocess17compute_lod_error
FN:301,_RNvNtCsiKhCcLvPDYn_16astraweave_asset17nanite_preprocess17generate_meshlets
FN:726,_RNvNtCsiKhCcLvPDYn_16astraweave_asset17nanite_preprocess21preprocess_mesh_async
FN:402,_RNvNtCsiKhCcLvPDYn_16astraweave_asset17nanite_preprocess22generate_lod_hierarchy
FN:760,_RNvNtCsiKhCcLvPDYn_16astraweave_asset17nanite_preprocess22load_meshlet_hierarchy
FN:752,_RNvNtCsiKhCcLvPDYn_16astraweave_asset17nanite_preprocess22save_meshlet_hierarchy
FN:496,_RNvXs2_NtCsiKhCcLvPDYn_16astraweave_asset17nanite_preprocessNtB5_12EdgeCollapseNtNtCsixiwFwjEgS7_4core3cmp9PartialEq2eq
FN:504,_RNvXs4_NtCsiKhCcLvPDYn_16astraweave_asset17nanite_preprocessNtB5_12EdgeCollapseNtNtCsixiwFwjEgS7_4core3cmp10PartialOrd11partial_cmp
FN:511,_RNvXs5_NtCsiKhCcLvPDYn_16astraweave_asset17nanite_preprocessNtB5_12EdgeCollapseNtNtCsixiwFwjEgS7_4core3cmp3Ord3cmp
FN:170,_RNCNvMs0_NtCsiKhCcLvPDYn_16astraweave_asset17nanite_preprocessNtB7_7Meshlet3new0B9_
FNDA:0,_RNCNvMs0_NtCsiKhCcLvPDYn_16astraweave_asset17nanite_preprocessNtB7_7Meshlet3news_0B9_
FNDA:0,_RNCNvNtCsiKhCcLvPDYn_16astraweave_asset17nanite_preprocess17generate_meshlets0B5_
FNDA:0,_RNvMNtCsiKhCcLvPDYn_16astraweave_asset17nanite_preprocessNtB2_4AABB11from_points
FNDA:0,_RNvMNtCsiKhCcLvPDYn_16astraweave_asset17nanite_preprocessNtB2_4AABB3new
FNDA:0,_RNvMNtCsiKhCcLvPDYn_16astraweave_asset17nanite_preprocessNtB2_4AABB5merge
FNDA:0,_RNvMNtCsiKhCcLvPDYn_16astraweave_asset17nanite_preprocessNtB2_4AABB6center
FNDA:0,_RNvMNtCsiKhCcLvPDYn_16astraweave_asset17nanite_preprocessNtB2_4AABB7extents
FNDA:0,_RNvMNtCsiKhCcLvPDYn_16astraweave_asset17nanite_preprocessNtB2_4AABB8contains
FNDA:0,_RNvMNtCsiKhCcLvPDYn_16astraweave_asset17nanite_preprocessNtB2_4AABB8diagonal
FNDA:0,_RNvMs0_NtCsiKhCcLvPDYn_16astraweave_asset17nanite_preprocessNtB5_7Meshlet12vertex_count
FNDA:0,_RNvMs0_NtCsiKhCcLvPDYn_16astraweave_asset17nanite_preprocessNtB5_7Meshlet14triangle_count
FNDA:0,_RNvMs0_NtCsiKhCcLvPDYn_16astraweave_asset17nanite_preprocessNtB5_7Meshlet3new
FNDA:0,_RNvMs1_NtCsiKhCcLvPDYn_16astraweave_asset17nanite_preprocessNtB5_12QuadricError10from_plane
FNDA:0,_RNvMs1_NtCsiKhCcLvPDYn_16astraweave_asset17nanite_preprocessNtB5_12QuadricError13from_triangle
FNDA:0,_RNvMs1_NtCsiKhCcLvPDYn_16astraweave_asset17nanite_preprocessNtB5_12QuadricError3add
FNDA:0,_RNvMs1_NtCsiKhCcLvPDYn_16astraweave_asset17nanite_preprocessNtB5_12QuadricError3new
FNDA:0,_RNvMs1_NtCsiKhCcLvPDYn_16astraweave_asset17nanite_preprocessNtB5_12QuadricError5error
FNDA:0,_RNvMs_NtCsiKhCcLvPDYn_16astraweave_asset17nanite_preprocessNtB4_12BoundingCone13is_backfacing
FNDA:0,_RNvMs_NtCsiKhCcLvPDYn_16astraweave_asset17nanite_preprocessNtB4_12BoundingCone14from_triangles
FNDA:0,_RNvNtCsiKhCcLvPDYn_16astraweave_asset17nanite_preprocess13simplify_mesh
FNDA:0,_RNvNtCsiKhCcLvPDYn_16astraweave_asset17nanite_preprocess17compute_lod_error
FNDA:0,_RNvNtCsiKhCcLvPDYn_16astraweave_asset17nanite_preprocess17generate_meshlets
FNDA:0,_RNvNtCsiKhCcLvPDYn_16astraweave_asset17nanite_preprocess21preprocess_mesh_async
FNDA:0,_RNvNtCsiKhCcLvPDYn_16astraweave_asset17nanite_preprocess22generate_lod_hierarchy
FNDA:0,_RNvNtCsiKhCcLvPDYn_16astraweave_asset17nanite_preprocess22load_meshlet_hierarchy
FNDA:0,_RNvNtCsiKhCcLvPDYn_16astraweave_asset17nanite_preprocess22save_meshlet_hierarchy
FNDA:0,_RNvXs2_NtCsiKhCcLvPDYn_16astraweave_asset17nanite_preprocessNtB5_12EdgeCollapseNtNtCsixiwFwjEgS7_4core3cmp9PartialEq2eq
FNDA:0,_RNvXs4_NtCsiKhCcLvPDYn_16astraweave_asset17nanite_preprocessNtB5_12EdgeCollapseNtNtCsixiwFwjEgS7_4core3cmp10PartialOrd11partial_cmp
FNDA:0,_RNvXs5_NtCsiKhCcLvPDYn_16astraweave_asset17nanite_preprocessNtB5_12EdgeCollapseNtNtCsixiwFwjEgS7_4core3cmp3Ord3cmp
FNDA:0,_RNCNvMs0_NtCsiKhCcLvPDYn_16astraweave_asset17nanite_preprocessNtB7_7Meshlet3new0B9_
FNF:30
FNH:0
DA:26,0
DA:27,0
DA:28,0
DA:30,0
DA:31,0
DA:32,0
DA:34,0
DA:35,0
DA:36,0
DA:37,0
DA:38,0
DA:40,0
DA:41,0
DA:43,0
DA:44,0
DA:45,0
DA:47,0
DA:48,0
DA:49,0
DA:51,0
DA:52,0
DA:53,0
DA:55,0
DA:56,0
DA:57,0
DA:59,0
DA:60,0
DA:61,0
DA:62,0
DA:63,0
DA:64,0
DA:80,0
DA:81,0
DA:82,0
DA:83,0
DA:84,0
DA:85,0
DA:86,0
DA:87,0
DA:90,0
DA:91,0
DA:92,0
DA:93,0
DA:94,0
DA:95,0
DA:96,0
DA:97,0
DA:100,0
DA:101,0
DA:102,0
DA:103,0
DA:104,0
DA:105,0
DA:106,0
DA:109,0
DA:110,0
DA:111,0
DA:112,0
DA:113,0
DA:114,0
DA:115,0
DA:116,0
DA:117,0
DA:118,0
DA:120,0
DA:121,0
DA:122,0
DA:123,0
DA:124,0
DA:125,0
DA:128,0
DA:129,0
DA:130,0
DA:160,0
DA:161,0
DA:162,0
DA:163,0
DA:164,0
DA:165,0
DA:166,0
DA:168,0
DA:169,0
DA:170,0
DA:171,0
DA:172,0
DA:175,0
DA:176,0
DA:177,0
DA:178,0
DA:179,0
DA:180,0
DA:181,0
DA:183,0
DA:184,0
DA:185,0
DA:187,0
DA:188,0
DA:189,0
DA:190,0
DA:191,0
DA:192,0
DA:193,0
DA:194,0
DA:195,0
DA:196,0
DA:199,0
DA:200,0
DA:201,0
DA:204,0
DA:205,0
DA:206,0
DA:236,0
DA:237,0
DA:238,0
DA:241,0
DA:242,0
DA:243,0
DA:244,0
DA:245,0
DA:246,0
DA:247,0
DA:248,0
DA:249,0
DA:250,0
DA:251,0
DA:252,0
DA:253,0
DA:254,0
DA:255,0
DA:256,0
DA:257,0
DA:258,0
DA:259,0
DA:260,0
DA:263,0
DA:264,0
DA:265,0
DA:266,0
DA:267,0
DA:270,0
DA:271,0
DA:272,0
DA:273,0
DA:274,0
DA:275,0
DA:277,0
DA:278,0
DA:281,0
DA:282,0
DA:283,0
DA:284,0
DA:285,0
DA:287,0
DA:288,0
DA:290,0
DA:291,0
DA:292,0
DA:293,0
DA:296,0
DA:297,0
DA:301,0
DA:302,0
DA:303,0
DA:304,0
DA:305,0
DA:306,0
DA:307,0
DA:308,0
DA:309,0
DA:310,0
DA:312,0
DA:313,0
DA:316,0
DA:318,0
DA:319,0
DA:320,0
DA:321,0
DA:324,0
DA:325,0
DA:326,0
DA:327,0
DA:328,0
DA:329,0
DA:330,0
DA:331,0
DA:332,0
DA:335,0
DA:336,0
DA:337,0
DA:338,0
DA:339,0
DA:340,0
DA:343,0
DA:344,0
DA:345,0
DA:346,0
DA:348,0
DA:349,0
DA:352,0
DA:353,0
DA:354,0
DA:355,0
DA:358,0
DA:361,0
DA:363,0
DA:364,0
DA:365,0
DA:366,0
DA:367,0
DA:368,0
DA:372,0
DA:373,0
DA:374,0
DA:377,0
DA:378,0
DA:379,0
DA:380,0
DA:382,0
DA:386,0
DA:387,0
DA:388,0
DA:389,0
DA:390,0
DA:391,0
DA:392,0
DA:393,0
DA:394,0
DA:395,0
DA:398,0
DA:399,0
DA:402,0
DA:403,0
DA:404,0
DA:405,0
DA:406,0
DA:407,0
DA:408,0
DA:409,0
DA:411,0
DA:413,0
DA:414,0
DA:417,0
DA:418,0
DA:419,0
DA:420,0
DA:421,0
DA:423,0
DA:425,0
DA:428,0
DA:429,0
DA:430,0
DA:431,0
DA:432,0
DA:433,0
DA:434,0
DA:435,0
DA:436,0
DA:437,0
DA:438,0
DA:439,0
DA:440,0
DA:443,0
DA:444,0
DA:445,0
DA:446,0
DA:447,0
DA:448,0
DA:449,0
DA:452,0
DA:453,0
DA:454,0
DA:455,0
DA:457,0
DA:458,0
DA:459,0
DA:460,0
DA:463,0
DA:464,0
DA:465,0
DA:466,0
DA:467,0
DA:470,0
DA:471,0
DA:472,0
DA:475,0
DA:476,0
DA:477,0
DA:478,0
DA:479,0
DA:480,0
DA:481,0
DA:482,0
DA:483,0
DA:484,0
DA:496,0
DA:497,0
DA:498,0
DA:504,0
DA:506,0
DA:507,0
DA:511,0
DA:512,0
DA:513,0
DA:517,0
DA:518,0
DA:519,0
DA:520,0
DA:521,0
DA:522,0
DA:523,0
DA:524,0
DA:525,0
DA:526,0
DA:527,0
DA:528,0
DA:529,0
DA:530,0
DA:533,0
DA:534,0
DA:535,0
DA:536,0
DA:537,0
DA:538,0
DA:539,0
DA:540,0
DA:541,0
DA:542,0
DA:545,0
DA:547,0
DA:548,0
DA:549,0
DA:550,0
DA:551,0
DA:552,0
DA:553,0
DA:554,0
DA:555,0
DA:556,0
DA:557,0
DA:558,0
DA:561,0
DA:562,0
DA:564,0
DA:565,0
DA:566,0
DA:567,0
DA:568,0
DA:569,0
DA:570,0
DA:571,0
DA:572,0
DA:573,0
DA:574,0
DA:575,0
DA:576,0
DA:577,0
DA:578,0
DA:579,0
DA:580,0
DA:581,0
DA:582,0
DA:583,0
DA:584,0
DA:585,0
DA:586,0
DA:587,0
DA:590,0
DA:592,0
DA:593,0
DA:594,0
DA:595,0
DA:596,0
DA:597,0
DA:598,0
DA:599,0
DA:600,0
DA:601,0
DA:602,0
DA:603,0
DA:604,0
DA:605,0
DA:606,0
DA:607,0
DA:608,0
DA:609,0
DA:612,0
DA:613,0
DA:614,0
DA:615,0
DA:616,0
DA:617,0
DA:619,0
DA:620,0
DA:622,0
DA:624,0
DA:625,0
DA:629,0
DA:630,0
DA:632,0
DA:633,0
DA:634,0
DA:637,0
DA:638,0
DA:640,0
DA:642,0
DA:643,0
DA:644,0
DA:647,0
DA:648,0
DA:651,0
DA:654,0
DA:655,0
DA:656,0
DA:657,0
DA:660,0
DA:661,0
DA:662,0
DA:663,0
DA:664,0
DA:665,0
DA:667,0
DA:668,0
DA:669,0
DA:671,0
DA:672,0
DA:673,0
DA:677,0
DA:679,0
DA:680,0
DA:681,0
DA:682,0
DA:684,0
DA:685,0
DA:686,0
DA:687,0
DA:688,0
DA:689,0
DA:690,0
DA:691,0
DA:692,0
DA:695,0
DA:696,0
DA:697,0
DA:699,0
DA:700,0
DA:701,0
DA:705,0
DA:706,0
DA:707,0
DA:709,0
DA:710,0
DA:711,0
DA:712,0
DA:713,0
DA:714,0
DA:715,0
DA:716,0
DA:719,0
DA:721,0
DA:722,0
DA:723,0
DA:726,0
DA:727,0
DA:728,0
DA:729,0
DA:730,0
DA:731,0
DA:732,0
DA:733,0
DA:752,0
DA:753,0
DA:754,0
DA:755,0
DA:756,0
DA:757,0
DA:760,0
DA:761,0
DA:762,0
DA:763,0
DA:764,0
DA:765,0
DA:766,0
BRF:0
BRH:0
LF:485
LH:0
end_of_record
SF:C:\Users\pv2br\source\repos\AstraWeave-AI-Native-Gaming-Engine\astraweave-scene\src\gpu_resource_manager.rs
FN:197,_RNCNvMs_NtCsdUZi5LvOpOZ_16astraweave_scene20gpu_resource_managerNtB6_17GpuResourceBudget18get_or_create_cell0B8_
FN:140,_RNvMNtCsdUZi5LvOpOZ_16astraweave_scene20gpu_resource_managerNtB2_16CellGpuResources10unload_all
FN:159,_RNvMNtCsdUZi5LvOpOZ_16astraweave_scene20gpu_resource_managerNtB2_16CellGpuResources11get_texture
FN:86,_RNvMNtCsdUZi5LvOpOZ_16astraweave_scene20gpu_resource_managerNtB2_16CellGpuResources14upload_texture
FN:154,_RNvMNtCsdUZi5LvOpOZ_16astraweave_scene20gpu_resource_managerNtB2_16CellGpuResources16get_index_buffer
FN:149,_RNvMNtCsdUZi5LvOpOZ_16astraweave_scene20gpu_resource_managerNtB2_16CellGpuResources17get_vertex_buffer
FN:63,_RNvMNtCsdUZi5LvOpOZ_16astraweave_scene20gpu_resource_managerNtB2_16CellGpuResources19upload_index_buffer
FN:40,_RNvMNtCsdUZi5LvOpOZ_16astraweave_scene20gpu_resource_managerNtB2_16CellGpuResources20upload_vertex_buffer
FN:29,_RNvMNtCsdUZi5LvOpOZ_16astraweave_scene20gpu_resource_managerNtB2_16CellGpuResources3new
FN:201,_RNvMs_NtCsdUZi5LvOpOZ_16astraweave_scene20gpu_resource_managerNtB4_17GpuResourceBudget11unload_cell
FN:189,_RNvMs_NtCsdUZi5LvOpOZ_16astraweave_scene20gpu_resource_managerNtB4_17GpuResourceBudget12can_allocate
FN:243,_RNvMs_NtCsdUZi5LvOpOZ_16astraweave_scene20gpu_resource_managerNtB4_17GpuResourceBudget12update_usage
FN:210,_RNvMs_NtCsdUZi5LvOpOZ_16astraweave_scene20gpu_resource_managerNtB4_17GpuResourceBudget14enforce_budget
FN:225,_RNvMs_NtCsdUZi5LvOpOZ_16astraweave_scene20gpu_resource_managerNtB4_17GpuResourceBudget18find_furthest_cell
FN:194,_RNvMs_NtCsdUZi5LvOpOZ_16astraweave_scene20gpu_resource_managerNtB4_17GpuResourceBudget18get_or_create_cell
FN:184,_RNvMs_NtCsdUZi5LvOpOZ_16astraweave_scene20gpu_resource_managerNtB4_17GpuResourceBudget19with_default_budget
FN:175,_RNvMs_NtCsdUZi5LvOpOZ_16astraweave_scene20gpu_resource_managerNtB4_17GpuResourceBudget3new
FN:248,_RNvMs_NtCsdUZi5LvOpOZ_16astraweave_scene20gpu_resource_managerNtB4_17GpuResourceBudget5stats
FNDA:2,_RNCNvMs_NtCsdUZi5LvOpOZ_16astraweave_scene20gpu_resource_managerNtB6_17GpuResourceBudget18get_or_create_cell0B8_
FNDA:1,_RNvMNtCsdUZi5LvOpOZ_16astraweave_scene20gpu_resource_managerNtB2_16CellGpuResources10unload_all
FNDA:0,_RNvMNtCsdUZi5LvOpOZ_16astraweave_scene20gpu_resource_managerNtB2_16CellGpuResources11get_texture
FNDA:0,_RNvMNtCsdUZi5LvOpOZ_16astraweave_scene20gpu_resource_managerNtB2_16CellGpuResources14upload_texture
FNDA:0,_RNvMNtCsdUZi5LvOpOZ_16astraweave_scene20gpu_resource_managerNtB2_16CellGpuResources16get_index_buffer
FNDA:0,_RNvMNtCsdUZi5LvOpOZ_16astraweave_scene20gpu_resource_managerNtB2_16CellGpuResources17get_vertex_buffer
FNDA:0,_RNvMNtCsdUZi5LvOpOZ_16astraweave_scene20gpu_resource_managerNtB2_16CellGpuResources19upload_index_buffer
FNDA:0,_RNvMNtCsdUZi5LvOpOZ_16astraweave_scene20gpu_resource_managerNtB2_16CellGpuResources20upload_vertex_buffer
FNDA:3,_RNvMNtCsdUZi5LvOpOZ_16astraweave_scene20gpu_resource_managerNtB2_16CellGpuResources3new
FNDA:1,_RNvMs_NtCsdUZi5LvOpOZ_16astraweave_scene20gpu_resource_managerNtB4_17GpuResourceBudget11unload_cell
FNDA:3,_RNvMs_NtCsdUZi5LvOpOZ_16astraweave_scene20gpu_resource_managerNtB4_17GpuResourceBudget12can_allocate
FNDA:0,_RNvMs_NtCsdUZi5LvOpOZ_16astraweave_scene20gpu_resource_managerNtB4_17GpuResourceBudget12update_usage
FNDA:0,_RNvMs_NtCsdUZi5LvOpOZ_16astraweave_scene20gpu_resource_managerNtB4_17GpuResourceBudget14enforce_budget
FNDA:0,_RNvMs_NtCsdUZi5LvOpOZ_16astraweave_scene20gpu_resource_managerNtB4_17GpuResourceBudget18find_furthest_cell
FNDA:2,_RNvMs_NtCsdUZi5LvOpOZ_16astraweave_scene20gpu_resource_managerNtB4_17GpuResourceBudget18get_or_create_cell
FNDA:1,_RNvMs_NtCsdUZi5LvOpOZ_16astraweave_scene20gpu_resource_managerNtB4_17GpuResourceBudget19with_default_budget
FNDA:4,_RNvMs_NtCsdUZi5LvOpOZ_16astraweave_scene20gpu_resource_managerNtB4_17GpuResourceBudget3new
FNDA:1,_RNvMs_NtCsdUZi5LvOpOZ_16astraweave_scene20gpu_resource_managerNtB4_17GpuResourceBudget5stats
FNF:18
FNH:9
DA:29,3
DA:30,3
DA:31,3
DA:32,3
DA:33,3
DA:34,3
DA:35,3
DA:36,3
DA:37,3
DA:40,0
DA:41,0
DA:42,0
DA:43,0
DA:44,0
DA:45,0
DA:46,0
DA:49,0
DA:50,0
DA:51,0
DA:52,0
DA:53,0
DA:55,0
DA:56,0
DA:57,0
DA:59,0
DA:60,0
DA:63,0
DA:64,0
DA:65,0
DA:66,0
DA:67,0
DA:68,0
DA:69,0
DA:72,0
DA:73,0
DA:74,0
DA:75,0
DA:76,0
DA:78,0
DA:79,0
DA:80,0
DA:82,0
DA:83,0
DA:86,0
DA:87,0
DA:88,0
DA:89,0
DA:90,0
DA:91,0
DA:92,0
DA:93,0
DA:94,0
DA:96,0
DA:97,0
DA:98,0
DA:99,0
DA:100,0
DA:101,0
DA:102,0
DA:103,0
DA:104,0
DA:105,0
DA:106,0
DA:107,0
DA:108,0
DA:109,0
DA:112,0
DA:113,0
DA:114,0
DA:115,0
DA:116,0
DA:117,0
DA:118,0
DA:119,0
DA:120,0
DA:121,0
DA:122,0
DA:123,0
DA:124,0
DA:125,0
DA:126,0
DA:127,0
DA:128,0
DA:129,0
DA:132,0
DA:133,0
DA:134,0
DA:136,0
DA:137,0
DA:140,1
DA:142,1
DA:143,1
DA:144,1
DA:145,1
DA:146,1
DA:149,0
DA:150,0
DA:151,0
DA:154,0
DA:155,0
DA:156,0
DA:159,0
DA:160,0
DA:161,0
DA:175,4
DA:176,4
DA:177,4
DA:178,4
DA:179,4
DA:180,4
DA:181,4
DA:184,1
DA:185,1
DA:186,1
DA:189,3
DA:190,3
DA:191,3
DA:194,2
DA:195,2
DA:196,2
DA:197,2
DA:198,2
DA:201,1
DA:202,1
DA:203,1
DA:204,1
DA:205,1
DA:206,1
DA:207,1
DA:210,0
DA:211,0
DA:213,0
DA:215,0
DA:216,0
DA:217,0
DA:219,0
DA:222,0
DA:225,0
DA:226,0
DA:228,0
DA:229,0
DA:230,0
DA:232,0
DA:233,0
DA:234,0
DA:235,0
DA:239,0
DA:240,0
DA:243,0
DA:244,0
DA:245,0
DA:248,1
DA:249,1
DA:250,1
DA:251,1
DA:252,1
DA:253,1
DA:254,1
DA:255,1
BRF:0
BRH:0
LF:160
LH:49
end_of_record
SF:C:\Users\pv2br\source\repos\AstraWeave-AI-Native-Gaming-Engine\astraweave-scene\src\lib.rs
FN:61,_RINvMs1_CsdUZi5LvOpOZ_16astraweave_sceneNtB6_5Scene8traverseNCNvCs5dIHLaZY3XA_10unit_testss_19test_scene_traverse0EB10_
FN:62,_RINvNvMs1_CsdUZi5LvOpOZ_16astraweave_sceneNtB8_5Scene8traverse4walkNCNvCs5dIHLaZY3XA_10unit_testss_19test_scene_traverse0EB17_
FN:55,_RNvMs1_CsdUZi5LvOpOZ_16astraweave_sceneNtB5_5Scene3new
FN:27,_RNvMs_CsdUZi5LvOpOZ_16astraweave_sceneNtB4_9Transform6matrix
FN:17,_RNvXCsdUZi5LvOpOZ_16astraweave_sceneNtB2_9TransformNtNtCsixiwFwjEgS7_4core7default7Default7default
FN:40,_RINvMs0_CsdUZi5LvOpOZ_16astraweave_sceneNtB6_4Node3newReEB6_
FNDA:1,_RINvMs1_CsdUZi5LvOpOZ_16astraweave_sceneNtB6_5Scene8traverseNCNvCs5dIHLaZY3XA_10unit_testss_19test_scene_traverse0EB10_
FNDA:2,_RINvNvMs1_CsdUZi5LvOpOZ_16astraweave_sceneNtB8_5Scene8traverse4walkNCNvCs5dIHLaZY3XA_10unit_testss_19test_scene_traverse0EB17_
FNDA:4,_RNvMs1_CsdUZi5LvOpOZ_16astraweave_sceneNtB5_5Scene3new
FNDA:3,_RNvMs_CsdUZi5LvOpOZ_16astraweave_sceneNtB4_9Transform6matrix
FNDA:5,_RNvXCsdUZi5LvOpOZ_16astraweave_sceneNtB2_9TransformNtNtCsixiwFwjEgS7_4core7default7Default7default
FNDA:5,_RINvMs0_CsdUZi5LvOpOZ_16astraweave_sceneNtB6_4Node3newReEB6_
FNF:6
FNH:6
DA:17,5
DA:18,5
DA:19,5
DA:20,5
DA:21,5
DA:22,5
DA:23,5
DA:27,3
DA:28,3
DA:29,3
DA:40,5
DA:41,5
DA:42,5
DA:43,5
DA:44,5
DA:45,5
DA:46,5
DA:55,4
DA:56,4
DA:57,4
DA:58,4
DA:59,4
DA:61,1
DA:62,2
DA:63,2
DA:64,2
DA:65,3
DA:66,1
DA:67,1
DA:68,2
DA:69,1
DA:70,1
BRF:0
BRH:0
LF:32
LH:32
end_of_record
SF:C:\Users\pv2br\source\repos\AstraWeave-AI-Native-Gaming-Engine\astraweave-scene\src\partitioned_scene.rs
FN:204,_RNCNvMs_NtCsdUZi5LvOpOZ_16astraweave_scene17partitioned_sceneNtB6_16PartitionedScene19move_entity_to_cell0B8_
FN:225,_RNCNvMs_NtCsdUZi5LvOpOZ_16astraweave_scene17partitioned_sceneNtB6_16PartitionedScene19move_entity_to_cells_0B8_
FN:31,_RNvMNtCsdUZi5LvOpOZ_16astraweave_scene17partitioned_sceneNtB2_12CellEntities10add_entity
FN:37,_RNvMNtCsdUZi5LvOpOZ_16astraweave_scene17partitioned_sceneNtB2_12CellEntities13remove_entity
FN:24,_RNvMNtCsdUZi5LvOpOZ_16astraweave_scene17partitioned_sceneNtB2_12CellEntities3new
FN:83,_RNvMs_NtCsdUZi5LvOpOZ_16astraweave_scene17partitioned_sceneNtB4_16PartitionedScene11new_default
FN:237,_RNvMs_NtCsdUZi5LvOpOZ_16astraweave_scene17partitioned_sceneNtB4_16PartitionedScene12drain_events
FN:120,_RNvMs_NtCsdUZi5LvOpOZ_16astraweave_scene17partitioned_sceneNtB4_16PartitionedScene14on_cell_loaded
FN:190,_RNvMs_NtCsdUZi5LvOpOZ_16astraweave_scene17partitioned_sceneNtB4_16PartitionedScene15get_entity_cell
FN:156,_RNvMs_NtCsdUZi5LvOpOZ_16astraweave_scene17partitioned_sceneNtB4_16PartitionedScene16on_cell_unloaded
FN:88,_RNvMs_NtCsdUZi5LvOpOZ_16astraweave_scene17partitioned_sceneNtB4_16PartitionedScene16update_streaming
FN:195,_RNvMs_NtCsdUZi5LvOpOZ_16astraweave_scene17partitioned_sceneNtB4_16PartitionedScene19move_entity_to_cell
FN:174,_RNvMs_NtCsdUZi5LvOpOZ_16astraweave_scene17partitioned_sceneNtB4_16PartitionedScene22query_entities_in_cell
FN:179,_RNvMs_NtCsdUZi5LvOpOZ_16astraweave_scene17partitioned_sceneNtB4_16PartitionedScene23query_entities_in_cells
FN:67,_RNvMs_NtCsdUZi5LvOpOZ_16astraweave_scene17partitioned_sceneNtB4_16PartitionedScene3new
FN:242,_RNvMs_NtCsdUZi5LvOpOZ_16astraweave_scene17partitioned_sceneNtB4_16PartitionedScene7metrics
FN:257,_RNvXs0_NtCsdUZi5LvOpOZ_16astraweave_scene17partitioned_sceneNtB7_5SceneNtB5_17ScenePartitionExt16load_partitioned
FN:38,_RNCNvMNtCsdUZi5LvOpOZ_16astraweave_scene17partitioned_sceneNtB4_12CellEntities13remove_entity0B6_
FNDA:1,_RNCNvMs_NtCsdUZi5LvOpOZ_16astraweave_scene17partitioned_sceneNtB6_16PartitionedScene19move_entity_to_cell0B8_
FNDA:1,_RNCNvMs_NtCsdUZi5LvOpOZ_16astraweave_scene17partitioned_sceneNtB6_16PartitionedScene19move_entity_to_cells_0B8_
FNDA:4,_RNvMNtCsdUZi5LvOpOZ_16astraweave_scene17partitioned_sceneNtB2_12CellEntities10add_entity
FNDA:2,_RNvMNtCsdUZi5LvOpOZ_16astraweave_scene17partitioned_sceneNtB2_12CellEntities13remove_entity
FNDA:3,_RNvMNtCsdUZi5LvOpOZ_16astraweave_scene17partitioned_sceneNtB2_12CellEntities3new
FNDA:2,_RNvMs_NtCsdUZi5LvOpOZ_16astraweave_scene17partitioned_sceneNtB4_16PartitionedScene11new_default
FNDA:0,_RNvMs_NtCsdUZi5LvOpOZ_16astraweave_scene17partitioned_sceneNtB4_16PartitionedScene12drain_events
FNDA:0,_RNvMs_NtCsdUZi5LvOpOZ_16astraweave_scene17partitioned_sceneNtB4_16PartitionedScene14on_cell_loaded
FNDA:2,_RNvMs_NtCsdUZi5LvOpOZ_16astraweave_scene17partitioned_sceneNtB4_16PartitionedScene15get_entity_cell
FNDA:0,_RNvMs_NtCsdUZi5LvOpOZ_16astraweave_scene17partitioned_sceneNtB4_16PartitionedScene16on_cell_unloaded
FNDA:0,_RNvMs_NtCsdUZi5LvOpOZ_16astraweave_scene17partitioned_sceneNtB4_16PartitionedScene16update_streaming
FNDA:2,_RNvMs_NtCsdUZi5LvOpOZ_16astraweave_scene17partitioned_sceneNtB4_16PartitionedScene19move_entity_to_cell
FNDA:3,_RNvMs_NtCsdUZi5LvOpOZ_16astraweave_scene17partitioned_sceneNtB4_16PartitionedScene22query_entities_in_cell
FNDA:0,_RNvMs_NtCsdUZi5LvOpOZ_16astraweave_scene17partitioned_sceneNtB4_16PartitionedScene23query_entities_in_cells
FNDA:3,_RNvMs_NtCsdUZi5LvOpOZ_16astraweave_scene17partitioned_sceneNtB4_16PartitionedScene3new
FNDA:1,_RNvMs_NtCsdUZi5LvOpOZ_16astraweave_scene17partitioned_sceneNtB4_16PartitionedScene7metrics
FNDA:1,_RNvXs0_NtCsdUZi5LvOpOZ_16astraweave_scene17partitioned_sceneNtB7_5SceneNtB5_17ScenePartitionExt16load_partitioned
FNDA:3,_RNCNvMNtCsdUZi5LvOpOZ_16astraweave_scene17partitioned_sceneNtB4_12CellEntities13remove_entity0B6_
FNF:18
FNH:13
DA:24,3
DA:25,3
DA:26,3
DA:27,3
DA:28,3
DA:29,3
DA:31,4
DA:32,4
DA:33,4
DA:34,4
DA:35,4
DA:37,2
DA:38,3
DA:39,2
DA:67,3
DA:68,3
DA:69,3
DA:70,3
DA:72,3
DA:73,3
DA:74,3
DA:75,3
DA:76,3
DA:77,3
DA:78,3
DA:79,3
DA:80,3
DA:83,2
DA:84,2
DA:85,2
DA:88,0
DA:120,0
DA:121,0
DA:122,0
DA:123,0
DA:124,0
DA:125,0
DA:130,0
DA:131,0
DA:132,0
DA:133,0
DA:134,0
DA:135,0
DA:136,0
DA:137,0
DA:138,0
DA:139,0
DA:140,0
DA:141,0
DA:142,0
DA:143,0
DA:144,0
DA:145,0
DA:146,0
DA:149,0
DA:152,0
DA:153,0
DA:156,0
DA:157,0
DA:159,0
DA:160,0
DA:161,0
DA:162,0
DA:163,0
DA:164,0
DA:165,0
DA:166,0
DA:167,0
DA:170,0
DA:171,0
DA:174,3
DA:175,3
DA:176,3
DA:179,0
DA:180,0
DA:181,0
DA:182,0
DA:183,0
DA:184,0
DA:186,0
DA:187,0
DA:190,2
DA:191,2
DA:192,2
DA:195,2
DA:197,2
DA:198,1
DA:201,1
DA:202,1
DA:203,1
DA:204,1
DA:205,1
DA:206,1
DA:207,1
DA:208,1
DA:213,1
DA:214,0
DA:215,1
DA:218,1
DA:219,1
DA:220,1
DA:223,1
DA:224,1
DA:225,1
DA:226,1
DA:229,1
DA:232,1
DA:233,1
DA:234,2
DA:237,0
DA:238,0
DA:239,0
DA:242,1
DA:243,1
DA:244,1
DA:257,1
DA:258,1
DA:259,1
DA:260,1
DA:261,1
DA:262,1
BRF:0
BRH:0
LF:124
LH:72
end_of_record
SF:C:\Users\pv2br\source\repos\AstraWeave-AI-Native-Gaming-Engine\astraweave-scene\src\streaming.rs
FN:288,_RNCNvMs_NtCsdUZi5LvOpOZ_16astraweave_scene9streamingNtB6_21WorldPartitionManager11unload_cell0Cs5dIHLaZY3XA_10unit_tests
FN:337,_RNCNvMs_NtCsdUZi5LvOpOZ_16astraweave_scene9streamingNtB6_21WorldPartitionManager15force_load_cell0Cs5dIHLaZY3XA_10unit_tests
FN:146,_RNCNvMs_NtCsdUZi5LvOpOZ_16astraweave_scene9streamingNtB6_21WorldPartitionManager15start_load_cell0Cs5dIHLaZY3XA_10unit_tests
FN:345,_RNCNvMs_NtCsdUZi5LvOpOZ_16astraweave_scene9streamingNtB6_21WorldPartitionManager17force_unload_cell0Cs5dIHLaZY3XA_10unit_tests
FN:177,_RNCNCNvMs_NtCsdUZi5LvOpOZ_16astraweave_scene9streamingNtB8_21WorldPartitionManager15start_load_cell00Cs5dIHLaZY3XA_10unit_tests
FN:244,_RNCNvMs_NtCsdUZi5LvOpOZ_16astraweave_scene9streamingNtB6_21WorldPartitionManager14load_cell_data0Cs5dIHLaZY3XA_10unit_tests
FN:252,_RNCNvMs_NtCsdUZi5LvOpOZ_16astraweave_scene9streamingNtB6_21WorldPartitionManager15load_asset_data0Cs5dIHLaZY3XA_10unit_tests
FN:84,_RINvMs_NtCsdUZi5LvOpOZ_16astraweave_scene9streamingNtB5_21WorldPartitionManager18add_event_listenerNCNCNvCs5dIHLaZY3XA_10unit_testss_19test_event_emission00EB1F_
FN:92,_RNvMs_NtCsdUZi5LvOpOZ_16astraweave_scene9streamingNtB4_21WorldPartitionManager10emit_event
FN:288,_RNvMs_NtCsdUZi5LvOpOZ_16astraweave_scene9streamingNtB4_21WorldPartitionManager11unload_cell
FN:350,_RNvMs_NtCsdUZi5LvOpOZ_16astraweave_scene9streamingNtB4_21WorldPartitionManager12active_cells
FN:355,_RNvMs_NtCsdUZi5LvOpOZ_16astraweave_scene9streamingNtB4_21WorldPartitionManager14is_cell_active
FN:242,_RNvMs_NtCsdUZi5LvOpOZ_16astraweave_scene9streamingNtB4_21WorldPartitionManager14load_cell_data
FN:321,_RNvMs_NtCsdUZi5LvOpOZ_16astraweave_scene9streamingNtB4_21WorldPartitionManager14update_metrics
FN:337,_RNvMs_NtCsdUZi5LvOpOZ_16astraweave_scene9streamingNtB4_21WorldPartitionManager15force_load_cell
FN:360,_RNvMs_NtCsdUZi5LvOpOZ_16astraweave_scene9streamingNtB4_21WorldPartitionManager15is_cell_loading
FN:249,_RNvMs_NtCsdUZi5LvOpOZ_16astraweave_scene9streamingNtB4_21WorldPartitionManager15load_asset_data
FN:146,_RNvMs_NtCsdUZi5LvOpOZ_16astraweave_scene9streamingNtB4_21WorldPartitionManager15start_load_cell
FN:345,_RNvMs_NtCsdUZi5LvOpOZ_16astraweave_scene9streamingNtB4_21WorldPartitionManager17force_unload_cell
FN:71,_RNvMs_NtCsdUZi5LvOpOZ_16astraweave_scene9streamingNtB4_21WorldPartitionManager3new
FN:99,_RNvMs_NtCsdUZi5LvOpOZ_16astraweave_scene9streamingNtB4_21WorldPartitionManager6update
FN:332,_RNvMs_NtCsdUZi5LvOpOZ_16astraweave_scene9streamingNtB4_21WorldPartitionManager7metrics
FN:366,_RNvNtCsdUZi5LvOpOZ_16astraweave_scene9streaming24create_streaming_manager
FN:36,_RNvXNtCsdUZi5LvOpOZ_16astraweave_scene9streamingNtB2_15StreamingConfigNtNtCsixiwFwjEgS7_4core7default7Default7default
FNDA:1,_RNCNvMs_NtCsdUZi5LvOpOZ_16astraweave_scene9streamingNtB6_21WorldPartitionManager11unload_cell0Cs5dIHLaZY3XA_10unit_tests
FNDA:2,_RNCNvMs_NtCsdUZi5LvOpOZ_16astraweave_scene9streamingNtB6_21WorldPartitionManager15force_load_cell0Cs5dIHLaZY3XA_10unit_tests
FNDA:2,_RNCNvMs_NtCsdUZi5LvOpOZ_16astraweave_scene9streamingNtB6_21WorldPartitionManager15start_load_cell0Cs5dIHLaZY3XA_10unit_tests
FNDA:1,_RNCNvMs_NtCsdUZi5LvOpOZ_16astraweave_scene9streamingNtB6_21WorldPartitionManager17force_unload_cell0Cs5dIHLaZY3XA_10unit_tests
FNDA:2,_RNCNCNvMs_NtCsdUZi5LvOpOZ_16astraweave_scene9streamingNtB8_21WorldPartitionManager15start_load_cell00Cs5dIHLaZY3XA_10unit_tests
FNDA:2,_RNCNvMs_NtCsdUZi5LvOpOZ_16astraweave_scene9streamingNtB6_21WorldPartitionManager14load_cell_data0Cs5dIHLaZY3XA_10unit_tests
FNDA:0,_RNCNvMs_NtCsdUZi5LvOpOZ_16astraweave_scene9streamingNtB6_21WorldPartitionManager15load_asset_data0Cs5dIHLaZY3XA_10unit_tests
FNDA:1,_RINvMs_NtCsdUZi5LvOpOZ_16astraweave_scene9streamingNtB5_21WorldPartitionManager18add_event_listenerNCNCNvCs5dIHLaZY3XA_10unit_testss_19test_event_emission00EB1F_
FNDA:2,_RNvMs_NtCsdUZi5LvOpOZ_16astraweave_scene9streamingNtB4_21WorldPartitionManager10emit_event
FNDA:1,_RNvMs_NtCsdUZi5LvOpOZ_16astraweave_scene9streamingNtB4_21WorldPartitionManager11unload_cell
FNDA:0,_RNvMs_NtCsdUZi5LvOpOZ_16astraweave_scene9streamingNtB4_21WorldPartitionManager12active_cells
FNDA:1,_RNvMs_NtCsdUZi5LvOpOZ_16astraweave_scene9streamingNtB4_21WorldPartitionManager14is_cell_active
FNDA:2,_RNvMs_NtCsdUZi5LvOpOZ_16astraweave_scene9streamingNtB4_21WorldPartitionManager14load_cell_data
FNDA:0,_RNvMs_NtCsdUZi5LvOpOZ_16astraweave_scene9streamingNtB4_21WorldPartitionManager14update_metrics
FNDA:2,_RNvMs_NtCsdUZi5LvOpOZ_16astraweave_scene9streamingNtB4_21WorldPartitionManager15force_load_cell
FNDA:0,_RNvMs_NtCsdUZi5LvOpOZ_16astraweave_scene9streamingNtB4_21WorldPartitionManager15is_cell_loading
FNDA:0,_RNvMs_NtCsdUZi5LvOpOZ_16astraweave_scene9streamingNtB4_21WorldPartitionManager15load_asset_data
FNDA:2,_RNvMs_NtCsdUZi5LvOpOZ_16astraweave_scene9streamingNtB4_21WorldPartitionManager15start_load_cell
FNDA:1,_RNvMs_NtCsdUZi5LvOpOZ_16astraweave_scene9streamingNtB4_21WorldPartitionManager17force_unload_cell
FNDA:6,_RNvMs_NtCsdUZi5LvOpOZ_16astraweave_scene9streamingNtB4_21WorldPartitionManager3new
FNDA:0,_RNvMs_NtCsdUZi5LvOpOZ_16astraweave_scene9streamingNtB4_21WorldPartitionManager6update
FNDA:3,_RNvMs_NtCsdUZi5LvOpOZ_16astraweave_scene9streamingNtB4_21WorldPartitionManager7metrics
FNDA:3,_RNvNtCsdUZi5LvOpOZ_16astraweave_scene9streaming24create_streaming_manager
FNDA:6,_RNvXNtCsdUZi5LvOpOZ_16astraweave_scene9streamingNtB2_15StreamingConfigNtNtCsixiwFwjEgS7_4core7default7Default7default
FNF:24
FNH:18
DA:36,6
DA:37,6
DA:38,6
DA:39,6
DA:40,6
DA:41,6
DA:42,6
DA:43,6
DA:71,6
DA:72,6
DA:73,6
DA:74,6
DA:75,6
DA:76,6
DA:77,6
DA:78,6
DA:79,6
DA:80,6
DA:81,6
DA:84,1
DA:85,1
DA:86,1
DA:88,1
DA:89,1
DA:92,2
DA:93,3
DA:94,1
DA:95,1
DA:96,2
DA:99,0
DA:146,2
DA:148,2
DA:149,0
DA:150,0
DA:152,0
DA:153,0
DA:154,0
DA:155,0
DA:157,0
DA:158,0
DA:159,0
DA:160,2
DA:163,2
DA:166,2
DA:167,2
DA:168,2
DA:171,2
DA:174,2
DA:175,2
DA:177,2
DA:179,2
DA:180,2
DA:185,2
DA:186,0
DA:188,0
DA:189,0
DA:192,0
DA:196,0
DA:197,0
DA:198,0
DA:201,0
DA:202,0
DA:203,0
DA:204,0
DA:206,0
DA:209,0
DA:212,0
DA:215,0
DA:217,0
DA:221,0
DA:223,0
DA:225,2
DA:227,2
DA:228,2
DA:229,2
DA:230,2
DA:231,2
DA:234,2
DA:238,2
DA:239,2
DA:242,2
DA:243,2
DA:244,2
DA:245,2
DA:246,2
DA:249,0
DA:250,0
DA:251,0
DA:252,0
DA:253,0
DA:254,0
DA:288,1
DA:289,1
DA:290,1
DA:291,0
DA:293,0
DA:296,0
DA:297,0
DA:298,0
DA:299,0
DA:305,0
DA:306,0
DA:307,0
DA:308,0
DA:311,0
DA:312,0
DA:314,0
DA:315,0
DA:317,0
DA:318,1
DA:321,0
DA:332,3
DA:333,3
DA:334,3
DA:337,2
DA:338,2
DA:339,0
DA:340,2
DA:341,2
DA:342,2
DA:345,1
DA:346,1
DA:347,1
DA:350,0
DA:351,0
DA:352,0
DA:355,1
DA:356,1
DA:357,1
DA:360,0
DA:361,0
DA:362,0
DA:366,3
DA:367,3
DA:368,3
BRF:0
BRH:0
LF:142
LH:84
end_of_record
SF:C:\Users\pv2br\source\repos\AstraWeave-AI-Native-Gaming-Engine\astraweave-scene\src\world_partition.rs
FN:456,_RNCNvMs3_NtCsdUZi5LvOpOZ_16astraweave_scene15world_partitionNtB7_14WorldPartition12loaded_cells0B9_
FN:412,_RNCNvMs3_NtCsdUZi5LvOpOZ_16astraweave_scene15world_partitionNtB7_14WorldPartition18get_or_create_cell0B9_
FN:94,_RNvMNtCsdUZi5LvOpOZ_16astraweave_scene15world_partitionNtB2_9GridCoord12neighbors_2d
FN:78,_RNvMNtCsdUZi5LvOpOZ_16astraweave_scene15world_partitionNtB2_9GridCoord12neighbors_3d
FN:60,_RNvMNtCsdUZi5LvOpOZ_16astraweave_scene15world_partitionNtB2_9GridCoord14from_world_pos
FN:69,_RNvMNtCsdUZi5LvOpOZ_16astraweave_scene15world_partitionNtB2_9GridCoord15to_world_center
FN:108,_RNvMNtCsdUZi5LvOpOZ_16astraweave_scene15world_partitionNtB2_9GridCoord18manhattan_distance
FN:55,_RNvMNtCsdUZi5LvOpOZ_16astraweave_scene15world_partitionNtB2_9GridCoord3new
FN:252,_RNvMs0_NtCsdUZi5LvOpOZ_16astraweave_scene15world_partitionNtB5_7Frustum15intersects_aabb
FN:285,_RNvMs0_NtCsdUZi5LvOpOZ_16astraweave_scene15world_partitionNtB5_7Frustum16cells_in_frustum
FN:190,_RNvMs0_NtCsdUZi5LvOpOZ_16astraweave_scene15world_partitionNtB5_7Frustum20from_view_projection
FN:370,_RNvMs1_NtCsdUZi5LvOpOZ_16astraweave_scene15world_partitionNtB5_4Cell10is_loading
FN:352,_RNvMs1_NtCsdUZi5LvOpOZ_16astraweave_scene15world_partitionNtB5_4Cell3new
FN:366,_RNvMs1_NtCsdUZi5LvOpOZ_16astraweave_scene15world_partitionNtB5_4Cell9is_loaded
FN:421,_RNvMs3_NtCsdUZi5LvOpOZ_16astraweave_scene15world_partitionNtB5_14WorldPartition12get_cell_mut
FN:453,_RNvMs3_NtCsdUZi5LvOpOZ_16astraweave_scene15world_partitionNtB5_14WorldPartition12loaded_cells
FN:446,_RNvMs3_NtCsdUZi5LvOpOZ_16astraweave_scene15world_partitionNtB5_14WorldPartition13remove_entity
FN:462,_RNvMs3_NtCsdUZi5LvOpOZ_16astraweave_scene15world_partitionNtB5_14WorldPartition15cells_in_radius
FN:409,_RNvMs3_NtCsdUZi5LvOpOZ_16astraweave_scene15world_partitionNtB5_14WorldPartition18get_or_create_cell
FN:426,_RNvMs3_NtCsdUZi5LvOpOZ_16astraweave_scene15world_partitionNtB5_14WorldPartition21assign_entity_to_cell
FN:481,_RNvMs3_NtCsdUZi5LvOpOZ_16astraweave_scene15world_partitionNtB5_14WorldPartition21memory_usage_estimate
FN:435,_RNvMs3_NtCsdUZi5LvOpOZ_16astraweave_scene15world_partitionNtB5_14WorldPartition32assign_entity_to_cells_by_bounds
FN:401,_RNvMs3_NtCsdUZi5LvOpOZ_16astraweave_scene15world_partitionNtB5_14WorldPartition3new
FN:416,_RNvMs3_NtCsdUZi5LvOpOZ_16astraweave_scene15world_partitionNtB5_14WorldPartition8get_cell
FN:539,_RNvMs4_NtCsdUZi5LvOpOZ_16astraweave_scene15world_partitionNtB5_8LRUCache3len
FN:527,_RNvMs4_NtCsdUZi5LvOpOZ_16astraweave_scene15world_partitionNtB5_8LRUCache3lru
FN:500,_RNvMs4_NtCsdUZi5LvOpOZ_16astraweave_scene15world_partitionNtB5_8LRUCache3new
FN:508,_RNvMs4_NtCsdUZi5LvOpOZ_16astraweave_scene15world_partitionNtB5_8LRUCache5touch
FN:532,_RNvMs4_NtCsdUZi5LvOpOZ_16astraweave_scene15world_partitionNtB5_8LRUCache6remove
FN:522,_RNvMs4_NtCsdUZi5LvOpOZ_16astraweave_scene15world_partitionNtB5_8LRUCache8contains
FN:544,_RNvMs4_NtCsdUZi5LvOpOZ_16astraweave_scene15world_partitionNtB5_8LRUCache8is_empty
FN:154,_RNvMs_NtCsdUZi5LvOpOZ_16astraweave_scene15world_partitionNtB4_4AABB10intersects
FN:139,_RNvMs_NtCsdUZi5LvOpOZ_16astraweave_scene15world_partitionNtB4_4AABB12half_extents
FN:144,_RNvMs_NtCsdUZi5LvOpOZ_16astraweave_scene15world_partitionNtB4_4AABB14contains_point
FN:164,_RNvMs_NtCsdUZi5LvOpOZ_16astraweave_scene15world_partitionNtB4_4AABB17overlapping_cells
FN:126,_RNvMs_NtCsdUZi5LvOpOZ_16astraweave_scene15world_partitionNtB4_4AABB24from_center_half_extents
FN:121,_RNvMs_NtCsdUZi5LvOpOZ_16astraweave_scene15world_partitionNtB4_4AABB3new
FN:134,_RNvMs_NtCsdUZi5LvOpOZ_16astraweave_scene15world_partitionNtB4_4AABB6center
FN:385,_RNvXs2_NtCsdUZi5LvOpOZ_16astraweave_scene15world_partitionNtB5_10GridConfigNtNtCsixiwFwjEgS7_4core7default7Default7default
FN:448,_RNCNvMs3_NtCsdUZi5LvOpOZ_16astraweave_scene15world_partitionNtB7_14WorldPartition13remove_entity0B9_
FN:510,_RNCNvMs4_NtCsdUZi5LvOpOZ_16astraweave_scene15world_partitionNtB7_8LRUCache5touch0B9_
FN:533,_RNCNvMs4_NtCsdUZi5LvOpOZ_16astraweave_scene15world_partitionNtB7_8LRUCache6remove0B9_
FNDA:0,_RNCNvMs3_NtCsdUZi5LvOpOZ_16astraweave_scene15world_partitionNtB7_14WorldPartition12loaded_cells0B9_
FNDA:2,_RNCNvMs3_NtCsdUZi5LvOpOZ_16astraweave_scene15world_partitionNtB7_14WorldPartition18get_or_create_cell0B9_
FNDA:1,_RNvMNtCsdUZi5LvOpOZ_16astraweave_scene15world_partitionNtB2_9GridCoord12neighbors_2d
FNDA:1,_RNvMNtCsdUZi5LvOpOZ_16astraweave_scene15world_partitionNtB2_9GridCoord12neighbors_3d
FNDA:4,_RNvMNtCsdUZi5LvOpOZ_16astraweave_scene15world_partitionNtB2_9GridCoord14from_world_pos
FNDA:4,_RNvMNtCsdUZi5LvOpOZ_16astraweave_scene15world_partitionNtB2_9GridCoord15to_world_center
FNDA:2,_RNvMNtCsdUZi5LvOpOZ_16astraweave_scene15world_partitionNtB2_9GridCoord18manhattan_distance
FNDA:79,_RNvMNtCsdUZi5LvOpOZ_16astraweave_scene15world_partitionNtB2_9GridCoord3new
FNDA:0,_RNvMs0_NtCsdUZi5LvOpOZ_16astraweave_scene15world_partitionNtB5_7Frustum15intersects_aabb
FNDA:0,_RNvMs0_NtCsdUZi5LvOpOZ_16astraweave_scene15world_partitionNtB5_7Frustum16cells_in_frustum
FNDA:0,_RNvMs0_NtCsdUZi5LvOpOZ_16astraweave_scene15world_partitionNtB5_7Frustum20from_view_projection
FNDA:0,_RNvMs1_NtCsdUZi5LvOpOZ_16astraweave_scene15world_partitionNtB5_4Cell10is_loading
FNDA:2,_RNvMs1_NtCsdUZi5LvOpOZ_16astraweave_scene15world_partitionNtB5_4Cell3new
FNDA:0,_RNvMs1_NtCsdUZi5LvOpOZ_16astraweave_scene15world_partitionNtB5_4Cell9is_loaded
FNDA:2,_RNvMs3_NtCsdUZi5LvOpOZ_16astraweave_scene15world_partitionNtB5_14WorldPartition12get_cell_mut
FNDA:0,_RNvMs3_NtCsdUZi5LvOpOZ_16astraweave_scene15world_partitionNtB5_14WorldPartition12loaded_cells
FNDA:0,_RNvMs3_NtCsdUZi5LvOpOZ_16astraweave_scene15world_partitionNtB5_14WorldPartition13remove_entity
FNDA:0,_RNvMs3_NtCsdUZi5LvOpOZ_16astraweave_scene15world_partitionNtB5_14WorldPartition15cells_in_radius
FNDA:2,_RNvMs3_NtCsdUZi5LvOpOZ_16astraweave_scene15world_partitionNtB5_14WorldPartition18get_or_create_cell
FNDA:0,_RNvMs3_NtCsdUZi5LvOpOZ_16astraweave_scene15world_partitionNtB5_14WorldPartition21assign_entity_to_cell
FNDA:0,_RNvMs3_NtCsdUZi5LvOpOZ_16astraweave_scene15world_partitionNtB5_14WorldPartition21memory_usage_estimate
FNDA:0,_RNvMs3_NtCsdUZi5LvOpOZ_16astraweave_scene15world_partitionNtB5_14WorldPartition32assign_entity_to_cells_by_bounds
FNDA:7,_RNvMs3_NtCsdUZi5LvOpOZ_16astraweave_scene15world_partitionNtB5_14WorldPartition3new
FNDA:0,_RNvMs3_NtCsdUZi5LvOpOZ_16astraweave_scene15world_partitionNtB5_14WorldPartition8get_cell
FNDA:0,_RNvMs4_NtCsdUZi5LvOpOZ_16astraweave_scene15world_partitionNtB5_8LRUCache3len
FNDA:2,_RNvMs4_NtCsdUZi5LvOpOZ_16astraweave_scene15world_partitionNtB5_8LRUCache3lru
FNDA:7,_RNvMs4_NtCsdUZi5LvOpOZ_16astraweave_scene15world_partitionNtB5_8LRUCache3new
FNDA:5,_RNvMs4_NtCsdUZi5LvOpOZ_16astraweave_scene15world_partitionNtB5_8LRUCache5touch
FNDA:0,_RNvMs4_NtCsdUZi5LvOpOZ_16astraweave_scene15world_partitionNtB5_8LRUCache6remove
FNDA:4,_RNvMs4_NtCsdUZi5LvOpOZ_16astraweave_scene15world_partitionNtB5_8LRUCache8contains
FNDA:0,_RNvMs4_NtCsdUZi5LvOpOZ_16astraweave_scene15world_partitionNtB5_8LRUCache8is_empty
FNDA:2,_RNvMs_NtCsdUZi5LvOpOZ_16astraweave_scene15world_partitionNtB4_4AABB10intersects
FNDA:0,_RNvMs_NtCsdUZi5LvOpOZ_16astraweave_scene15world_partitionNtB4_4AABB12half_extents
FNDA:5,_RNvMs_NtCsdUZi5LvOpOZ_16astraweave_scene15world_partitionNtB4_4AABB14contains_point
FNDA:1,_RNvMs_NtCsdUZi5LvOpOZ_16astraweave_scene15world_partitionNtB4_4AABB17overlapping_cells
FNDA:2,_RNvMs_NtCsdUZi5LvOpOZ_16astraweave_scene15world_partitionNtB4_4AABB24from_center_half_extents
FNDA:0,_RNvMs_NtCsdUZi5LvOpOZ_16astraweave_scene15world_partitionNtB4_4AABB3new
FNDA:0,_RNvMs_NtCsdUZi5LvOpOZ_16astraweave_scene15world_partitionNtB4_4AABB6center
FNDA:7,_RNvXs2_NtCsdUZi5LvOpOZ_16astraweave_scene15world_partitionNtB5_10GridConfigNtNtCsixiwFwjEgS7_4core7default7Default7default
FNDA:0,_RNCNvMs3_NtCsdUZi5LvOpOZ_16astraweave_scene15world_partitionNtB7_14WorldPartition13remove_entity0B9_
FNDA:9,_RNCNvMs4_NtCsdUZi5LvOpOZ_16astraweave_scene15world_partitionNtB7_8LRUCache5touch0B9_
FNDA:0,_RNCNvMs4_NtCsdUZi5LvOpOZ_16astraweave_scene15world_partitionNtB7_8LRUCache6remove0B9_
FNF:42
FNH:21
DA:55,79
DA:56,79
DA:57,79
DA:60,4
DA:61,4
DA:62,4
DA:63,4
DA:64,4
DA:65,4
DA:66,4
DA:69,4
DA:70,4
DA:71,4
DA:72,4
DA:73,4
DA:75,4
DA:78,1
DA:79,1
DA:80,4
DA:81,12
DA:82,36
DA:83,27
DA:84,1
DA:85,26
DA:86,26
DA:90,1
DA:91,1
DA:94,1
DA:95,1
DA:96,4
DA:97,12
DA:98,9
DA:99,1
DA:100,8
DA:101,8
DA:104,1
DA:105,1
DA:108,2
DA:109,2
DA:110,2
DA:121,0
DA:122,0
DA:123,0
DA:126,2
DA:127,2
DA:128,2
DA:129,2
DA:130,2
DA:131,2
DA:134,0
DA:135,0
DA:136,0
DA:139,0
DA:140,0
DA:141,0
DA:144,5
DA:145,5
DA:146,4
DA:147,3
DA:148,3
DA:149,3
DA:150,3
DA:151,5
DA:154,2
DA:155,2
DA:156,2
DA:157,1
DA:158,1
DA:159,1
DA:160,1
DA:161,2
DA:164,1
DA:165,1
DA:166,1
DA:168,1
DA:169,3
DA:170,6
DA:171,18
DA:172,18
DA:173,18
DA:176,1
DA:177,1
DA:190,0
DA:191,0
DA:195,0
DA:196,0
DA:197,0
DA:198,0
DA:199,0
DA:200,0
DA:203,0
DA:204,0
DA:205,0
DA:206,0
DA:207,0
DA:208,0
DA:211,0
DA:212,0
DA:213,0
DA:214,0
DA:215,0
DA:216,0
DA:219,0
DA:220,0
DA:221,0
DA:222,0
DA:223,0
DA:224,0
DA:227,0
DA:228,0
DA:229,0
DA:230,0
DA:231,0
DA:232,0
DA:235,0
DA:236,0
DA:237,0
DA:238,0
DA:239,0
DA:240,0
DA:243,0
DA:244,0
DA:245,0
DA:246,0
DA:248,0
DA:249,0
DA:252,0
DA:253,0
DA:254,0
DA:255,0
DA:258,0
DA:259,0
DA:260,0
DA:262,0
DA:264,0
DA:265,0
DA:267,0
DA:269,0
DA:270,0
DA:272,0
DA:277,0
DA:278,0
DA:279,0
DA:281,0
DA:282,0
DA:285,0
DA:286,0
DA:287,0
DA:288,0
DA:289,0
DA:290,0
DA:291,0
DA:292,0
DA:294,0
DA:295,0
DA:296,0
DA:297,0
DA:298,0
DA:299,0
DA:302,0
DA:303,0
DA:304,0
DA:306,0
DA:307,0
DA:308,0
DA:312,0
DA:313,0
DA:352,2
DA:353,2
DA:354,2
DA:355,2
DA:357,2
DA:358,2
DA:359,2
DA:360,2
DA:361,2
DA:362,2
DA:363,2
DA:364,2
DA:366,0
DA:367,0
DA:368,0
DA:370,0
DA:371,0
DA:372,0
DA:385,7
DA:386,7
DA:387,7
DA:388,7
DA:389,7
DA:390,7
DA:401,7
DA:402,7
DA:403,7
DA:404,7
DA:405,7
DA:406,7
DA:409,2
DA:410,2
DA:411,2
DA:412,2
DA:413,2
DA:416,0
DA:417,0
DA:418,0
DA:421,2
DA:422,2
DA:423,2
DA:426,0
DA:427,0
DA:428,0
DA:429,0
DA:430,0
DA:431,0
DA:432,0
DA:435,0
DA:436,0
DA:437,0
DA:438,0
DA:439,0
DA:440,0
DA:441,0
DA:443,0
DA:446,0
DA:447,0
DA:448,0
DA:450,0
DA:453,0
DA:454,0
DA:455,0
DA:456,0
DA:457,0
DA:458,0
DA:459,0
DA:462,0
DA:463,0
DA:464,0
DA:466,0
DA:467,0
DA:468,0
DA:469,0
DA:470,0
DA:471,0
DA:472,0
DA:473,0
DA:474,0
DA:477,0
DA:478,0
DA:481,0
DA:482,0
DA:483,0
DA:484,0
DA:485,0
DA:486,0
DA:487,0
DA:488,0
DA:489,0
DA:500,7
DA:501,7
DA:502,7
DA:503,7
DA:504,7
DA:505,7
DA:508,5
DA:510,9
DA:511,1
DA:512,4
DA:514,5
DA:516,5
DA:517,1
DA:518,4
DA:519,5
DA:522,4
DA:523,4
DA:524,4
DA:527,2
DA:528,2
DA:529,2
DA:532,0
DA:533,0
DA:534,0
DA:535,0
DA:536,0
DA:539,0
DA:540,0
DA:541,0
DA:544,0
DA:545,0
DA:546,0
BRF:0
BRH:0
LF:294
LH:128
end_of_record